LX51 LINKER/LOCATER V4.66.97.0                                                          09/27/2023  17:05:17  PAGE 1


LX51 LINKER/LOCATER V4.66.97.0, INVOKED BY:
C:\KEIL_C51\C51\BIN\LX51.EXE .\OBJ\STARTUP_M5.obj, .\OBJ\main.obj, .\OBJ\sys.obj, .\OBJ\crc16.obj, .\OBJ\i2c.obj, .\OBJ\
>> Uart.obj, .\OBJ\T5LLIB.obj, .\OBJ\module.obj, .\OBJ\mb_user.obj, .\OBJ\mb_crc.obj, .\OBJ\mb_hook.obj, .\OBJ\mb_host.o
>> bj, .\OBJ\mb_port.obj, .\OBJ\nor_flash.obj, .\OBJ\scene.obj, .\OBJ\time_scene.obj TO .\OBJ\T5L51 PRINT (.\OBJ\T5L51.m
>> ap) REMOVEUNUSED CLASSES (XDATA (X:0X8000-X:0XFFFF), HDATA (X:0X8000-X:0XFFFF))




PROGRAM RECURSIONS REMOVED FROM CALL TREE
=========================================
+--> _I2CBW/I2C
<--+ I2CSTOP/I2C


+--> _I2CBW/I2C
<--+ I2C


+--> _RX8130_WRIT_BYTE/I2C
<--+ RX8130_STOP/I2C



CPU MODE:     8051 MODE
MEMORY MODEL: LARGE


INPUT MODULES INCLUDED:
  .\OBJ\STARTUP_M5.obj (?C_STARTUP)
         COMMENT TYPE 1: A51 / ASM51 Assembler
  .\OBJ\main.obj (MAIN)
         COMMENT TYPE 0: C51 V9.60.0.0
  .\OBJ\sys.obj (SYS)
         COMMENT TYPE 0: C51 V9.60.0.0
  .\OBJ\crc16.obj (CRC16)
         COMMENT TYPE 0: C51 V9.60.0.0
  .\OBJ\i2c.obj (I2C)
         COMMENT TYPE 0: C51 V9.60.0.0
  .\OBJ\Uart.obj (UART)
         COMMENT TYPE 0: C51 V9.60.0.0
  .\OBJ\T5LLIB.obj (T5LLIB)
         COMMENT TYPE 0: C51 V9.60.0.0
  .\OBJ\module.obj (MODULE)
         COMMENT TYPE 0: C51 V9.60.0.0
  .\OBJ\mb_user.obj (MB_USER)
         COMMENT TYPE 0: C51 V9.60.0.0
  .\OBJ\mb_crc.obj (MB_CRC)
         COMMENT TYPE 0: C51 V9.60.0.0
  .\OBJ\mb_hook.obj (MB_HOOK)
         COMMENT TYPE 0: C51 V9.60.0.0
  .\OBJ\mb_host.obj (MB_HOST)
         COMMENT TYPE 0: C51 V9.60.0.0
  .\OBJ\mb_port.obj (MB_PORT)
         COMMENT TYPE 0: C51 V9.60.0.0
  .\OBJ\nor_flash.obj (NOR_FLASH)
         COMMENT TYPE 0: C51 V9.60.0.0
  .\OBJ\scene.obj (SCENE)
         COMMENT TYPE 0: C51 V9.60.0.0
  .\OBJ\time_scene.obj (TIME_SCENE)
         COMMENT TYPE 0: C51 V9.60.0.0
  C:\KEIL_C51\C51\LIB\C51L.LIB (?C_INIT)
         COMMENT TYPE 1: A51 / ASM51 Assembler
  C:\KEIL_C51\C51\LIB\C51L.LIB (?C?COPY)
         COMMENT TYPE 1: A51 / ASM51 Assembler
  C:\KEIL_C51\C51\LIB\C51L.LIB (?C?CLDPTR)
LX51 LINKER/LOCATER V4.66.97.0                                                        09/27/2023  17:05:17  PAGE 2


         COMMENT TYPE 1: A51 / ASM51 Assembler
  C:\KEIL_C51\C51\LIB\C51L.LIB (?C?CLDOPTR)
         COMMENT TYPE 1: A51 / ASM51 Assembler
  C:\KEIL_C51\C51\LIB\C51L.LIB (?C?CSTPTR)
         COMMENT TYPE 1: A51 / ASM51 Assembler
  C:\KEIL_C51\C51\LIB\C51L.LIB (?C?CSTOPTR)
         COMMENT TYPE 1: A51 / ASM51 Assembler
  C:\KEIL_C51\C51\LIB\C51L.LIB (?C?IMUL)
         COMMENT TYPE 1: A51 / ASM51 Assembler
  C:\KEIL_C51\C51\LIB\C51L.LIB (?C?UIDIV)
         COMMENT TYPE 1: A51 / ASM51 Assembler
  C:\KEIL_C51\C51\LIB\C51L.LIB (?C?SIDIV)
         COMMENT TYPE 1: A51 / ASM51 Assembler
  C:\KEIL_C51\C51\LIB\C51L.LIB (?C?IILDX)
         COMMENT TYPE 1: A51 / ASM51 Assembler
  C:\KEIL_C51\C51\LIB\C51L.LIB (?C?ILDIX)
         COMMENT TYPE 1: A51 / ASM51 Assembler
  C:\KEIL_C51\C51\LIB\C51L.LIB (?C?ILDPTR)
         COMMENT TYPE 1: A51 / ASM51 Assembler
  C:\KEIL_C51\C51\LIB\C51L.LIB (?C?ILDOPTR)
         COMMENT TYPE 1: A51 / ASM51 Assembler
  C:\KEIL_C51\C51\LIB\C51L.LIB (?C?ISTPTR)
         COMMENT TYPE 1: A51 / ASM51 Assembler
  C:\KEIL_C51\C51\LIB\C51L.LIB (?C?ISTOPTR)
         COMMENT TYPE 1: A51 / ASM51 Assembler
  C:\KEIL_C51\C51\LIB\C51L.LIB (?C?LADD)
         COMMENT TYPE 1: A51 / ASM51 Assembler
  C:\KEIL_C51\C51\LIB\C51L.LIB (?C?ULDIV)
         COMMENT TYPE 1: A51 / ASM51 Assembler
  C:\KEIL_C51\C51\LIB\C51L.LIB (?C?ULCMP)
         COMMENT TYPE 1: A51 / ASM51 Assembler
  C:\KEIL_C51\C51\LIB\C51L.LIB (?C?ULSHR)
         COMMENT TYPE 1: A51 / ASM51 Assembler
  C:\KEIL_C51\C51\LIB\C51L.LIB (?C?SLSHR)
         COMMENT TYPE 1: A51 / ASM51 Assembler
  C:\KEIL_C51\C51\LIB\C51L.LIB (?C?LLDXDATA)
         COMMENT TYPE 1: A51 / ASM51 Assembler
  C:\KEIL_C51\C51\LIB\C51L.LIB (?C?LLDXDATA0)
         COMMENT TYPE 1: A51 / ASM51 Assembler
  C:\KEIL_C51\C51\LIB\C51L.LIB (?C?LSTXDATA)
         COMMENT TYPE 1: A51 / ASM51 Assembler
  C:\KEIL_C51\C51\LIB\C51L.LIB (?C?LSTKXDATA)
         COMMENT TYPE 1: A51 / ASM51 Assembler
  C:\KEIL_C51\C51\LIB\C51L.LIB (?C?OFFXADD)
         COMMENT TYPE 1: A51 / ASM51 Assembler
  C:\KEIL_C51\C51\LIB\C51L.LIB (?C?PLDXDATA)
         COMMENT TYPE 1: A51 / ASM51 Assembler
  C:\KEIL_C51\C51\LIB\C51L.LIB (?C?PLDIXDATA)
         COMMENT TYPE 1: A51 / ASM51 Assembler
  C:\KEIL_C51\C51\LIB\C51L.LIB (?C?PSTXDATA)
         COMMENT TYPE 1: A51 / ASM51 Assembler
  C:\KEIL_C51\C51\LIB\C51L.LIB (?C?PLDOPTR)
         COMMENT TYPE 1: A51 / ASM51 Assembler
  C:\KEIL_C51\C51\LIB\C51L.LIB (?C?PSTOPTR)
         COMMENT TYPE 1: A51 / ASM51 Assembler
  C:\KEIL_C51\C51\LIB\C51L.LIB (?C?CCASE)
         COMMENT TYPE 1: A51 / ASM51 Assembler
  C:\KEIL_C51\C51\LIB\C51L.LIB (PRINTF)
         COMMENT TYPE 1: A51 / ASM51 Assembler
  C:\KEIL_C51\C51\LIB\C51L.LIB (?C?STRCMP)
         COMMENT TYPE 1: A51 / ASM51 Assembler
  C:\KEIL_C51\C51\LIB\C51L.LIB (STRNCPY)
         COMMENT TYPE 1: C51 Compiler
  C:\KEIL_C51\C51\LIB\C51L.LIB (STRLEN)
         COMMENT TYPE 1: A51 / ASM51 Assembler
LX51 LINKER/LOCATER V4.66.97.0                                                        09/27/2023  17:05:17  PAGE 3


  C:\KEIL_C51\C51\LIB\C51L.LIB (STRCHR)
         COMMENT TYPE 1: A51 / ASM51 Assembler
  C:\KEIL_C51\C51\LIB\C51L.LIB (STRSTR)
         COMMENT TYPE 1: C51 Compiler
  C:\KEIL_C51\C51\LIB\C51L.LIB (?C?MEMSET)
         COMMENT TYPE 1: A51 / ASM51 Assembler
  C:\KEIL_C51\C51\LIB\C51L.LIB (?C?MEMMOVE)
         COMMENT TYPE 1: A51 / ASM51 Assembler
  C:\KEIL_C51\C51\LIB\C51L.LIB (?C?PLDIDATA)
         COMMENT TYPE 1: A51 / ASM51 Assembler
  C:\KEIL_C51\C51\LIB\C51L.LIB (?C?PSTIDATA)
         COMMENT TYPE 1: A51 / ASM51 Assembler
  C:\KEIL_C51\C51\LIB\C51L.LIB (?C?PLDPDATA)
         COMMENT TYPE 1: A51 / ASM51 Assembler
  C:\KEIL_C51\C51\LIB\C51L.LIB (?C?PSTPDATA)
         COMMENT TYPE 1: A51 / ASM51 Assembler
  C:\KEIL_C51\C51\LIB\C51L.LIB (?C?PLDCODE)
         COMMENT TYPE 1: A51 / ASM51 Assembler


ACTIVE MEMORY CLASSES OF MODULE:  .\OBJ\T5L51 (?C_STARTUP)

BASE        START       END         USED      MEMORY CLASS
==========================================================
X:000000H   X:008000H   X:00FFFFH   004FC9H   XDATA
X:000000H   X:008000H   X:00FFFFH             HDATA
C:000000H   C:000000H   C:00FFFFH   00D469H   CODE
I:000000H   I:000000H   I:0000FFH   000001H   IDATA
C:000000H   C:000000H   C:00FFFFH   00195FH   CONST
I:000020H.0 I:000020H.0 I:00002FH.7 000002H.1 BIT
I:000000H   I:000000H   I:00007FH   00000DH   DATA


MEMORY MAP OF MODULE:  .\OBJ\T5L51 (?C_STARTUP)


START     STOP      LENGTH    ALIGN  RELOC    MEMORY CLASS   SEGMENT NAME
=========================================================================

* * * * * * * * * * *   D A T A   M E M O R Y   * * * * * * * * * * * * *
000000H   000007H   000008H   ---    AT..     DATA           "REG BANK 0"
000008H   00000CH   000005H   BYTE   UNIT     DATA           _DATA_GROUP_
00000DH.0 00001FH.7 000013H.0 ---    ---      **GAP**
000020H.0 000021H.0 000001H.1 BIT    UNIT     BIT            _BIT_GROUP_
000021H.1 000021H.7 000000H.7 BIT    UNIT     BIT            ?BI?UART
000022H.0 000022H.0 000000H.1 BIT    UNIT     BIT            ?BI?SYS
000022H.1 000022H   000000H.7 ---    ---      **GAP**
000023H   000023H   000001H   BYTE   UNIT     IDATA          ?STACK

* * * * * * * * * * *   C O D E   M E M O R Y   * * * * * * * * * * * * *
000000H   000002H   000003H   ---    OFFS..   CODE           ?CO??C_STARTUP?0
000003H   000022H   000020H   BYTE   UNIT     CODE           ?PR?_SYS_DELAY_ABOUT_MS?SYS
000023H   000025H   000003H   BYTE   OFFS..   CODE           ?UART?00023
000026H   00002AH   000005H   BYTE   UNIT     CODE           ?PR?_MB_PORT_GETCHAR?MB_PORT
00002BH   00002DH   000003H   BYTE   OFFS..   CODE           ?SYS?0002B
00002EH   000052H   000025H   BYTE   UNIT     CODE           ?PR?READ_PIC?MODULE
000053H   000055H   000003H   BYTE   OFFS..   CODE           ?UART?00053
000056H   000059H   000004H   BYTE   UNIT     CODE           ?PR?SDA_IN?I2C
00005AH   00005AH   000001H   BYTE   UNIT     CODE           ?PR?MB_PORT_TIMERENABLE?MB_PORT
00005BH   00005DH   000003H   BYTE   OFFS..   CODE           ?UART?0005B
00005EH   000061H   000004H   BYTE   UNIT     CODE           ?PR?SDA_OUT?I2C
000062H   000062H   000001H   ---    ---      **GAP**
000063H   000065H   000003H   BYTE   OFFS..   CODE           ?UART?00063
000066H   000068H   000003H   BYTE   UNIT     CODE           ?PR?MB_SET_RECEIVE_STATE?MB_PORT
000069H   00006AH   000002H   ---    ---      **GAP**
LX51 LINKER/LOCATER V4.66.97.0                                                        09/27/2023  17:05:17  PAGE 4


00006BH   00006DH   000003H   BYTE   OFFS..   CODE           ?UART?0006B
00006EH   000082H   000015H   BYTE   UNIT     CODE           ?PR?_CLEAR_SINGLE_SCENE?SCENE
000083H   000085H   000003H   BYTE   OFFS..   CODE           ?UART?00083
000086H   0000F5H   000070H   BYTE   UNIT     CODE           ?PR?AUTOMATICALLY_RETRIEVE?MODULE
0000F6H   0000F7H   000002H   ---    ---      **GAP**
0000F8H   0000FFH   000008H   ---    OFFS..   CODE           ?CO??C_STARTUP?1
000100H   002178H   002079H   BYTE   UNIT     CODE           ?C_INITSEG
002179H   002A45H   0008CDH   BYTE   UNIT     CODE           ?C?LIB_CODE
002A46H   003152H   00070DH   BYTE   UNIT     CODE           ?PR?_DISPLAY_TIMING_SCENE_INFOR?TIME_SCENE
003153H   003733H   0005E1H   BYTE   UNIT     CODE           ?PR?TIME_SCENE
003734H   003D0AH   0005D7H   BYTE   UNIT     CODE           ?PR?SCENE
003D0BH   00423FH   000535H   BYTE   UNIT     CODE           ?PR?MODULE
004240H   0046E0H   0004A1H   BYTE   UNIT     CODE           ?PR?_MODULE_RELAY_SCENE_SET?SCENE
0046E1H   004B53H   000473H   BYTE   UNIT     CODE           ?PR?_TIMING_MODULE_RELAY_SCENE_SET?TIME_SCENE
004B54H   004ED4H   000381H   BYTE   UNIT     CODE           ?PR?_DISPLAY_SCENE_INFOR?SCENE
004ED5H   005239H   000365H   BYTE   UNIT     CODE           ?PR?PRINTF?PRINTF
00523AH   00551DH   0002E4H   BYTE   UNIT     CODE           ?PR?_TIMING_MODULE_PARAMETER_TIME_FRAME_CHANNEL_SEND?MODUL
                                                             -E
00551EH   0057EFH   0002D2H   BYTE   UNIT     CODE           ?PR?_TIMING_MODULE_PARAMETER_ONGITUDE_LATITUDE_SEND?MODULE
0057F0H   005A8AH   00029BH   BYTE   UNIT     CODE           ?PR?TIMING_AUTO_DETECT?TIME_SCENE
005A8BH   005D0FH   000285H   BYTE   UNIT     CODE           ?PR?_ADD_MODULE_SCENE_INFOR?SCENE
005D10H   005F8DH   00027EH   BYTE   UNIT     CODE           ?PR?MAIN?MAIN
005F8EH   0061F9H   00026CH   BYTE   UNIT     CODE           ?PR?_DIM_SINGLE_CTRL?MODULE
0061FAH   0063D0H   0001D7H   BYTE   UNIT     CODE           ?PR?_SAVE_MODULE_INFORMATION?MODULE
0063D1H   00659BH   0001CBH   BYTE   UNIT     CODE           ?PR?_RELAY_SINGLE_CTRL?MODULE
00659CH   006752H   0001B7H   BYTE   UNIT     CODE           ?PR?_MODBUS_MASTER_SEND?MB_USER
006753H   006905H   0001B3H   BYTE   UNIT     CODE           ?PR?MODULE_ALL_CTRL?MODULE
006906H   006AACH   0001A7H   BYTE   UNIT     CODE           ?PR?_DEAL_83_CMD?UART
006AADH   006C31H   000185H   BYTE   UNIT     CODE           ?PR?UART
006C32H   006DADH   00017CH   BYTE   UNIT     CODE           ?PR?_DISPLAY_EDIT_INTERFACE?MODULE
006DAEH   006F1CH   00016FH   BYTE   UNIT     CODE           ?PR?_DEAL_82_CMD?UART
006F1DH   007087H   00016BH   BYTE   UNIT     CODE           ?PR?_TIMING_SCENE_MODTIFY?TIME_SCENE
007088H   0071E9H   000162H   BYTE   UNIT     CODE           ?PR?_MODULE_DIM_SCENE_SET?SCENE
0071EAH   007322H   000139H   BYTE   UNIT     CODE           ?PR?SYS_TIMER2_ISR?SYS
007323H   007459H   000137H   BYTE   UNIT     CODE           ?PR?_SCENE_NAME_MODIFY?SCENE
00745AH   00758CH   000133H   BYTE   UNIT     CODE           ?PR?_SCENE_INFOR_DELETE_CTRL?SCENE
00758DH   0076BDH   000131H   BYTE   UNIT     CODE           ?PR?_TIMING_MODULE_DIM_SCENE_SET?TIME_SCENE
0076BEH   0077ECH   00012FH   BYTE   UNIT     CODE           ?PR?SET_MODULE_TYPE?MODULE
0077EDH   007919H   00012DH   BYTE   UNIT     CODE           ?PR?_DIM_ALL_CTRL?MODULE
00791AH   007A43H   00012AH   BYTE   UNIT     CODE           ?PR?_MODULE_SCENE_INFOR_DIS?SCENE
007A44H   007B6CH   000129H   BYTE   UNIT     CODE           ?PR?_TIMING_MODULE_PARAMETER_SOLAR_CHANNEL_SEND?MODULE
007B6DH   007C82H   000116H   BYTE   UNIT     CODE           ?PR?_DISPLAY_TIMING_MODULE_PARAMETER?MODULE
007C83H   007D97H   000115H   BYTE   UNIT     CODE           ?PR?ALL_DIM_ON_OFF?MODULE
007D98H   007EA2H   00010BH   BYTE   UNIT     CODE           ?PR?_DIS_MODULE_SCENE_INFOR?TIME_SCENE
007EA3H   007FACH   00010AH   BYTE   UNIT     CODE           ?PR?_OPERAND_CTRL?TIME_SCENE
007FADH   0080B5H   000109H   BYTE   UNIT     CODE           ?PR?_MBH_EXEC?MB_HOST
0080B6H   0081BBH   000106H   BYTE   UNIT     CODE           ?PR?_RTC_GET_WEEK?I2C
0081BCH   0082BCH   000101H   BYTE   UNIT     CODE           ?PR?RTC_SET_TIME?I2C
0082BDH   0083BBH   0000FFH   BYTE   UNIT     CODE           ?PR?CLEAR_SELECT_MODULE_INFORMATION?MODULE
0083BCH   0084B5H   0000FAH   BYTE   UNIT     CODE           ?PR?I2C
0084B6H   008599H   0000E4H   BYTE   UNIT     CODE           ?PR?_DISPLAY_MODULE_INFORMATION?MODULE
00859AH   00867DH   0000E4H   BYTE   UNIT     CODE           ?PR?MBH_POLL?MB_HOST
00867EH   00875EH   0000E1H   BYTE   UNIT     CODE           ?PR?_DEAL_UART_DATA?UART
00875FH   00883FH   0000E1H   BYTE   UNIT     CODE           ?PR?TIMED_AUTO_SEND?TIME_SCENE
008840H   008913H   0000D4H   BYTE   UNIT     CODE           ?PR?_TIMING_MODULE_PARAMETER_WEEK_ENABLE_CHANNEL_SEND?MODU
                                                             -LE
008914H   0089E1H   0000CEH   BYTE   UNIT     CODE           ?PR?_SET_BOX_SELECT?MODULE
0089E2H   008AADH   0000CCH   BYTE   UNIT     CODE           ?PR?AUTO_ADD_MODULE?MODULE
008AAEH   008B76H   0000C9H   BYTE   UNIT     CODE           ?PR?_RELAY_ALL_CTRL?MODULE
008B77H   008C3DH   0000C7H   BYTE   UNIT     CODE           ?PR?_SCENE_INFOR_KEY_CTRL?SCENE
008C3EH   008D02H   0000C5H   BYTE   UNIT     CODE           ?PR?CLEAR_ALL_MODULE_INFORMATION?MODULE
008D03H   008DC6H   0000C4H   BYTE   UNIT     CODE           ?PR?_SCENE_NAME_KEY_CTRL?SCENE
008DC7H   008E87H   0000C1H   BYTE   UNIT     CODE           ?PR?_SCENE_NAME_CTRL_SEND?SCENE
008E88H   008F46H   0000BFH   BYTE   UNIT     CODE           ?PR?_DISPLAY_RELAY_INTERFACE?MODULE
008F47H   009005H   0000BFH   BYTE   UNIT     CODE           ?PR?_TIMING_MODULE_PARAMETER_KEY_CTRL?MODULE
LX51 LINKER/LOCATER V4.66.97.0                                                        09/27/2023  17:05:17  PAGE 5


009006H   0090C4H   0000BFH   BYTE   UNIT     CODE           ?PR?ALL_MODULE_ON_OFF?MODULE
0090C5H   009183H   0000BFH   BYTE   UNIT     CODE           ?PR?_MODULE_DIM_SCENE_SEND?SCENE
009184H   009242H   0000BFH   BYTE   UNIT     CODE           ?PR?_STRSTR?STRSTR
009243H   0092FEH   0000BCH   BYTE   UNIT     CODE           ?PR?INIT_BACK_LIGHT_PARAMETERS?MODULE
0092FFH   0093B3H   0000B5H   BYTE   UNIT     CODE           ?PR?_SELECT_EITHER_OR_SINGLE?MODULE
0093B4H   009466H   0000B3H   BYTE   UNIT     CODE           ?PR?_STRRPL?SYS
009467H   009518H   0000B2H   BYTE   UNIT     CODE           ?PR?CHECK_RTC_SET?I2C
009519H   0095C9H   0000B1H   BYTE   UNIT     CODE           ?PR?_TIMING_SCENE_SELECT_CTRL?TIME_SCENE
0095CAH   009679H   0000B0H   BYTE   UNIT     CODE           ?PR?_TIMING_MODULE_PARAMETER_TIME_SEND?MODULE
00967AH   009729H   0000B0H   BYTE   UNIT     CODE           ?PR?BATCH_SET_TIME_PARAMETERS?MODULE
00972AH   0097D9H   0000B0H   BYTE   UNIT     CODE           ?PR?_SCENE_DELETE_CTRL_SEND?SCENE
0097DAH   009889H   0000B0H   BYTE   UNIT     CODE           ?PR?_TIMING_SCENE_INFOR_CTRL?TIME_SCENE
00988AH   009937H   0000AEH   BYTE   UNIT     CODE           ?PR?_GET_TIMING_WEEK_ENABLE?TIME_SCENE
009938H   0099E4H   0000ADH   BYTE   UNIT     CODE           ?PR?MODULE_MODIFY?MODULE
0099E5H   009A90H   0000ACH   BYTE   UNIT     CODE           ?PR?READ_TIME?I2C
009A91H   009B39H   0000A9H   BYTE   UNIT     CODE           ?PR?_SET_TIMING_SET_INFOR?TIME_SCENE
009B3AH   009BDEH   0000A5H   BYTE   UNIT     CODE           ?PR?_DISPLAY_RELAY_TIMING_SCENE_INTERFACE?TIME_SCENE
009BDFH   009C81H   0000A3H   BYTE   UNIT     CODE           ?PR?_MODULE_SCENE_SELECT_CTRL?SCENE
009C82H   009D24H   0000A3H   BYTE   UNIT     CODE           ?PR?SCENE_TOUCH_RUN?SCENE
009D25H   009DC6H   0000A2H   BYTE   UNIT     CODE           ?C_C51STARTUP
009DC7H   009E68H   0000A2H   BYTE   UNIT     CODE           ?PR?_MODULE_RELAY_SCENE_SEND?SCENE
009E69H   009F08H   0000A0H   BYTE   UNIT     CODE           ?PR?_GET_TIMING_SET_INFOR?TIME_SCENE
009F09H   009F9FH   000097H   BYTE   UNIT     CODE           ?PR?_SCENE_INFOR_MODULE_CONFIM_KEY?TIME_SCENE
009FA0H   00A034H   000095H   BYTE   UNIT     CODE           ?PR?_CHANGE_PWD?MODULE
00A035H   00A0C9H   000095H   BYTE   UNIT     CODE           ?PR?MB_HOST
00A0CAH   00A15DH   000094H   BYTE   UNIT     CODE           ?PR?_RTC_GET_WEEK_1?I2C
00A15EH   00A1EDH   000090H   BYTE   UNIT     CODE           ?PR?_MODIFYING_MODULE_INFORMATION?MODULE
00A1EEH   00A27DH   000090H   BYTE   UNIT     CODE           ?PR?TIMING_MODULE_PARAMETER_BATCH_SEND?MODULE
00A27EH   00A30BH   00008EH   BYTE   UNIT     CODE           ?PR?INIT_RTC_1?I2C
00A30CH   00A398H   00008DH   BYTE   UNIT     CODE           ?PR?UART_FRAME_DEAL?UART
00A399H   00A425H   00008DH   BYTE   UNIT     CODE           ?PR?_MODULE_TIMING_SEND?TIME_SCENE
00A426H   00A4AEH   000089H   BYTE   UNIT     CODE           ?PR?_GET_DAYS_IN_MONTH?SYS
00A4AFH   00A537H   000089H   BYTE   UNIT     CODE           ?PR?RDTIME?I2C
00A538H   00A5C0H   000089H   BYTE   UNIT     CODE           ?PR?_MBH_SEND?MB_HOST
00A5C1H   00A645H   000085H   BYTE   UNIT     CODE           ?PR?_DISPLAY_RELAY_SCENE_INTERFACE?SCENE
00A646H   00A6C9H   000084H   BYTE   UNIT     CODE           ?PR?SELECT_BEEP_ENABLE?MODULE
00A6CAH   00A74DH   000084H   BYTE   UNIT     CODE           ?PR?MODULE_SCENE_SEND?SCENE
00A74EH   00A7CFH   000082H   BYTE   UNIT     CODE           ?PR?_SET_MODULE_INFORMATION?MODULE
00A7D0H   00A84FH   000080H   BYTE   UNIT     CODE           ?PR?_RTC_CONFIG?I2C
00A850H   00A8CEH   00007FH   BYTE   UNIT     CODE           ?PR?_WRITE_DGUSII_VP?T5LLIB
00A8CFH   00A94DH   00007FH   BYTE   UNIT     CODE           ?PR?SCENE_NAME_CLEAR_FLASH?SCENE
00A94EH   00A9CAH   00007DH   BYTE   UNIT     CODE           ?PR?READ_DGUS_TIME?MODULE
00A9CBH   00AA45H   00007BH   BYTE   UNIT     CODE           ?PR?INIT_BEEP_ENABLE?MODULE
00AA46H   00AABEH   000079H   BYTE   UNIT     CODE           ?PR?_SET_THE_RIGHT_NUMBER_OF_DAYS?TIME_SCENE
00AABFH   00AB35H   000077H   BYTE   UNIT     CODE           ?PR?_SHORT_COPY_XCH?MB_USER
00AB36H   00ABABH   000076H   BYTE   UNIT     CODE           ?PR?INIT_PWD_F?MODULE
00ABACH   00AC1EH   000073H   BYTE   UNIT     CODE           ?PR?FACTORY_DATA_RESET?MODULE
00AC1FH   00AC91H   000073H   BYTE   UNIT     CODE           ?PR?MBH_UARTTXISR?MB_HOST
00AC92H   00AD01H   000070H   BYTE   UNIT     CODE           ?PR?_ALL_ON_OFF_TIMING_SEND?TIME_SCENE
00AD02H   00AD70H   00006FH   BYTE   UNIT     CODE           ?PR?_TIMING_SCENE_DELETE?TIME_SCENE
00AD71H   00ADDEH   00006EH   BYTE   UNIT     CODE           ?PR?_DISPLAY_DIM_TIMING_SCENE_INTERFACE?TIME_SCENE
00ADDFH   00AE4AH   00006CH   BYTE   UNIT     CODE           ?PR?_POP_MENU_KEY_CTRL?SCENE
00AE4BH   00AEB5H   00006BH   BYTE   UNIT     CODE           ?PR?_RX8130_WRIT_BYTE?I2C
00AEB6H   00AF20H   00006BH   BYTE   UNIT     CODE           ?PR?_MBH_HOOK_REC03?MB_HOOK
00AF21H   00AF8BH   00006BH   BYTE   UNIT     CODE           ?PR?_SCENE_NAME_WRITE_DGUSII?SCENE
00AF8CH   00AFF3H   000068H   BYTE   UNIT     CODE           ?PR?_STRNCPY?STRNCPY
00AFF4H   00B05AH   000067H   BYTE   UNIT     CODE           ?PR?T5LLIB
00B05BH   00B0C0H   000066H   BYTE   UNIT     CODE           ?PR?_DISPLAY_WEEK_PARAMETER?MODULE
00B0C1H   00B126H   000066H   BYTE   UNIT     CODE           ?PR?_DISPLAY_SOLAR_PARAMETER?MODULE
00B127H   00B18BH   000065H   BYTE   UNIT     CODE           ?PR?_MB_PORT_TIMERINIT?MB_PORT
00B18CH   00B1EFH   000064H   BYTE   UNIT     CODE           ?PR?TIMING_SCENE_RUN?TIME_SCENE
00B1F0H   00B252H   000063H   BYTE   UNIT     CODE           ?PR?BACK_LIGHT_SET?MODULE
00B253H   00B2B5H   000063H   BYTE   UNIT     CODE           ?PR?NOR_FLASH
00B2B6H   00B318H   000063H   BYTE   UNIT     CODE           ?PR?_ALL_ON_OFF_SCENE_CONFIM_KEY?TIME_SCENE
00B319H   00B37AH   000062H   BYTE   UNIT     CODE           ?PR?_TIMING_SCENE_INFOR_DELETE?TIME_SCENE
LX51 LINKER/LOCATER V4.66.97.0                                                        09/27/2023  17:05:17  PAGE 6


00B37BH   00B3DCH   000062H   BYTE   UNIT     CODE           ?PR?_SPECIFIED_SCENE_CONFIM_KEY?TIME_SCENE
00B3DDH   00B43DH   000061H   BYTE   UNIT     CODE           ?PR?UART3_RISR?UART
00B43EH   00B49EH   000061H   BYTE   UNIT     CODE           ?PR?_STARUP_PAGE_PWD?MODULE
00B49FH   00B4FFH   000061H   BYTE   UNIT     CODE           ?PR?LOCK_SCREEN_ENABLE_CTRL?MODULE
00B500H   00B560H   000061H   BYTE   UNIT     CODE           ?PR?_SCENE_INFOR_CONFIRM_CTRL?SCENE
00B561H   00B5C1H   000061H   BYTE   UNIT     CODE           ?PR?_BACK_LIGHT_CTRL?SCENE
00B5C2H   00B621H   000060H   BYTE   UNIT     CODE           ?PR?MB_USER
00B622H   00B681H   000060H   BYTE   UNIT     CODE           ?PR?_NORFLASH_READ?NOR_FLASH
00B682H   00B6E0H   00005FH   BYTE   UNIT     CODE           ?PR?_T5L_FLASH?T5LLIB
00B6E1H   00B73FH   00005FH   BYTE   UNIT     CODE           ?PR?_DISPLAY_TIME_FRAME_PARAMETER?MODULE
00B740H   00B79EH   00005FH   BYTE   UNIT     CODE           ?PR?_SYS_LED_CONFIG?SCENE
00B79FH   00B7FDH   00005FH   BYTE   UNIT     CODE           ?PR?_MODULE_TIMING_SCENE_SELECT?TIME_SCENE
00B7FEH   00B85CH   00005FH   BYTE   UNIT     CODE           ?PR?TIMING_ALL_ON_OFF_CTRL?TIME_SCENE
00B85DH   00B8BAH   00005EH   BYTE   UNIT     CODE           ?PR?_DISPLAY_DIM_SCENE_INTERFACE?SCENE
00B8BBH   00B918H   00005EH   BYTE   UNIT     CODE           ?PR?_SCENE_EDIT_STA_CLEAR_INFOR?SCENE
00B919H   00B976H   00005EH   BYTE   UNIT     CODE           ?PR?_TIMING_SCENE_EDIT?TIME_SCENE
00B977H   00B9D3H   00005DH   BYTE   UNIT     CODE           ?PR?SAVE_BACK_LIGHT_PARAMETERS?MODULE
00B9D4H   00BA30H   00005DH   BYTE   UNIT     CODE           ?PR?_BEEP_CTRL?SCENE
00BA31H   00BA8CH   00005CH   BYTE   UNIT     CODE           ?PR?UART4_RISR?UART
00BA8DH   00BAE8H   00005CH   BYTE   UNIT     CODE           ?PR?SELECT_PASSWORD_ENABLE?MODULE
00BAE9H   00BB44H   00005CH   BYTE   UNIT     CODE           ?PR?_SCENE_INFOR_MODIFY_CTRL?SCENE
00BB45H   00BB9EH   00005AH   BYTE   UNIT     CODE           ?PR?_PRINTF_TAB?SYS
00BB9FH   00BBF8H   00005AH   BYTE   UNIT     CODE           ?PR?INIT_RTC?I2C
00BBF9H   00BC52H   00005AH   BYTE   UNIT     CODE           ?PR?UART2_RISR?UART
00BC53H   00BCAAH   000058H   BYTE   UNIT     CODE           ?PR?_PIC_SET?MODULE
00BCABH   00BD01H   000057H   BYTE   UNIT     CODE           ?PR?_UART_SEND_BYTE?UART
00BD02H   00BD57H   000056H   BYTE   UNIT     CODE           ?PR?_NORFLASH_WRITE?NOR_FLASH
00BD58H   00BDADH   000056H   BYTE   UNIT     CODE           ?PR?_TIMING_ALL_ON_OFF_SCENE_SET?TIME_SCENE
00BDAEH   00BE02H   000055H   BYTE   UNIT     CODE           ?PR?_GET_CHANNEL_SET?MODULE
00BE03H   00BE56H   000054H   BYTE   UNIT     CODE           ?PR?_DISPLAY_INTERFACE?MODULE
00BE57H   00BEA9H   000053H   BYTE   UNIT     CODE           ?PR?_CHECK_WHETHER_DATA_EXISTS?MODULE
00BEAAH   00BEFBH   000052H   BYTE   UNIT     CODE           ?PR?_READ_DGUSII_VP?T5LLIB
00BEFCH   00BF4DH   000052H   BYTE   UNIT     CODE           ?PR?_DISPLAY_DIM_INTERFACE?MODULE
00BF4EH   00BF9EH   000051H   BYTE   UNIT     CODE           ?PR?_TIMING_MODULE_PARAMETER_SETTINGS?MODULE
00BF9FH   00BFEEH   000050H   BYTE   UNIT     CODE           ?PR?_CRC16TABLE?CRC16
00BFEFH   00C03EH   000050H   BYTE   UNIT     CODE           ?PR?_MB_CRC16?MB_CRC
00C03FH   00C08DH   00004FH   BYTE   UNIT     CODE           ?PR?UART5_RISR?UART
00C08EH   00C0DBH   00004EH   BYTE   UNIT     CODE           ?PR?_SCENE_NAME_DELETE_FLASH?SCENE
00C0DCH   00C128H   00004DH   BYTE   UNIT     CODE           ?PR?_MODTIFY_MB_INFOM?MB_USER
00C129H   00C174H   00004CH   BYTE   UNIT     CODE           ?PR?_DISPLAY_ALL_ON_OFF_INTERFACE?TIME_SCENE
00C175H   00C1BFH   00004BH   BYTE   UNIT     CODE           ?PR?_CLEAR_KEY_VALUE?MODULE
00C1C0H   00C20AH   00004BH   BYTE   UNIT     CODE           ?PR?MBH_UARTRXISR?MB_HOST
00C20BH   00C255H   00004BH   BYTE   UNIT     CODE           ?PR?CLEAR_TIMING_SCENE_VAR?TIME_SCENE
00C256H   00C2A0H   00004BH   BYTE   UNIT     CODE           ?PR?_DISPLAY_SCENE_TIME_INTERFACE?TIME_SCENE
00C2A1H   00C2EAH   00004AH   BYTE   UNIT     CODE           ?PR?_FIND_INDEX?MODULE
00C2EBH   00C334H   00004AH   BYTE   UNIT     CODE           ?PR?SET_CHANNEL_NB?MODULE
00C335H   00C37EH   00004AH   BYTE   UNIT     CODE           ?PR?RETURN_PAGE?MODULE
00C37FH   00C3C6H   000048H   BYTE   UNIT     CODE           ?PR?SELECT_EITHER_OR_ALL?MODULE
00C3C7H   00C40EH   000048H   BYTE   UNIT     CODE           ?PR?_RUN_TIMING_MODULE_PARAMETER_SET?MODULE
00C40FH   00C456H   000048H   BYTE   UNIT     CODE           ?PR?_MODBUS_SEND_DATA?MB_USER
00C457H   00C49EH   000048H   BYTE   UNIT     CODE           ?PR?_TIMING_SCENE_INFOR_CLEAR?TIME_SCENE
00C49FH   00C4E3H   000045H   BYTE   UNIT     CODE           ?PR?_DISPLAY_SCENE_INTERFACE?SCENE
00C4E4H   00C527H   000044H   BYTE   UNIT     CODE           ?PR?_I2CBW?I2C
00C528H   00C56AH   000043H   BYTE   UNIT     CODE           ?PR?_DIM_REFESH?MODULE
00C56BH   00C5ADH   000043H   BYTE   UNIT     CODE           ?PR?_TIMING_SCENE_CLEAR?TIME_SCENE
00C5AEH   00C5EFH   000042H   BYTE   UNIT     CODE           ?PR?BLACK_SCREEN_SWITCHES_TO_HOME_PAGE?MODULE
00C5F0H   00C631H   000042H   BYTE   UNIT     CODE           ?PR?_SCENE_NAME_DELETE?SCENE
00C632H   00C673H   000042H   BYTE   UNIT     CODE           ?PR?_SCENE_TIMING_SEND?TIME_SCENE
00C674H   00C6B3H   000040H   BYTE   UNIT     CODE           ?PR?_SCENE_INFOR_DELETE_FLASH?SCENE
00C6B4H   00C6F2H   00003FH   BYTE   UNIT     CODE           ?PR?_MB_DATA_INIT?MB_USER
00C6F3H   00C730H   00003EH   BYTE   UNIT     CODE           ?PR?_TIMING_SPECIFIED_SCENE_SET?TIME_SCENE
00C731H   00C76CH   00003CH   BYTE   UNIT     CODE           ?PR?SYS_CPU_INIT?SYS
00C76DH   00C7A8H   00003CH   BYTE   UNIT     CODE           ?PR?_READ_DGUS?SYS
00C7A9H   00C7E4H   00003CH   BYTE   UNIT     CODE           ?PR?_WRITE_DGUS?SYS
00C7E5H   00C820H   00003CH   BYTE   UNIT     CODE           ?PR?_RELAY_INTERFACE_TRIGGER?MODULE
LX51 LINKER/LOCATER V4.66.97.0                                                        09/27/2023  17:05:17  PAGE 7


00C821H   00C85AH   00003AH   BYTE   UNIT     CODE           ?PR?_GET_BOX_SELECT_NUMBER?MODULE
00C85BH   00C893H   000039H   BYTE   UNIT     CODE           ?PR?_ADD_ARR_DATA?SYS
00C894H   00C8CCH   000039H   BYTE   UNIT     CODE           ?PR?GET_BLANK_SCENE_NAME_INDEX?SCENE
00C8CDH   00C904H   000038H   BYTE   UNIT     CODE           ?PR?_MODULE_TIMING_SCENE_SELECT_CTRL?TIME_SCENE
00C905H   00C93BH   000037H   BYTE   UNIT     CODE           ?PR?_UART2_INIT?UART
00C93CH   00C972H   000037H   BYTE   UNIT     CODE           ?PR?_PACK_DATA_SEND?MB_USER
00C973H   00C9A8H   000036H   BYTE   UNIT     CODE           ?PR?_CLEAR_ALL_MODULE_VAR_EN?SCENE
00C9A9H   00C9DDH   000035H   BYTE   UNIT     CODE           ?PR?_SCENE_NAME_CLEAR?SCENE
00C9DEH   00CA12H   000035H   BYTE   UNIT     CODE           ?PR?GET_BLANK_TIMING_SCENE_INFOR_INDEX?TIME_SCENE
00CA13H   00CA47H   000035H   BYTE   UNIT     CODE           ?PR?_TIMING_MODULE_SCENE_SET?TIME_SCENE
00CA48H   00CA7BH   000034H   BYTE   UNIT     CODE           ?PR?MAIN
00CA7CH   00CAAFH   000034H   BYTE   UNIT     CODE           ?PR?_WAIT_OK?T5LLIB
00CAB0H   00CAE2H   000033H   BYTE   UNIT     CODE           ?PR?_RELAY_REFESH?MODULE
00CAE3H   00CB15H   000033H   BYTE   UNIT     CODE           ?PR?MBH_TIMER3T5ISR?MB_HOST
00CB16H   00CB47H   000032H   BYTE   UNIT     CODE           ?PR?CLOCK?I2C
00CB48H   00CB76H   00002FH   BYTE   UNIT     CODE           ?PR?_CHECK_OR_NOT_FRAME?MODULE
00CB77H   00CBA4H   00002EH   BYTE   UNIT     CODE           ?PR?SYS
00CBA5H   00CBD2H   00002EH   BYTE   UNIT     CODE           ?PR?_SCENE_INFOR_CANCEL_CTRL?SCENE
00CBD3H   00CC00H   00002EH   BYTE   UNIT     CODE           ?PR?SCENE_MODIFY?SCENE
00CC01H   00CC2DH   00002DH   BYTE   UNIT     CODE           ?PR?RX8130_READ_BYTE?I2C
00CC2EH   00CC59H   00002CH   BYTE   UNIT     CODE           ?PR?MODULE_TOUCH_CTRL?MODULE
00CC5AH   00CC85H   00002CH   BYTE   UNIT     CODE           ?PR?_SCENE_NAME_ADD?SCENE
00CC86H   00CCAFH   00002AH   BYTE   UNIT     CODE           ?PR?AUTOMATICALLY_RETRIEVE_CMD?MODULE
00CCB0H   00CCD9H   00002AH   BYTE   UNIT     CODE           ?PR?_CLEAR_ALL_TIMING_SCENE_CONTENT?TIME_SCENE
00CCDAH   00CD02H   000029H   BYTE   UNIT     CODE           ?PR?_FIND_NUB_INDEX?SYS
00CD03H   00CD2BH   000029H   BYTE   UNIT     CODE           ?PR?INIT_FLASH_PARAMETERS?MODULE
00CD2CH   00CD53H   000028H   BYTE   UNIT     CODE           ?PR?_DELAYUS?I2C
00CD54H   00CD7AH   000027H   BYTE   UNIT     CODE           ?PR?IF_ALL_SCENE_NAME_BLANK?SCENE
00CD7BH   00CDA1H   000027H   BYTE   UNIT     CODE           ?PR?_MODULE_SCENE_SELECT?SCENE
00CDA2H   00CDC7H   000026H   BYTE   UNIT     CODE           ?PR?I2CBR?I2C
00CDC8H   00CDEDH   000026H   BYTE   UNIT     CODE           ?PR?CLEAR_BATCH_SET_VAR?MODULE
00CDEEH   00CE12H   000025H   BYTE   UNIT     CODE           ?PR?_SCENE_NAME_READ_FLASH?SCENE
00CE13H   00CE36H   000024H   BYTE   UNIT     CODE           ?PR?_CHECK_WHETHER_THE_PASSWORDS_ARE_CONSISTENT?MODULE
00CE37H   00CE5AH   000024H   BYTE   UNIT     CODE           ?PR?_SCENE_INFOR_SAVE_FLASH?SCENE
00CE5BH   00CE7EH   000024H   BYTE   UNIT     CODE           ?PR?_SCENE_INFOR_CLEAR_CTRL?SCENE
00CE7FH   00CEA1H   000023H   BYTE   UNIT     CODE           ?PR?RX8130_CACK?I2C
00CEA2H   00CEC4H   000023H   BYTE   UNIT     CODE           ?PR?CACK?I2C
00CEC5H   00CEE7H   000023H   BYTE   UNIT     CODE           ?PR?_PRINTF_TEMP_TIMING_CONTENT?TIME_SCENE
00CEE8H   00CF0AH   000023H   BYTE   UNIT     CODE           ?PR?SET_TIMING_SCENE_NAME_SELECT_SEQUENCE_NUMBER?TIME_SCEN
                                                             -E
00CF0BH   00CF2CH   000022H   BYTE   UNIT     CODE           ?PR?_DELAY_US?MODULE
00CF2DH   00CF4DH   000021H   BYTE   UNIT     CODE           ?PR?RX8130_STOP?I2C
00CF4EH   00CF6EH   000021H   BYTE   UNIT     CODE           ?PR?_UART4_INIT?UART
00CF6FH   00CF8FH   000021H   BYTE   UNIT     CODE           ?PR?_UART5_INIT?UART
00CF90H   00CFB0H   000021H   BYTE   UNIT     CODE           ?PR?UART_INIT?UART
00CFB1H   00CFD1H   000021H   BYTE   UNIT     CODE           ?PR?_IF_SCENE_NAME_EXISTS?SCENE
00CFD2H   00CFF1H   000020H   BYTE   UNIT     CODE           ?PR?I2CSTOP?I2C
00CFF2H   00D011H   000020H   BYTE   UNIT     CODE           ?PR?_MBH_INIT?MB_HOST
00D012H   00D031H   000020H   BYTE   UNIT     CODE           ?PR?_SET_TIMING_DATA_ENABLE?TIME_SCENE
00D032H   00D050H   00001FH   BYTE   UNIT     CODE           ?PR?_DIM_READ?MODULE
00D051H   00D06FH   00001FH   BYTE   UNIT     CODE           ?PR?SET_SCENE_INFOR_PAGE?SCENE
00D070H   00D08DH   00001EH   BYTE   UNIT     CODE           ?PR?RIGHT_NUMBER_OF_DAYS_CTRL?TIME_SCENE
00D08EH   00D0A9H   00001CH   BYTE   UNIT     CODE           ?PR?CLEAR_TOUCH_STA?MODULE
00D0AAH   00D0C5H   00001CH   BYTE   UNIT     CODE           ?PR?IF_ALL_SCENE_INFOR_BLANK?SCENE
00D0C6H   00D0E1H   00001CH   BYTE   UNIT     CODE           ?PR?SET_SCENE_INFOR_SELECT_SEQUENCE_NUMBER?SCENE
00D0E2H   00D0FDH   00001CH   BYTE   UNIT     CODE           ?PR?SET_SCENE_NAME_SELECT_SEQUENCE_NUMBER?SCENE
00D0FEH   00D118H   00001BH   BYTE   UNIT     CODE           ?PR?_SET_MASTER_SEND_HR?MB_USER
00D119H   00D132H   00001AH   BYTE   UNIT     CODE           ?PR?I2CSTART?I2C
00D133H   00D14CH   00001AH   BYTE   UNIT     CODE           ?PR?CLOCK_1?I2C
00D14DH   00D166H   00001AH   BYTE   UNIT     CODE           ?PR?CLEAR_ALL_SCENE_INFOR?SCENE
00D167H   00D180H   00001AH   BYTE   UNIT     CODE           ?PR?CLEAR_SCENE_LIST_NAME?SCENE
00D181H   00D19AH   00001AH   BYTE   UNIT     CODE           ?PR?_TIMING_SCENE_INFOR_SAVE_FLASH?TIME_SCENE
00D19BH   00D1B3H   000019H   BYTE   UNIT     CODE           ?PR?_MODULE_TOUCH?MODULE
00D1B4H   00D1CBH   000018H   BYTE   UNIT     CODE           ?PR?_RELAY_CTRL?MODULE
00D1CCH   00D1E3H   000018H   BYTE   UNIT     CODE           ?PR?_DIM_CTRL?MODULE
LX51 LINKER/LOCATER V4.66.97.0                                                        09/27/2023  17:05:17  PAGE 8


00D1E4H   00D1FBH   000018H   BYTE   UNIT     CODE           ?PR?_SCENE_NAME_SAVE_FLASH?SCENE
00D1FCH   00D213H   000018H   BYTE   UNIT     CODE           ?PR?_SCENE_NAME_SAVE?SCENE
00D214H   00D22AH   000017H   BYTE   UNIT     CODE           ?PR?_DELETE_ARR_DATA?SYS
00D22BH   00D241H   000017H   BYTE   UNIT     CODE           ?PR?DELAYUS?I2C
00D242H   00D258H   000017H   BYTE   UNIT     CODE           ?PR?MBH_RESEND_TIME_RUN?MB_HOOK
00D259H   00D26EH   000016H   BYTE   UNIT     CODE           ?PR?_TIMING_SCENE_ADD?TIME_SCENE
00D26FH   00D283H   000015H   BYTE   UNIT     CODE           ?PR?_DELETE_SCENE_LIST_NAME?SCENE
00D284H   00D298H   000015H   BYTE   UNIT     CODE           ?PR?_STRLEN?STRLEN
00D299H   00D2ACH   000014H   BYTE   UNIT     CODE           ?PR?RX8130_START?I2C
00D2ADH   00D2C0H   000014H   BYTE   UNIT     CODE           ?PR?_MBH_HOOK_TIMESERR?MB_HOOK
00D2C1H   00D2D4H   000014H   BYTE   UNIT     CODE           ?PR?GET_BLANK_SCENE_INFOR_INDEX?SCENE
00D2D5H   00D2E7H   000013H   BYTE   UNIT     CODE           ?PR?_CHECK_CONSTANT?SYS
00D2E8H   00D2F9H   000012H   BYTE   UNIT     CODE           ?PR?_RELAY_READ?MODULE
00D2FAH   00D30BH   000012H   BYTE   UNIT     CODE           ?PR?_READ_DEVICE_INFORMATION?MODULE
00D30CH   00D31AH   00000FH   BYTE   UNIT     CODE           ?PR?MACK?I2C
00D31BH   00D329H   00000FH   BYTE   UNIT     CODE           ?PR?CLEAR_TEMP_SCENC_INFOR?SCENE
00D32AH   00D337H   00000EH   BYTE   UNIT     CODE           ?PR?_SET_TIMING_WEEK_ENABLE?TIME_SCENE
00D338H   00D344H   00000DH   BYTE   UNIT     CODE           ?PR?RX8130_MACK?I2C
00D345H   00D351H   00000DH   BYTE   UNIT     CODE           ?PR?MNAK?I2C
00D352H   00D35EH   00000DH   BYTE   UNIT     CODE           ?PR?_READ_SYS_TIME?MODULE
00D35FH   00D36BH   00000DH   BYTE   UNIT     CODE           ?PR?_COPY_TO_TEMP_TIMING_CONTENT?TIME_SCENE
00D36CH   00D378H   00000DH   BYTE   UNIT     CODE           ?PR?SCENE_INFOR_CANCLE_KEY?TIME_SCENE
00D379H   00D384H   00000CH   BYTE   UNIT     CODE           ?PR?_PUTCHAR?UART
00D385H   00D390H   00000CH   BYTE   UNIT     CODE           ?PR?MB_PORT
00D391H   00D39BH   00000BH   BYTE   UNIT     CODE           ?PR?RX8130_MNAK?I2C
00D39CH   00D3A6H   00000BH   BYTE   UNIT     CODE           ?PR?_MB_PORT_PUTCHAR?MB_PORT
00D3A7H   00D3B1H   00000BH   BYTE   UNIT     CODE           ?PR?_PRINTF_TEMP_SCENC_INFOR?SCENE
00D3B2H   00D3BBH   00000AH   BYTE   UNIT     CODE           ?PR?RETURN_TO_PREVIOUS_PAGE?MODULE
00D3BCH   00D3C4H   000009H   BYTE   UNIT     CODE           ?PR?_BCD?I2C
00D3C5H   00D3CDH   000009H   BYTE   UNIT     CODE           ?PR?_MBH_HOOK_REC01?MB_HOOK
00D3CEH   00D3D6H   000009H   BYTE   UNIT     CODE           ?PR?_MBH_HOOK_REC02?MB_HOOK
00D3D7H   00D3DFH   000009H   BYTE   UNIT     CODE           ?PR?_MBH_HOOK_REC04?MB_HOOK
00D3E0H   00D3E8H   000009H   BYTE   UNIT     CODE           ?PR?_MBH_HOOK_REC05?MB_HOOK
00D3E9H   00D3F1H   000009H   BYTE   UNIT     CODE           ?PR?_MBH_HOOK_REC06?MB_HOOK
00D3F2H   00D3FAH   000009H   BYTE   UNIT     CODE           ?PR?_MBH_HOOK_REC15?MB_HOOK
00D3FBH   00D403H   000009H   BYTE   UNIT     CODE           ?PR?_MBH_HOOK_REC16?MB_HOOK
00D404H   00D40CH   000009H   BYTE   UNIT     CODE           ?PR?_MB_PORT_UARTENABLE?MB_PORT
00D40DH   00D415H   000009H   BYTE   UNIT     CODE           ?PR?GET_SCENE_INFOR_SELECT_SEQUENCE_NUMBER?SCENE
00D416H   00D41EH   000009H   BYTE   UNIT     CODE           ?PR?GET_SCENE_NAME_SELECT_SEQUENCE_NUMBER?SCENE
00D41FH   00D427H   000009H   BYTE   UNIT     CODE           ?PR?_CLEAR_SINGLE_TIMING_SCENE_CONTENT?TIME_SCENE
00D428H   00D430H   000009H   BYTE   UNIT     CODE           ?PR?GET_TIMING_SCENE_NAME_SELECT_SEQUENCE_NUMBER?TIME_SCEN
                                                             -E
00D431H   00D438H   000008H   BYTE   UNIT     CODE           ?PR?_GET_KEY_VALUE?MODULE
00D439H   00D43FH   000007H   BYTE   UNIT     CODE           ?PR?_CLEAR_PWD?MODULE
00D440H   00D446H   000007H   BYTE   UNIT     CODE           ?PR?GET_TIMING_DATA_ENABLE?TIME_SCENE
00D447H   00D44CH   000006H   BYTE   UNIT     CODE           ?PR?UART4_TISR?UART
00D44DH   00D452H   000006H   BYTE   UNIT     CODE           ?PR?UART5_TISR?UART
00D453H   00D458H   000006H   BYTE   UNIT     CODE           ?PR?MBH_GETSTATE?MB_HOST
00D459H   00D45EH   000006H   BYTE   UNIT     CODE           ?PR?_MB_PORT_UARTINIT?MB_PORT
00D45FH   00D464H   000006H   BYTE   UNIT     CODE           ?PR?GET_MODULE_SCENE_EDIT_STA?SCENE
00D465H   00D46AH   000006H   BYTE   UNIT     CODE           ?PR?_CLEAR_SINGLE_MODULE_VAR_EN?SCENE
00D46BH   00D46DH   000003H   BYTE   UNIT     CODE           ?PR?MB_SET_SEND_STATE?MB_PORT
00D46EH   00DEE1H   000A74H   BYTE   UNIT     CONST          ?CO?TIME_SCENE
00DEE2H   00E51AH   000639H   BYTE   UNIT     CONST          ?CO?SCENE
00E51BH   00E9C0H   0004A6H   BYTE   UNIT     CONST          ?CO?MODULE
00E9C1H   00EB86H   0001C6H   BYTE   UNIT     CONST          ?CO?UART
00EB87H   00ECFCH   000176H   BYTE   UNIT     CONST          ?CO?MAIN
00ECFDH   00ED64H   000068H   BYTE   UNIT     CONST          ?CO?MB_HOST
00ED65H   00ED91H   00002DH   BYTE   UNIT     CONST          ?CO?SYS
00ED92H   00EDBDH   00002CH   BYTE   UNIT     CONST          ?CO?MB_USER
00EDBEH   00EDCCH   00000FH   BYTE   UNIT     CONST          ?CO?I2C

* * * * * * * * * * *  X D A T A   M E M O R Y  * * * * * * * * * * * * *
008000H   00940FH   001410H   BYTE   UNIT     XDATA          ?XD?UART
009410H   00A758H   001349H   BYTE   UNIT     XDATA          ?XD?TIME_SCENE
LX51 LINKER/LOCATER V4.66.97.0                                                        09/27/2023  17:05:17  PAGE 9


00A759H   00AF9DH   000845H   BYTE   UNIT     XDATA          ?XD?MODULE
00AF9EH   00B7B9H   00081CH   BYTE   UNIT     XDATA          ?XD?MB_USER
00B7BAH   00BFCAH   000811H   BYTE   UNIT     XDATA          ?XD?MB_HOST
00BFCBH   00C6F0H   000726H   BYTE   UNIT     XDATA          ?XD?SCENE
00C6F1H   00CBACH   0004BCH   BYTE   UNIT     XDATA          _XDATA_GROUP_
00CBADH   00CDACH   000200H   BYTE   UNIT     XDATA          ?XD?CRC16
00CDADH   00CFACH   000200H   BYTE   UNIT     XDATA          ?XD?MB_CRC
00CFADH   00CFBDH   000011H   BYTE   UNIT     XDATA          ?XD?SYS
00CFBEH   00CFC5H   000008H   BYTE   UNIT     XDATA          ?XD?NOR_FLASH
00CFC6H   00CFC7H   000002H   BYTE   UNIT     XDATA          ?XD?MAIN
00CFC8H   00CFC8H   000001H   BYTE   UNIT     XDATA          ?XD?I2C

* * * * * * * * *   R E M O V E D     S E G M E N T S   * * * * * * * *
   *DEL*:           000037H   BYTE   UNIT     CODE           ?PR?_NUM_STRCHR?UART
   *DEL*:           000006H   BYTE   UNIT     XDATA          ?XD?_NUM_STRCHR?UART
   *DEL*:           000123H   BYTE   UNIT     CODE           ?PR?_BASE64_DECODE?UART
   *DEL*:           000012H   BYTE   UNIT     XDATA          ?XD?_BASE64_DECODE?UART
   *DEL*:           00012EH   BYTE   UNIT     CODE           ?PR?_UART_DATA_SEND?UART
   *DEL*:           000009H   BYTE   UNIT     XDATA          ?XD?_UART_DATA_SEND?UART
   *DEL*:           000000H.2 BIT    UNIT     BIT            ?BI?_UART_DATA_SEND?UART
   *DEL*:           000109H   BYTE   UNIT     CODE           ?PR?SW_DATA_SEND?UART
   *DEL*:           00006BH   BYTE   UNIT     XDATA          ?XD?SW_DATA_SEND?UART
   *DEL*:           000007H   BYTE   UNIT     CODE           ?PR?_USER_UART_SEND?UART
   *DEL*:           000025H   BYTE   UNIT     CODE           ?PR?_UART5_SENDSTRING?UART
   *DEL*:           000003H   BYTE   UNIT     XDATA          ?XD?_UART5_SENDSTRING?UART
   *DEL*:           0000DBH   BYTE   UNIT     CODE           ?PR?_SET_SELECTED_SEQUENCE_NUMBER?MODULE
   *DEL*:           000008H   BYTE   UNIT     XDATA          ?XD?_SET_SELECTED_SEQUENCE_NUMBER?MODULE
   *DEL*:           00003EH   BYTE   UNIT     CODE           ?PR?_GET_SELECTED_SEQUENCE_NUMBER?MODULE
   *DEL*:           000004H   BYTE   UNIT     XDATA          ?XD?_GET_SELECTED_SEQUENCE_NUMBER?MODULE
   *DEL*:           000017H   BYTE   UNIT     CODE           ?PR?_READ_TIMING_MODULE_PARAMETER?MODULE
   *DEL*:           000003H   BYTE   UNIT     XDATA          ?XD?_READ_TIMING_MODULE_PARAMETER?MODULE
   *DEL*:           000028H   BYTE   UNIT     CODE           ?PR?_CLEAR_LED_STA?MODULE
   *DEL*:           000003H   BYTE   UNIT     XDATA          ?XD?_CLEAR_LED_STA?MODULE
   *DEL*:           000006H   BYTE   UNIT     CODE           ?PR?CLEAR_MBH_REC_ONE_FRAME_STA?MB_HOST
   *DEL*:           000021H   BYTE   UNIT     CODE           ?PR?GET_MBH_REC_ONE_FRAME_STA?MB_HOST
   *DEL*:           000001H   BYTE   UNIT     CODE           ?PR?MB_PORT_TIMERDISABLE?MB_PORT
   *DEL*:           000014H   BYTE   UNIT     CODE           ?PR?GET_MODULE_SCENE_MODULE_SELECT?SCENE
   *DEL*:           00002EH   BYTE   UNIT     CODE           ?PR?_SCENE_INIT?SCENE
   *DEL*:           000006H   BYTE   UNIT     XDATA          ?XD?_SCENE_INIT?SCENE
   *DEL*:           00003AH   BYTE   UNIT     CODE           ?PR?_SCENE_EDIT_CLEAR_INFOR?SCENE
   *DEL*:           000003H   BYTE   UNIT     XDATA          ?XD?_SCENE_EDIT_CLEAR_INFOR?SCENE
   *DEL*:           000022H   BYTE   UNIT     CODE           ?PR?_SCENE_INFOR_CLEAR_FLASH?SCENE
   *DEL*:           000003H   BYTE   UNIT     XDATA          ?XD?_SCENE_INFOR_CLEAR_FLASH?SCENE
   *DEL*:           000001H   BYTE   UNIT     CODE           ?PR?TIME_SCENE_INIT?TIME_SCENE
   *DEL*:           00006DH   BYTE   UNIT     CODE           ?PR?_PRINTF_TIMING_CONTENT?TIME_SCENE
   *DEL*:           000002H   BYTE   UNIT     XDATA          ?XD?_PRINTF_TIMING_CONTENT?TIME_SCENE
   *DEL*:           000050H   BYTE   UNIT     CODE           ?PR?_TIMING_MODULE_RELAY_SCENE_SEND?TIME_SCENE
   *DEL*:           000003H   BYTE   UNIT     XDATA          ?XD?_TIMING_MODULE_RELAY_SCENE_SEND?TIME_SCENE
   *DEL*:           000084H   BYTE   UNIT     CODE           ?PR?_TIMING_MODULE_DIM_SCENE_SEND?TIME_SCENE
   *DEL*:           000003H   BYTE   UNIT     XDATA          ?XD?_TIMING_MODULE_DIM_SCENE_SEND?TIME_SCENE
   *DEL*:           00001CH   BYTE   UNIT     CODE           ?PR?_STRCHR?STRCHR



OVERLAY MAP OF MODULE:   .\OBJ\T5L51 (?C_STARTUP)


FUNCTION/MODULE                                BIT_GROUP   DATA_GROUP   XDATA_GROUP
--> CALLED FUNCTION/MODULE                    START  STOP  START  STOP  START  STOP
===================================================================================
?C_C51STARTUP                                 ----- -----  ----- -----  ----- -----
  +--> MAIN/MAIN
  +--> ?C_INITSEG

MAIN/MAIN                                     ----- -----  ----- -----  C6F1H C852H
LX51 LINKER/LOCATER V4.66.97.0                                                        09/27/2023  17:05:17  PAGE 10


  +--> MAIN
  +--> SYS_CPU_INIT/SYS
  +--> UART_INIT/UART
  +--> _MBH_INIT/MB_HOST
  +--> _MB_DATA_INIT/MB_USER
  +--> RDTIME/I2C
  +--> INIT_FLASH_PARAMETERS/MODULE
  +--> _NORFLASH_READ/NOR_FLASH
  +--> _WRITE_DGUSII_VP/T5LLIB
  +--> _DISPLAY_MODULE_INFORMATION/MODULE
  +--> _ADD_ARR_DATA/SYS
  +--> _PRINTF_TAB/SYS
  +--> _DISPLAY_TIMING_SCENE_INFOR/TIME_SCENE
  +--> _WRITE_DGUS/SYS
  +--> PRINTF/PRINTF
  +--> CLOCK/I2C
  +--> UART_FRAME_DEAL/UART
  +--> READ_DGUS_TIME/MODULE
  +--> TIMING_AUTO_DETECT/TIME_SCENE
  +--> MODULE_MODIFY/MODULE
  +--> _RELAY_CTRL/MODULE
  +--> _TIMING_MODULE_PARAMETER_SETTINGS/MODULE
  +--> ALL_MODULE_ON_OFF/MODULE
  +--> ALL_DIM_ON_OFF/MODULE
  +--> SCENE_MODIFY/SCENE
  +--> SCENE_TOUCH_RUN/SCENE
  +--> SELECT_PASSWORD_ENABLE/MODULE
  +--> LOCK_SCREEN_ENABLE_CTRL/MODULE
  +--> RIGHT_NUMBER_OF_DAYS_CTRL/TIME_SCENE
  +--> _DIM_CTRL/MODULE
  +--> MODULE_SCENE_SEND/SCENE
  +--> _SCENE_DELETE_CTRL_SEND/SCENE
  +--> _SCENE_NAME_CTRL_SEND/SCENE
  +--> MODULE_TOUCH_CTRL/MODULE
  +--> MBH_UARTTXISR/MB_HOST
  +--> MBH_POLL/MB_HOST
  +--> FACTORY_DATA_RESET/MODULE
  +--> SET_SCENE_INFOR_SELECT_SEQUENCE_NUMBER/SCENE
  +--> SET_SCENE_NAME_SELECT_SEQUENCE_NUMBER/SCENE
  +--> SET_TIMING_SCENE_NAME_SELECT_SEQUENCE_NUMBER/TIME_SCENE
  +--> TIMING_SCENE_RUN/TIME_SCENE
  +--> TIMED_AUTO_SEND/TIME_SCENE
  +--> TIMING_MODULE_PARAMETER_BATCH_SEND/MODULE
  +--> AUTOMATICALLY_RETRIEVE/MODULE
  +--> AUTO_ADD_MODULE/MODULE

MAIN                                          ----- -----  ----- -----  ----- -----

SYS_CPU_INIT/SYS                              ----- -----  ----- -----  ----- -----

UART_INIT/UART                                ----- -----  ----- -----  ----- -----
  +--> _UART2_INIT/UART
  +--> _UART4_INIT/UART
  +--> _UART5_INIT/UART

_UART2_INIT/UART                              ----- -----  ----- -----  C853H C856H

_UART4_INIT/UART                              ----- -----  ----- -----  C853H C856H
  +--> UART

UART                                          ----- -----  ----- -----  ----- -----
  +--> _UART_SEND_BYTE/UART

_UART_SEND_BYTE/UART                          ----- -----  ----- -----  ----- -----

LX51 LINKER/LOCATER V4.66.97.0                                                        09/27/2023  17:05:17  PAGE 11


_UART5_INIT/UART                              ----- -----  ----- -----  C853H C856H
  +--> UART

_MBH_INIT/MB_HOST                             ----- -----  ----- -----  C853H C857H
  +--> _MB_PORT_UARTINIT/MB_PORT
  +--> _MB_PORT_TIMERINIT/MB_PORT

_MB_PORT_UARTINIT/MB_PORT                     ----- -----  ----- -----  C858H C85CH

_MB_PORT_TIMERINIT/MB_PORT                    ----- -----  ----- -----  C858H C863H
  +--> MB_PORT

MB_PORT                                       ----- -----  ----- -----  ----- -----

_MB_DATA_INIT/MB_USER                         ----- -----  ----- -----  C853H C855H
  +--> MB_USER

MB_USER                                       ----- -----  ----- -----  ----- -----

RDTIME/I2C                                    ----- -----  ----- -----  C853H C85CH
  +--> _I2CBW/I2C
  +--> I2C
  +--> I2CBR/I2C
  +--> MACK/I2C
  +--> _WRITE_DGUSII_VP/T5LLIB

_I2CBW/I2C                                    ----- -----  ----- -----  ----- -----
  +--> I2CSTART/I2C
  +--> I2CSTOP/I2C
  +--> SDA_OUT/I2C
  +--> I2C
  +--> _DELAYUS/I2C
  +--> CACK/I2C

I2CSTART/I2C                                  ----- -----  ----- -----  ----- -----
  +--> SDA_OUT/I2C
  +--> _DELAYUS/I2C

SDA_OUT/I2C                                   ----- -----  ----- -----  ----- -----

_DELAYUS/I2C                                  ----- -----  ----- -----  ----- -----

I2CSTOP/I2C                                   ----- -----  ----- -----  ----- -----
  +--> _I2CBW/I2C
  +--> SDA_OUT/I2C
  +--> _DELAYUS/I2C
  +--> SDA_IN/I2C

SDA_IN/I2C                                    ----- -----  ----- -----  ----- -----

I2C                                           ----- -----  ----- -----  ----- -----
  +--> _I2CBW/I2C
  +--> I2CSTART/I2C
  +--> I2CSTOP/I2C
  +--> MNAK/I2C
  +--> _DELAYUS/I2C

MNAK/I2C                                      ----- -----  ----- -----  ----- -----
  +--> SDA_OUT/I2C
  +--> _DELAYUS/I2C

CACK/I2C                                      ----- -----  ----- -----  ----- -----
  +--> SDA_IN/I2C
  +--> _DELAYUS/I2C
  +--> I2C
LX51 LINKER/LOCATER V4.66.97.0                                                        09/27/2023  17:05:17  PAGE 12


  +--> SDA_OUT/I2C

I2CBR/I2C                                     ----- -----  ----- -----  ----- -----
  +--> SDA_IN/I2C
  +--> I2C
  +--> _DELAYUS/I2C

MACK/I2C                                      ----- -----  ----- -----  ----- -----
  +--> SDA_OUT/I2C
  +--> _DELAYUS/I2C

_WRITE_DGUSII_VP/T5LLIB                       ----- -----  ----- -----  CB8DH CB93H
  +--> T5LLIB

T5LLIB                                        ----- -----  ----- -----  ----- -----

INIT_FLASH_PARAMETERS/MODULE                  ----- -----  ----- -----  ----- -----
  +--> INIT_PWD_F/MODULE
  +--> INIT_BEEP_ENABLE/MODULE
  +--> INIT_BACK_LIGHT_PARAMETERS/MODULE
  +--> PRINTF/PRINTF

INIT_PWD_F/MODULE                             ----- -----  ----- -----  C853H C857H
  +--> MODULE
  +--> _NORFLASH_READ/NOR_FLASH
  +--> _READ_DGUS/SYS
  +--> _T5L_FLASH/T5LLIB

MODULE                                        ----- -----  ----- -----  ----- -----

_NORFLASH_READ/NOR_FLASH                      ----- -----  ----- -----  CB84H CB8CH
  +--> NOR_FLASH
  +--> _WRITE_DGUSII_VP/T5LLIB
  +--> _READ_DGUSII_VP/T5LLIB
  +--> _SYS_DELAY_ABOUT_MS/SYS

NOR_FLASH                                     ----- -----  ----- -----  ----- -----

_READ_DGUSII_VP/T5LLIB                        ----- -----  ----- -----  CB8DH CB93H
  +--> T5LLIB

_SYS_DELAY_ABOUT_MS/SYS                       ----- -----  ----- -----  ----- -----

_READ_DGUS/SYS                                ----- -----  ----- -----  ----- -----

_T5L_FLASH/T5LLIB                             ----- -----  ----- -----  C869H C871H
  +--> T5LLIB
  +--> _WAIT_OK/T5LLIB

_WAIT_OK/T5LLIB                               ----- -----  ----- -----  ----- -----

INIT_BEEP_ENABLE/MODULE                       ----- -----  ----- -----  C853H C857H
  +--> MODULE
  +--> _NORFLASH_READ/NOR_FLASH
  +--> PRINTF/PRINTF
  +--> _T5L_FLASH/T5LLIB
  +--> _READ_DGUS/SYS
  +--> _SYS_DELAY_ABOUT_MS/SYS
  +--> _BEEP_CTRL/SCENE

PRINTF/PRINTF                                 20H.0 21H.0  0008H 000CH  CB84H CBABH
  +--> _PUTCHAR/UART

_PUTCHAR/UART                                 ----- -----  ----- -----  ----- -----
  +--> _UART_SEND_BYTE/UART
LX51 LINKER/LOCATER V4.66.97.0                                                        09/27/2023  17:05:17  PAGE 13



_BEEP_CTRL/SCENE                              ----- -----  ----- -----  C8C1H C8C5H
  +--> SCENE
  +--> _READ_DGUSII_VP/T5LLIB
  +--> _SYS_DELAY_ABOUT_MS/SYS
  +--> _WRITE_DGUSII_VP/T5LLIB

SCENE                                         ----- -----  ----- -----  ----- -----

INIT_BACK_LIGHT_PARAMETERS/MODULE             ----- -----  ----- -----  C853H C85AH
  +--> MODULE
  +--> _NORFLASH_READ/NOR_FLASH
  +--> PRINTF/PRINTF
  +--> _T5L_FLASH/T5LLIB
  +--> _READ_DGUS/SYS
  +--> _SYS_DELAY_ABOUT_MS/SYS
  +--> _BACK_LIGHT_CTRL/SCENE
  +--> _SYS_LED_CONFIG/SCENE

_BACK_LIGHT_CTRL/SCENE                        ----- -----  ----- -----  C85BH C85FH
  +--> SCENE
  +--> _READ_DGUSII_VP/T5LLIB
  +--> _SYS_DELAY_ABOUT_MS/SYS
  +--> _WRITE_DGUSII_VP/T5LLIB

_SYS_LED_CONFIG/SCENE                         ----- -----  ----- -----  C85BH C862H
  +--> SCENE
  +--> _WRITE_DGUSII_VP/T5LLIB

_DISPLAY_MODULE_INFORMATION/MODULE            ----- -----  ----- -----  C85EH C8AEH
  +--> MODULE
  +--> _STRNCPY/STRNCPY
  +--> _STRRPL/SYS
  +--> PRINTF/PRINTF
  +--> _WRITE_DGUSII_VP/T5LLIB

_STRNCPY/STRNCPY                              ----- -----  ----- -----  CB84H CB8DH

_STRRPL/SYS                                   ----- -----  ----- -----  CB84H CB8FH
  +--> _STRSTR/STRSTR
  +--> _STRLEN/STRLEN

_STRSTR/STRSTR                                ----- -----  ----- -----  CB90H CB9BH

_STRLEN/STRLEN                                ----- -----  ----- -----  ----- -----

_ADD_ARR_DATA/SYS                             ----- -----  ----- -----  C85EH C862H
  +--> SYS
  +--> PRINTF/PRINTF

SYS                                           ----- -----  ----- -----  ----- -----

_PRINTF_TAB/SYS                               ----- -----  ----- -----  C8A8H C8AEH
  +--> PRINTF/PRINTF
  +--> SYS

_DISPLAY_TIMING_SCENE_INFOR/TIME_SCENE        ----- -----  ----- -----  C867H CB83H
  +--> TIME_SCENE
  +--> _STRNCPY/STRNCPY
  +--> PRINTF/PRINTF
  +--> _STRLEN/STRLEN
  +--> _NORFLASH_READ/NOR_FLASH
  +--> _STRRPL/SYS
  +--> _READ_DGUSII_VP/T5LLIB
  +--> _WRITE_DGUSII_VP/T5LLIB
LX51 LINKER/LOCATER V4.66.97.0                                                        09/27/2023  17:05:17  PAGE 14



TIME_SCENE                                    ----- -----  ----- -----  ----- -----

_WRITE_DGUS/SYS                               ----- -----  ----- -----  ----- -----
  +--> SYS

CLOCK/I2C                                     20H.0 20H.0  ----- -----  ----- -----
  +--> INIT_RTC/I2C
  +--> I2C
  +--> READ_TIME/I2C
  +--> RTC_SET_TIME/I2C
  +--> CLOCK_1/I2C

INIT_RTC/I2C                                  ----- -----  ----- -----  ----- -----
  +--> _RX8130_WRIT_BYTE/I2C
  +--> RX8130_STOP/I2C
  +--> RX8130_START/I2C
  +--> RX8130_READ_BYTE/I2C
  +--> RX8130_MACK/I2C
  +--> RX8130_MNAK/I2C

_RX8130_WRIT_BYTE/I2C                         ----- -----  ----- -----  ----- -----
  +--> RX8130_START/I2C
  +--> RX8130_STOP/I2C
  +--> SDA_OUT/I2C
  +--> DELAYUS/I2C
  +--> RX8130_CACK/I2C

RX8130_START/I2C                              ----- -----  ----- -----  ----- -----
  +--> SDA_OUT/I2C
  +--> DELAYUS/I2C

DELAYUS/I2C                                   ----- -----  ----- -----  ----- -----

RX8130_STOP/I2C                               ----- -----  ----- -----  ----- -----
  +--> _RX8130_WRIT_BYTE/I2C
  +--> SDA_OUT/I2C
  +--> DELAYUS/I2C
  +--> SDA_IN/I2C

RX8130_CACK/I2C                               ----- -----  ----- -----  ----- -----
  +--> SDA_IN/I2C
  +--> DELAYUS/I2C
  +--> SDA_OUT/I2C

RX8130_READ_BYTE/I2C                          ----- -----  ----- -----  ----- -----
  +--> SDA_IN/I2C
  +--> DELAYUS/I2C

RX8130_MACK/I2C                               ----- -----  ----- -----  ----- -----
  +--> SDA_OUT/I2C
  +--> DELAYUS/I2C

RX8130_MNAK/I2C                               ----- -----  ----- -----  ----- -----
  +--> SDA_OUT/I2C
  +--> DELAYUS/I2C

READ_TIME/I2C                                 ----- -----  ----- -----  C853H C85CH
  +--> _RX8130_WRIT_BYTE/I2C
  +--> RX8130_STOP/I2C
  +--> RX8130_START/I2C
  +--> RX8130_READ_BYTE/I2C
  +--> I2C
  +--> RX8130_MACK/I2C
  +--> RX8130_MNAK/I2C
LX51 LINKER/LOCATER V4.66.97.0                                                        09/27/2023  17:05:17  PAGE 15


  +--> _RTC_GET_WEEK/I2C
  +--> _WRITE_DGUS/SYS

_RTC_GET_WEEK/I2C                             ----- -----  ----- -----  C85DH C861H
  +--> I2C

RTC_SET_TIME/I2C                              20H.1 20H.1  ----- -----  C853H C85DH
  +--> _READ_DGUS/SYS
  +--> I2C
  +--> _WRITE_DGUS/SYS
  +--> _RX8130_WRIT_BYTE/I2C
  +--> RX8130_STOP/I2C

CLOCK_1/I2C                                   ----- -----  ----- -----  ----- -----
  +--> INIT_RTC_1/I2C
  +--> I2C
  +--> RDTIME/I2C
  +--> CHECK_RTC_SET/I2C

INIT_RTC_1/I2C                                ----- -----  ----- -----  C853H C853H
  +--> _I2CBW/I2C
  +--> I2C
  +--> I2CBR/I2C
  +--> MACK/I2C
  +--> I2CSTOP/I2C

CHECK_RTC_SET/I2C                             ----- -----  ----- -----  C853H C862H
  +--> _READ_DGUSII_VP/T5LLIB
  +--> _BCD/I2C
  +--> _RTC_GET_WEEK_1/I2C
  +--> _RTC_CONFIG/I2C
  +--> _WRITE_DGUSII_VP/T5LLIB

_BCD/I2C                                      ----- -----  ----- -----  ----- -----
  +--> I2C

_RTC_GET_WEEK_1/I2C                           ----- -----  ----- -----  C863H C867H

_RTC_CONFIG/I2C                               ----- -----  ----- -----  C863H C867H
  +--> _I2CBW/I2C
  +--> I2C
  +--> I2CBR/I2C
  +--> MACK/I2C
  +--> I2CSTOP/I2C

UART_FRAME_DEAL/UART                          ----- -----  ----- -----  ----- -----
  +--> UART
  +--> _DEAL_UART_DATA/UART

_DEAL_UART_DATA/UART                          20H.0 20H.2  ----- -----  C853H C95AH
  +--> UART
  +--> _DEAL_82_CMD/UART
  +--> _DEAL_83_CMD/UART

_DEAL_82_CMD/UART                             ----- -----  ----- -----  C95BH C96BH
  +--> UART
  +--> _WRITE_DGUSII_VP/T5LLIB
  +--> _CRC16TABLE/CRC16

_CRC16TABLE/CRC16                             ----- -----  ----- -----  C96CH C970H

_DEAL_83_CMD/UART                             ----- -----  ----- -----  C95BH C966H
  +--> UART
  +--> _UART_SEND_BYTE/UART
  +--> _CRC16TABLE/CRC16
LX51 LINKER/LOCATER V4.66.97.0                                                        09/27/2023  17:05:17  PAGE 16


  +--> _READ_DGUSII_VP/T5LLIB

READ_DGUS_TIME/MODULE                         ----- -----  ----- -----  C853H C85CH
  +--> MODULE
  +--> _GET_KEY_VALUE/MODULE
  +--> _READ_SYS_TIME/MODULE
  +--> _PRINTF_TAB/SYS
  +--> PRINTF/PRINTF
  +--> _READ_DGUS/SYS
  +--> _CLEAR_KEY_VALUE/MODULE
  +--> _WRITE_DGUSII_VP/T5LLIB

_GET_KEY_VALUE/MODULE                         ----- -----  ----- -----  ----- -----
  +--> MODULE
  +--> _READ_DGUSII_VP/T5LLIB

_READ_SYS_TIME/MODULE                         ----- -----  ----- -----  ----- -----
  +--> MODULE
  +--> _READ_DGUSII_VP/T5LLIB

_CLEAR_KEY_VALUE/MODULE                       ----- -----  ----- -----  C8A8H C8AEH
  +--> PRINTF/PRINTF
  +--> MODULE
  +--> _WRITE_DGUSII_VP/T5LLIB

TIMING_AUTO_DETECT/TIME_SCENE                 ----- -----  ----- -----  C853H C863H
  +--> TIME_SCENE
  +--> _READ_SYS_TIME/MODULE
  +--> PRINTF/PRINTF

MODULE_MODIFY/MODULE                          ----- -----  ----- -----  C853H C854H
  +--> READ_PIC/MODULE
  +--> SET_MODULE_TYPE/MODULE
  +--> MODULE
  +--> _SAVE_MODULE_INFORMATION/MODULE
  +--> _SET_BOX_SELECT/MODULE
  +--> _MODIFYING_MODULE_INFORMATION/MODULE
  +--> CLEAR_SELECT_MODULE_INFORMATION/MODULE
  +--> CLEAR_ALL_MODULE_INFORMATION/MODULE
  +--> _TIMING_MODULE_PARAMETER_KEY_CTRL/MODULE
  +--> _DISPLAY_TIMING_MODULE_PARAMETER/MODULE
  +--> SELECT_EITHER_OR_ALL/MODULE
  +--> _READ_DGUS/SYS
  +--> _STARUP_PAGE_PWD/MODULE
  +--> _CHANGE_PWD/MODULE
  +--> SELECT_BEEP_ENABLE/MODULE
  +--> BACK_LIGHT_SET/MODULE
  +--> BLACK_SCREEN_SWITCHES_TO_HOME_PAGE/MODULE
  +--> BATCH_SET_TIME_PARAMETERS/MODULE
  +--> AUTOMATICALLY_RETRIEVE_CMD/MODULE
  +--> MODULE_ALL_CTRL/MODULE
  +--> RETURN_PAGE/MODULE

READ_PIC/MODULE                               ----- -----  ----- -----  C875H C876H
  +--> _READ_DGUS/SYS
  +--> _SYS_DELAY_ABOUT_MS/SYS

SET_MODULE_TYPE/MODULE                        ----- -----  ----- -----  C855H C856H
  +--> MODULE
  +--> _READ_DGUSII_VP/T5LLIB
  +--> _WRITE_DGUSII_VP/T5LLIB
  +--> SET_CHANNEL_NB/MODULE

SET_CHANNEL_NB/MODULE                         ----- -----  ----- -----  ----- -----
  +--> MODULE
LX51 LINKER/LOCATER V4.66.97.0                                                        09/27/2023  17:05:17  PAGE 17


  +--> _READ_DGUSII_VP/T5LLIB
  +--> _WRITE_DGUSII_VP/T5LLIB

_SAVE_MODULE_INFORMATION/MODULE               ----- -----  ----- -----  C855H C85DH
  +--> MODULE
  +--> _READ_DGUSII_VP/T5LLIB
  +--> _WRITE_DGUSII_VP/T5LLIB
  +--> PRINTF/PRINTF
  +--> _FIND_INDEX/MODULE
  +--> _WRITE_DGUS/SYS
  +--> _SYS_DELAY_ABOUT_MS/SYS
  +--> _PRINTF_TAB/SYS
  +--> _FIND_NUB_INDEX/SYS
  +--> _POP_MENU_KEY_CTRL/SCENE
  +--> _SET_MODULE_INFORMATION/MODULE
  +--> _ADD_ARR_DATA/SYS
  +--> _NORFLASH_WRITE/NOR_FLASH
  +--> _DISPLAY_MODULE_INFORMATION/MODULE
  +--> _PIC_SET/MODULE

_FIND_INDEX/MODULE                            ----- -----  ----- -----  C85EH C864H
  +--> MODULE
  +--> _CHECK_WHETHER_DATA_EXISTS/MODULE

_CHECK_WHETHER_DATA_EXISTS/MODULE             ----- -----  ----- -----  C865H C86DH
  +--> MODULE
  +--> _NORFLASH_READ/NOR_FLASH

_FIND_NUB_INDEX/SYS                           ----- -----  ----- -----  C85EH C860H
  +--> SYS

_POP_MENU_KEY_CTRL/SCENE                      ----- -----  ----- -----  C8B8H C8C0H
  +--> SCENE
  +--> _BEEP_CTRL/SCENE
  +--> _SYS_DELAY_ABOUT_MS/SYS
  +--> _WRITE_DGUSII_VP/T5LLIB
  +--> _READ_DGUS/SYS

_SET_MODULE_INFORMATION/MODULE                ----- -----  ----- -----  C85EH C865H
  +--> MODULE
  +--> _READ_DGUSII_VP/T5LLIB

_NORFLASH_WRITE/NOR_FLASH                     ----- -----  ----- -----  C867H C86FH
  +--> NOR_FLASH
  +--> _WRITE_DGUSII_VP/T5LLIB
  +--> _READ_DGUSII_VP/T5LLIB
  +--> _SYS_DELAY_ABOUT_MS/SYS

_PIC_SET/MODULE                               ----- -----  ----- -----  C874H C877H
  +--> MODULE
  +--> _WRITE_DGUSII_VP/T5LLIB
  +--> _READ_DGUSII_VP/T5LLIB
  +--> _DELAY_US/MODULE

_DELAY_US/MODULE                              ----- -----  ----- -----  ----- -----

_SET_BOX_SELECT/MODULE                        ----- -----  ----- -----  C855H C862H
  +--> MODULE
  +--> _GET_KEY_VALUE/MODULE
  +--> _WRITE_DGUS/SYS
  +--> _CLEAR_KEY_VALUE/MODULE

_MODIFYING_MODULE_INFORMATION/MODULE          ----- -----  ----- -----  C855H C85AH
  +--> MODULE
  +--> _GET_KEY_VALUE/MODULE
LX51 LINKER/LOCATER V4.66.97.0                                                        09/27/2023  17:05:17  PAGE 18


  +--> _CLEAR_KEY_VALUE/MODULE
  +--> _GET_BOX_SELECT_NUMBER/MODULE
  +--> _CHECK_WHETHER_DATA_EXISTS/MODULE
  +--> _NORFLASH_READ/NOR_FLASH
  +--> _DISPLAY_EDIT_INTERFACE/MODULE
  +--> PRINTF/PRINTF
  +--> _DELETE_ARR_DATA/SYS

_GET_BOX_SELECT_NUMBER/MODULE                 ----- -----  ----- -----  C863H C866H
  +--> MODULE
  +--> _READ_DGUS/SYS

_DISPLAY_EDIT_INTERFACE/MODULE                ----- -----  ----- -----  C85BH C85DH
  +--> PRINTF/PRINTF
  +--> MODULE
  +--> _WRITE_DGUS/SYS
  +--> _WRITE_DGUSII_VP/T5LLIB
  +--> _PIC_SET/MODULE

_DELETE_ARR_DATA/SYS                          ----- -----  ----- -----  ----- -----
  +--> SYS

CLEAR_SELECT_MODULE_INFORMATION/MODULE        ----- -----  ----- -----  C855H C857H
  +--> MODULE
  +--> _GET_KEY_VALUE/MODULE
  +--> _GET_BOX_SELECT_NUMBER/MODULE
  +--> _T5L_FLASH/T5LLIB
  +--> _WRITE_DGUSII_VP/T5LLIB
  +--> _DELETE_ARR_DATA/SYS
  +--> _PRINTF_TAB/SYS
  +--> _CLEAR_ALL_MODULE_VAR_EN/SCENE
  +--> _CLEAR_KEY_VALUE/MODULE

_CLEAR_ALL_MODULE_VAR_EN/SCENE                ----- -----  ----- -----  C861H C864H
  +--> _CLEAR_SINGLE_MODULE_VAR_EN/SCENE

_CLEAR_SINGLE_MODULE_VAR_EN/SCENE             ----- -----  ----- -----  ----- -----
  +--> _WRITE_DGUS/SYS

CLEAR_ALL_MODULE_INFORMATION/MODULE           ----- -----  ----- -----  C855H C857H
  +--> MODULE
  +--> _GET_KEY_VALUE/MODULE
  +--> PRINTF/PRINTF
  +--> _T5L_FLASH/T5LLIB
  +--> _WRITE_DGUSII_VP/T5LLIB
  +--> _CLEAR_KEY_VALUE/MODULE

_TIMING_MODULE_PARAMETER_KEY_CTRL/MODULE      ----- -----  ----- -----  C855H C85AH
  +--> MODULE
  +--> _GET_KEY_VALUE/MODULE
  +--> _TIMING_MODULE_PARAMETER_ONGITUDE_LATITUDE_SEND/MODULE
  +--> _TIMING_MODULE_PARAMETER_TIME_SEND/MODULE
  +--> _TIMING_MODULE_PARAMETER_WEEK_ENABLE_CHANNEL_SEND/MODULE
  +--> _TIMING_MODULE_PARAMETER_SOLAR_CHANNEL_SEND/MODULE
  +--> _TIMING_MODULE_PARAMETER_TIME_FRAME_CHANNEL_SEND/MODULE
  +--> RETURN_TO_PREVIOUS_PAGE/MODULE
  +--> _CLEAR_KEY_VALUE/MODULE

_TIMING_MODULE_PARAMETER_ONGITUDE_LATITU+     ----- -----  ----- -----  C85BH C85DH
... DE_SEND/MODULE
  +--> _READ_DGUS/SYS
  +--> MODULE
  +--> _SET_MASTER_SEND_HR/MB_USER
  +--> _PACK_DATA_SEND/MB_USER

LX51 LINKER/LOCATER V4.66.97.0                                                        09/27/2023  17:05:17  PAGE 19


_SET_MASTER_SEND_HR/MB_USER                   ----- -----  ----- -----  C8BBH C8C1H

_PACK_DATA_SEND/MB_USER                       ----- -----  ----- -----  C8BBH C8C2H
  +--> _MODTIFY_MB_INFOM/MB_USER
  +--> _MODBUS_SEND_DATA/MB_USER

_MODTIFY_MB_INFOM/MB_USER                     ----- -----  ----- -----  C8C3H C8CAH
  +--> MB_USER
  +--> _MODBUS_MASTER_SEND/MB_USER
  +--> PRINTF/PRINTF

_MODBUS_MASTER_SEND/MB_USER                   ----- -----  ----- -----  C8CBH C8D8H
  +--> MB_USER
  +--> _SHORT_COPY_XCH/MB_USER

_SHORT_COPY_XCH/MB_USER                       ----- -----  ----- -----  C8D9H C8E7H
  +--> MB_USER

_MODBUS_SEND_DATA/MB_USER                     ----- -----  ----- -----  C8C3H C8C5H
  +--> MB_USER
  +--> _MBH_SEND/MB_HOST
  +--> PRINTF/PRINTF

_MBH_SEND/MB_HOST                             ----- -----  ----- -----  C8C6H C8CCH
  +--> MB_HOST
  +--> PRINTF/PRINTF
  +--> _MB_CRC16/MB_CRC
  +--> _MB_PORT_UARTENABLE/MB_PORT

MB_HOST                                       ----- -----  ----- -----  ----- -----

_MB_CRC16/MB_CRC                              ----- -----  ----- -----  C8CDH C8D1H

_MB_PORT_UARTENABLE/MB_PORT                   ----- -----  ----- -----  C8CDH C8CEH

_TIMING_MODULE_PARAMETER_TIME_SEND/MODUL+     ----- -----  ----- -----  C85BH C85DH
... E
  +--> MODULE
  +--> _SET_MASTER_SEND_HR/MB_USER
  +--> _READ_DGUS/SYS
  +--> _PACK_DATA_SEND/MB_USER

_TIMING_MODULE_PARAMETER_WEEK_ENABLE_CHA+     ----- -----  ----- -----  C85BH C864H
... NNEL_SEND/MODULE
  +--> MODULE
  +--> _GET_TIMING_WEEK_ENABLE/TIME_SCENE
  +--> _GET_CHANNEL_SET/MODULE
  +--> _SET_MASTER_SEND_HR/MB_USER
  +--> _PACK_DATA_SEND/MB_USER

_GET_TIMING_WEEK_ENABLE/TIME_SCENE            ----- -----  ----- -----  C873H C874H
  +--> _READ_DGUS/SYS

_GET_CHANNEL_SET/MODULE                       ----- -----  ----- -----  C876H C87AH
  +--> MODULE

_TIMING_MODULE_PARAMETER_SOLAR_CHANNEL_S+     ----- -----  ----- -----  C85BH C867H
... END/MODULE
  +--> MODULE
  +--> _READ_DGUS/SYS
  +--> _GET_CHANNEL_SET/MODULE
  +--> _SET_MASTER_SEND_HR/MB_USER
  +--> _PACK_DATA_SEND/MB_USER

_TIMING_MODULE_PARAMETER_TIME_FRAME_CHAN+     ----- -----  ----- -----  C85BH C875H
LX51 LINKER/LOCATER V4.66.97.0                                                        09/27/2023  17:05:17  PAGE 20


... NEL_SEND/MODULE
  +--> MODULE
  +--> _READ_DGUS/SYS
  +--> _GET_CHANNEL_SET/MODULE
  +--> _SET_MASTER_SEND_HR/MB_USER
  +--> _PACK_DATA_SEND/MB_USER

RETURN_TO_PREVIOUS_PAGE/MODULE                ----- -----  ----- -----  ----- -----
  +--> _PIC_SET/MODULE

_DISPLAY_TIMING_MODULE_PARAMETER/MODULE       ----- -----  ----- -----  C855H C874H
  +--> MODULE
  +--> READ_PIC/MODULE
  +--> _WRITE_DGUS/SYS
  +--> _DISPLAY_WEEK_PARAMETER/MODULE
  +--> _DISPLAY_SOLAR_PARAMETER/MODULE
  +--> _DISPLAY_TIME_FRAME_PARAMETER/MODULE

_DISPLAY_WEEK_PARAMETER/MODULE                ----- -----  ----- -----  C875H C878H
  +--> MODULE
  +--> PRINTF/PRINTF
  +--> _WRITE_DGUS/SYS

_DISPLAY_SOLAR_PARAMETER/MODULE               ----- -----  ----- -----  C875H C87BH
  +--> _WRITE_DGUS/SYS

_DISPLAY_TIME_FRAME_PARAMETER/MODULE          ----- -----  ----- -----  C875H C87AH
  +--> MODULE
  +--> _WRITE_DGUS/SYS

SELECT_EITHER_OR_ALL/MODULE                   ----- -----  ----- -----  ----- -----
  +--> _SELECT_EITHER_OR_SINGLE/MODULE

_SELECT_EITHER_OR_SINGLE/MODULE               ----- -----  ----- -----  C855H C85CH
  +--> MODULE
  +--> _GET_KEY_VALUE/MODULE
  +--> _WRITE_DGUS/SYS
  +--> _CLEAR_KEY_VALUE/MODULE
  +--> _READ_DGUS/SYS

_STARUP_PAGE_PWD/MODULE                       ----- -----  ----- -----  C855H C857H
  +--> MODULE
  +--> _GET_KEY_VALUE/MODULE
  +--> _POP_MENU_KEY_CTRL/SCENE
  +--> _PIC_SET/MODULE
  +--> _CLEAR_KEY_VALUE/MODULE
  +--> _READ_DGUS/SYS
  +--> _CHECK_WHETHER_THE_PASSWORDS_ARE_CONSISTENT/MODULE

_CHECK_WHETHER_THE_PASSWORDS_ARE_CONSIST+     ----- -----  ----- -----  ----- -----
... ENT/MODULE
  +--> _PIC_SET/MODULE
  +--> _CLEAR_PWD/MODULE

_CLEAR_PWD/MODULE                             ----- -----  ----- -----  ----- -----
  +--> _WRITE_DGUS/SYS

_CHANGE_PWD/MODULE                            ----- -----  ----- -----  C855H C85DH
  +--> MODULE
  +--> _GET_KEY_VALUE/MODULE
  +--> _CLEAR_KEY_VALUE/MODULE
  +--> _T5L_FLASH/T5LLIB
  +--> _NORFLASH_WRITE/NOR_FLASH
  +--> PRINTF/PRINTF
  +--> _PRINTF_TAB/SYS
LX51 LINKER/LOCATER V4.66.97.0                                                        09/27/2023  17:05:17  PAGE 21


  +--> _READ_DGUS/SYS

SELECT_BEEP_ENABLE/MODULE                     ----- -----  ----- -----  C855H C85BH
  +--> MODULE
  +--> _GET_KEY_VALUE/MODULE
  +--> _CHECK_OR_NOT_FRAME/MODULE
  +--> _CHECK_CONSTANT/SYS
  +--> _T5L_FLASH/T5LLIB
  +--> _NORFLASH_WRITE/NOR_FLASH
  +--> _BEEP_CTRL/SCENE
  +--> _CLEAR_KEY_VALUE/MODULE

_CHECK_OR_NOT_FRAME/MODULE                    ----- -----  ----- -----  C85CH C85EH
  +--> _READ_DGUS/SYS
  +--> _SYS_DELAY_ABOUT_MS/SYS
  +--> MODULE
  +--> _WRITE_DGUS/SYS

_CHECK_CONSTANT/SYS                           ----- -----  ----- -----  ----- -----

BACK_LIGHT_SET/MODULE                         ----- -----  ----- -----  C855H C85AH
  +--> MODULE
  +--> _GET_KEY_VALUE/MODULE
  +--> _READ_DGUS/SYS
  +--> _SYS_DELAY_ABOUT_MS/SYS
  +--> _SYS_LED_CONFIG/SCENE
  +--> _CLEAR_KEY_VALUE/MODULE
  +--> PRINTF/PRINTF
  +--> SAVE_BACK_LIGHT_PARAMETERS/MODULE
  +--> _POP_MENU_KEY_CTRL/SCENE

SAVE_BACK_LIGHT_PARAMETERS/MODULE             ----- -----  ----- -----  C85BH C85EH
  +--> MODULE
  +--> _T5L_FLASH/T5LLIB
  +--> _NORFLASH_WRITE/NOR_FLASH
  +--> PRINTF/PRINTF

BLACK_SCREEN_SWITCHES_TO_HOME_PAGE/MODUL+     ----- -----  ----- -----  C855H C856H
... E
  +--> MODULE
  +--> _READ_DGUSII_VP/T5LLIB
  +--> _PIC_SET/MODULE

BATCH_SET_TIME_PARAMETERS/MODULE              ----- -----  ----- -----  C855H C856H
  +--> MODULE
  +--> _GET_KEY_VALUE/MODULE
  +--> _READ_DGUS/SYS
  +--> _POP_MENU_KEY_CTRL/SCENE
  +--> _CLEAR_KEY_VALUE/MODULE

AUTOMATICALLY_RETRIEVE_CMD/MODULE             ----- -----  ----- -----  C855H C856H
  +--> MODULE
  +--> _GET_KEY_VALUE/MODULE
  +--> _POP_MENU_KEY_CTRL/SCENE
  +--> _CLEAR_KEY_VALUE/MODULE

MODULE_ALL_CTRL/MODULE                        ----- -----  ----- -----  C855H C856H
  +--> MODULE
  +--> _SET_MASTER_SEND_HR/MB_USER
  +--> _CLEAR_KEY_VALUE/MODULE
  +--> _PACK_DATA_SEND/MB_USER
  +--> _GET_KEY_VALUE/MODULE

RETURN_PAGE/MODULE                            ----- -----  ----- -----  C855H C856H
  +--> MODULE
LX51 LINKER/LOCATER V4.66.97.0                                                        09/27/2023  17:05:17  PAGE 22


  +--> _GET_KEY_VALUE/MODULE
  +--> _CLEAR_KEY_VALUE/MODULE
  +--> _PIC_SET/MODULE

_RELAY_CTRL/MODULE                            ----- -----  ----- -----  C853H C855H
  +--> MODULE
  +--> _RELAY_SINGLE_CTRL/MODULE
  +--> _RELAY_ALL_CTRL/MODULE
  +--> _RELAY_REFESH/MODULE

_RELAY_SINGLE_CTRL/MODULE                     ----- -----  ----- -----  C856H C8A7H
  +--> MODULE
  +--> _GET_KEY_VALUE/MODULE
  +--> PRINTF/PRINTF
  +--> _WRITE_DGUSII_VP/T5LLIB
  +--> _PRINTF_TAB/SYS
  +--> _SET_MASTER_SEND_HR/MB_USER
  +--> _PACK_DATA_SEND/MB_USER
  +--> _CLEAR_KEY_VALUE/MODULE

_RELAY_ALL_CTRL/MODULE                        ----- -----  ----- -----  C856H C85BH
  +--> MODULE
  +--> _GET_KEY_VALUE/MODULE
  +--> _WRITE_DGUSII_VP/T5LLIB
  +--> _SET_MASTER_SEND_HR/MB_USER
  +--> _PACK_DATA_SEND/MB_USER
  +--> _CLEAR_KEY_VALUE/MODULE

_RELAY_REFESH/MODULE                          ----- -----  ----- -----  C856H C85AH
  +--> MODULE
  +--> _GET_KEY_VALUE/MODULE
  +--> _PACK_DATA_SEND/MB_USER
  +--> _CLEAR_KEY_VALUE/MODULE

_TIMING_MODULE_PARAMETER_SETTINGS/MODULE      ----- -----  ----- -----  C853H C857H
  +--> MODULE
  +--> _GET_KEY_VALUE/MODULE
  +--> _PACK_DATA_SEND/MB_USER
  +--> _CLEAR_KEY_VALUE/MODULE

ALL_MODULE_ON_OFF/MODULE                      ----- -----  ----- -----  C853H C854H
  +--> MODULE
  +--> _SET_MASTER_SEND_HR/MB_USER
  +--> _CLEAR_KEY_VALUE/MODULE
  +--> _PACK_DATA_SEND/MB_USER
  +--> _GET_KEY_VALUE/MODULE

ALL_DIM_ON_OFF/MODULE                         ----- -----  ----- -----  C853H C854H
  +--> MODULE
  +--> _SET_MASTER_SEND_HR/MB_USER
  +--> _CLEAR_KEY_VALUE/MODULE
  +--> _PACK_DATA_SEND/MB_USER
  +--> _GET_KEY_VALUE/MODULE

SCENE_MODIFY/SCENE                            ----- -----  ----- -----  ----- -----
  +--> SCENE
  +--> _SCENE_NAME_KEY_CTRL/SCENE
  +--> _ADD_MODULE_SCENE_INFOR/SCENE
  +--> _MODULE_SCENE_SELECT_CTRL/SCENE
  +--> _SCENE_INFOR_KEY_CTRL/SCENE
  +--> SET_SCENE_INFOR_PAGE/SCENE

_SCENE_NAME_KEY_CTRL/SCENE                    ----- -----  ----- -----  C853H C858H
  +--> SCENE
  +--> _SCENE_NAME_ADD/SCENE
LX51 LINKER/LOCATER V4.66.97.0                                                        09/27/2023  17:05:17  PAGE 23


  +--> _SCENE_NAME_MODIFY/SCENE
  +--> _CLEAR_KEY_VALUE/MODULE
  +--> _POP_MENU_KEY_CTRL/SCENE
  +--> _SCENE_NAME_CLEAR/SCENE
  +--> PRINTF/PRINTF
  +--> _GET_KEY_VALUE/MODULE
  +--> GET_SCENE_NAME_SELECT_SEQUENCE_NUMBER/SCENE
  +--> _IF_SCENE_NAME_EXISTS/SCENE
  +--> _NORFLASH_READ/NOR_FLASH
  +--> _SCENE_NAME_DELETE/SCENE

_SCENE_NAME_ADD/SCENE                         ----- -----  ----- -----  C859H C85BH
  +--> GET_BLANK_SCENE_NAME_INDEX/SCENE
  +--> SCENE
  +--> CLEAR_TEMP_SCENC_INFOR/SCENE
  +--> CLEAR_ALL_SCENE_INFOR/SCENE
  +--> _CLEAR_ALL_MODULE_VAR_EN/SCENE

GET_BLANK_SCENE_NAME_INDEX/SCENE              ----- -----  ----- -----  C85CH C85EH
  +--> SCENE
  +--> _READ_DGUSII_VP/T5LLIB

CLEAR_TEMP_SCENC_INFOR/SCENE                  ----- -----  ----- -----  ----- -----

CLEAR_ALL_SCENE_INFOR/SCENE                   ----- -----  ----- -----  C861H C861H
  +--> SCENE
  +--> _CLEAR_SINGLE_SCENE/SCENE

_CLEAR_SINGLE_SCENE/SCENE                     ----- -----  ----- -----  ----- -----
  +--> SCENE
  +--> _WRITE_DGUSII_VP/T5LLIB

_SCENE_NAME_MODIFY/SCENE                      ----- -----  ----- -----  C859H C85EH
  +--> SCENE
  +--> GET_SCENE_NAME_SELECT_SEQUENCE_NUMBER/SCENE
  +--> PRINTF/PRINTF
  +--> _IF_SCENE_NAME_EXISTS/SCENE
  +--> _PIC_SET/MODULE
  +--> _SCENE_NAME_READ_FLASH/SCENE
  +--> _PRINTF_TAB/SYS
  +--> _NORFLASH_READ/NOR_FLASH
  +--> _WRITE_DGUS/SYS
  +--> _DISPLAY_SCENE_INFOR/SCENE
  +--> _CLEAR_SINGLE_SCENE/SCENE

GET_SCENE_NAME_SELECT_SEQUENCE_NUMBER/SC+     ----- -----  ----- -----  ----- -----
... ENE
  +--> _GET_BOX_SELECT_NUMBER/MODULE

_IF_SCENE_NAME_EXISTS/SCENE                   ----- -----  ----- -----  C8B9H C8BAH
  +--> SCENE
  +--> _READ_DGUSII_VP/T5LLIB

_SCENE_NAME_READ_FLASH/SCENE                  ----- -----  ----- -----  C85FH C861H
  +--> SCENE
  +--> _NORFLASH_READ/NOR_FLASH
  +--> _WRITE_DGUSII_VP/T5LLIB

_DISPLAY_SCENE_INFOR/SCENE                    ----- -----  ----- -----  C861H CAE7H
  +--> SCENE
  +--> _STRNCPY/STRNCPY
  +--> PRINTF/PRINTF
  +--> _STRLEN/STRLEN
  +--> _NORFLASH_READ/NOR_FLASH
  +--> _STRRPL/SYS
LX51 LINKER/LOCATER V4.66.97.0                                                        09/27/2023  17:05:17  PAGE 24


  +--> _WRITE_DGUSII_VP/T5LLIB

_SCENE_NAME_CLEAR/SCENE                       ----- -----  ----- -----  C859H C85BH
  +--> SCENE_NAME_CLEAR_FLASH/SCENE
  +--> CLEAR_SCENE_LIST_NAME/SCENE
  +--> PRINTF/PRINTF
  +--> SCENE

SCENE_NAME_CLEAR_FLASH/SCENE                  ----- -----  ----- -----  C85CH C85CH
  +--> IF_ALL_SCENE_NAME_BLANK/SCENE
  +--> SCENE
  +--> _T5L_FLASH/T5LLIB

IF_ALL_SCENE_NAME_BLANK/SCENE                 ----- -----  ----- -----  C8B8H C8B8H
  +--> SCENE
  +--> _IF_SCENE_NAME_EXISTS/SCENE

CLEAR_SCENE_LIST_NAME/SCENE                   ----- -----  ----- -----  C85CH C85CH
  +--> SCENE
  +--> _DELETE_SCENE_LIST_NAME/SCENE

_DELETE_SCENE_LIST_NAME/SCENE                 ----- -----  ----- -----  ----- -----
  +--> SCENE
  +--> _WRITE_DGUSII_VP/T5LLIB

_SCENE_NAME_DELETE/SCENE                      ----- -----  ----- -----  C859H C85BH
  +--> SCENE
  +--> _SCENE_NAME_DELETE_FLASH/SCENE
  +--> _DELETE_SCENE_LIST_NAME/SCENE
  +--> PRINTF/PRINTF

_SCENE_NAME_DELETE_FLASH/SCENE                ----- -----  ----- -----  C85CH C85CH
  +--> SCENE
  +--> _T5L_FLASH/T5LLIB

_ADD_MODULE_SCENE_INFOR/SCENE                 ----- -----  ----- -----  C853H C860H
  +--> SCENE
  +--> _GET_KEY_VALUE/MODULE
  +--> GET_BLANK_SCENE_INFOR_INDEX/SCENE
  +--> _CLEAR_KEY_VALUE/MODULE
  +--> _PIC_SET/MODULE
  +--> _MODULE_RELAY_SCENE_SET/SCENE
  +--> _MODULE_DIM_SCENE_SET/SCENE
  +--> _DISPLAY_SCENE_INFOR/SCENE
  +--> _WRITE_DGUS/SYS

GET_BLANK_SCENE_INFOR_INDEX/SCENE             ----- -----  ----- -----  ----- -----
  +--> SCENE

_MODULE_RELAY_SCENE_SET/SCENE                 ----- -----  ----- -----  C861H C88CH
  +--> SCENE
  +--> _READ_DGUSII_VP/T5LLIB
  +--> PRINTF/PRINTF

_MODULE_DIM_SCENE_SET/SCENE                   ----- -----  ----- -----  C861H C87EH
  +--> SCENE
  +--> _READ_DGUSII_VP/T5LLIB
  +--> _PRINTF_TAB/SYS

_MODULE_SCENE_SELECT_CTRL/SCENE               ----- -----  ----- -----  C853H C859H
  +--> SCENE
  +--> _GET_KEY_VALUE/MODULE
  +--> PRINTF/PRINTF
  +--> _MODULE_SCENE_SELECT/SCENE
  +--> _CLEAR_KEY_VALUE/MODULE
LX51 LINKER/LOCATER V4.66.97.0                                                        09/27/2023  17:05:17  PAGE 25



_MODULE_SCENE_SELECT/SCENE                    ----- -----  ----- -----  C85AH C85CH
  +--> SCENE
  +--> _NORFLASH_READ/NOR_FLASH
  +--> _DISPLAY_SCENE_INTERFACE/SCENE

_DISPLAY_SCENE_INTERFACE/SCENE                ----- -----  ----- -----  C85FH C861H
  +--> SCENE
  +--> _DISPLAY_RELAY_SCENE_INTERFACE/SCENE
  +--> _DISPLAY_DIM_SCENE_INTERFACE/SCENE
  +--> PRINTF/PRINTF

_DISPLAY_RELAY_SCENE_INTERFACE/SCENE          ----- -----  ----- -----  C862H C864H
  +--> SCENE
  +--> _WRITE_DGUS/SYS
  +--> _WRITE_DGUSII_VP/T5LLIB
  +--> _PIC_SET/MODULE

_DISPLAY_DIM_SCENE_INTERFACE/SCENE            ----- -----  ----- -----  C862H C864H
  +--> SCENE
  +--> _WRITE_DGUSII_VP/T5LLIB
  +--> _PIC_SET/MODULE
  +--> _WRITE_DGUS/SYS

_SCENE_INFOR_KEY_CTRL/SCENE                   ----- -----  ----- -----  C853H C85AH
  +--> SCENE
  +--> _SCENE_INFOR_CONFIRM_CTRL/SCENE
  +--> _SCENE_INFOR_CANCEL_CTRL/SCENE
  +--> _SCENE_INFOR_MODIFY_CTRL/SCENE
  +--> _CLEAR_KEY_VALUE/MODULE
  +--> GET_MODULE_SCENE_EDIT_STA/SCENE
  +--> PRINTF/PRINTF
  +--> _SCENE_EDIT_STA_CLEAR_INFOR/SCENE
  +--> _SCENE_INFOR_CLEAR_CTRL/SCENE
  +--> _GET_KEY_VALUE/MODULE
  +--> _SCENE_INFOR_DELETE_CTRL/SCENE

_SCENE_INFOR_CONFIRM_CTRL/SCENE               ----- -----  ----- -----  C85BH C85DH
  +--> IF_ALL_SCENE_INFOR_BLANK/SCENE
  +--> SCENE
  +--> _POP_MENU_KEY_CTRL/SCENE
  +--> PRINTF/PRINTF
  +--> _SCENE_INFOR_SAVE_FLASH/SCENE
  +--> _SCENE_NAME_SAVE/SCENE
  +--> _PIC_SET/MODULE

IF_ALL_SCENE_INFOR_BLANK/SCENE                ----- -----  ----- -----  C85EH C85FH
  +--> SCENE

_SCENE_INFOR_SAVE_FLASH/SCENE                 ----- -----  ----- -----  ----- -----
  +--> _PRINTF_TEMP_SCENC_INFOR/SCENE
  +--> SCENE
  +--> _NORFLASH_WRITE/NOR_FLASH
  +--> PRINTF/PRINTF

_PRINTF_TEMP_SCENC_INFOR/SCENE                ----- -----  ----- -----  ----- -----

_SCENE_NAME_SAVE/SCENE                        ----- -----  ----- -----  C85EH C860H
  +--> _SCENE_NAME_WRITE_DGUSII/SCENE
  +--> _SCENE_NAME_SAVE_FLASH/SCENE

_SCENE_NAME_WRITE_DGUSII/SCENE                ----- -----  ----- -----  C861H C863H
  +--> SCENE
  +--> _READ_DGUSII_VP/T5LLIB
  +--> _WRITE_DGUSII_VP/T5LLIB
LX51 LINKER/LOCATER V4.66.97.0                                                        09/27/2023  17:05:17  PAGE 26



_SCENE_NAME_SAVE_FLASH/SCENE                  ----- -----  ----- -----  ----- -----
  +--> SCENE
  +--> _NORFLASH_WRITE/NOR_FLASH

_SCENE_INFOR_CANCEL_CTRL/SCENE                ----- -----  ----- -----  C85BH C860H
  +--> SCENE
  +--> CLEAR_TEMP_SCENC_INFOR/SCENE
  +--> CLEAR_ALL_SCENE_INFOR/SCENE
  +--> _CLEAR_ALL_MODULE_VAR_EN/SCENE
  +--> _PIC_SET/MODULE

_SCENE_INFOR_MODIFY_CTRL/SCENE                ----- -----  ----- -----  C85BH C85EH
  +--> SCENE
  +--> GET_SCENE_INFOR_SELECT_SEQUENCE_NUMBER/SCENE
  +--> _NORFLASH_READ/NOR_FLASH
  +--> _DISPLAY_SCENE_INTERFACE/SCENE
  +--> _MODULE_SCENE_INFOR_DIS/SCENE

GET_SCENE_INFOR_SELECT_SEQUENCE_NUMBER/S+     ----- -----  ----- -----  ----- -----
... CENE
  +--> _GET_BOX_SELECT_NUMBER/MODULE

_MODULE_SCENE_INFOR_DIS/SCENE                 ----- -----  ----- -----  C85FH C882H
  +--> SCENE
  +--> _WRITE_DGUSII_VP/T5LLIB

GET_MODULE_SCENE_EDIT_STA/SCENE               ----- -----  ----- -----  ----- -----

_SCENE_EDIT_STA_CLEAR_INFOR/SCENE             ----- -----  ----- -----  C85BH C860H
  +--> SCENE
  +--> _CLEAR_ALL_MODULE_VAR_EN/SCENE
  +--> _T5L_FLASH/T5LLIB
  +--> CLEAR_ALL_SCENE_INFOR/SCENE
  +--> _SCENE_NAME_SAVE_FLASH/SCENE
  +--> PRINTF/PRINTF

_SCENE_INFOR_CLEAR_CTRL/SCENE                 ----- -----  ----- -----  C85BH C860H
  +--> SCENE
  +--> CLEAR_TEMP_SCENC_INFOR/SCENE
  +--> CLEAR_ALL_SCENE_INFOR/SCENE
  +--> _CLEAR_ALL_MODULE_VAR_EN/SCENE

_SCENE_INFOR_DELETE_CTRL/SCENE                ----- -----  ----- -----  C85BH C85DH
  +--> GET_SCENE_INFOR_SELECT_SEQUENCE_NUMBER/SCENE
  +--> SCENE
  +--> _CLEAR_SINGLE_SCENE/SCENE
  +--> GET_MODULE_SCENE_EDIT_STA/SCENE
  +--> _MODULE_RELAY_SCENE_SEND/SCENE
  +--> _MODULE_DIM_SCENE_SEND/SCENE
  +--> _SCENE_INFOR_DELETE_FLASH/SCENE
  +--> _SCENE_NAME_SAVE_FLASH/SCENE
  +--> _CLEAR_SINGLE_MODULE_VAR_EN/SCENE
  +--> PRINTF/PRINTF

_MODULE_RELAY_SCENE_SEND/SCENE                ----- -----  ----- -----  C8B8H C8BAH
  +--> SCENE
  +--> _SET_MASTER_SEND_HR/MB_USER
  +--> _PACK_DATA_SEND/MB_USER

_MODULE_DIM_SCENE_SEND/SCENE                  ----- -----  ----- -----  C8B8H C8BAH
  +--> SCENE
  +--> _SET_MASTER_SEND_HR/MB_USER
  +--> _PACK_DATA_SEND/MB_USER

LX51 LINKER/LOCATER V4.66.97.0                                                        09/27/2023  17:05:17  PAGE 27


_SCENE_INFOR_DELETE_FLASH/SCENE               ----- -----  ----- -----  ----- -----
  +--> SCENE
  +--> _T5L_FLASH/T5LLIB

SET_SCENE_INFOR_PAGE/SCENE                    ----- -----  ----- -----  C853H C854H
  +--> SCENE
  +--> _GET_KEY_VALUE/MODULE
  +--> _CLEAR_KEY_VALUE/MODULE

SCENE_TOUCH_RUN/SCENE                         ----- -----  ----- -----  C853H C876H
  +--> SCENE
  +--> _GET_KEY_VALUE/MODULE
  +--> _NORFLASH_READ/NOR_FLASH
  +--> _SET_MASTER_SEND_HR/MB_USER
  +--> _PACK_DATA_SEND/MB_USER
  +--> _CLEAR_KEY_VALUE/MODULE

SELECT_PASSWORD_ENABLE/MODULE                 ----- -----  ----- -----  C853H C855H
  +--> MODULE
  +--> _GET_KEY_VALUE/MODULE
  +--> _CHECK_OR_NOT_FRAME/MODULE
  +--> _CHECK_CONSTANT/SYS
  +--> _T5L_FLASH/T5LLIB
  +--> _CLEAR_KEY_VALUE/MODULE

LOCK_SCREEN_ENABLE_CTRL/MODULE                ----- -----  ----- -----  C853H C855H
  +--> MODULE
  +--> _GET_KEY_VALUE/MODULE
  +--> _CHECK_OR_NOT_FRAME/MODULE
  +--> _CHECK_CONSTANT/SYS
  +--> _BACK_LIGHT_CTRL/SCENE
  +--> PRINTF/PRINTF
  +--> SAVE_BACK_LIGHT_PARAMETERS/MODULE
  +--> _CLEAR_KEY_VALUE/MODULE

RIGHT_NUMBER_OF_DAYS_CTRL/TIME_SCENE          ----- -----  ----- -----  ----- -----
  +--> _SET_THE_RIGHT_NUMBER_OF_DAYS/TIME_SCENE

_SET_THE_RIGHT_NUMBER_OF_DAYS/TIME_SCENE      ----- -----  ----- -----  C853H C85AH
  +--> TIME_SCENE
  +--> _READ_DGUS/SYS
  +--> _SYS_DELAY_ABOUT_MS/SYS
  +--> _GET_DAYS_IN_MONTH/SYS
  +--> _WRITE_DGUS/SYS

_GET_DAYS_IN_MONTH/SYS                        ----- -----  ----- -----  C85BH C85BH
  +--> PRINTF/PRINTF

_DIM_CTRL/MODULE                              ----- -----  ----- -----  C853H C855H
  +--> MODULE
  +--> _DIM_SINGLE_CTRL/MODULE
  +--> _DIM_ALL_CTRL/MODULE
  +--> _DIM_REFESH/MODULE

_DIM_SINGLE_CTRL/MODULE                       ----- -----  ----- -----  C856H C86FH
  +--> MODULE
  +--> PRINTF/PRINTF
  +--> _WRITE_DGUS/SYS
  +--> READ_PIC/MODULE
  +--> _READ_DGUSII_VP/T5LLIB
  +--> _PRINTF_TAB/SYS
  +--> _WRITE_DGUSII_VP/T5LLIB
  +--> _SET_MASTER_SEND_HR/MB_USER
  +--> _PACK_DATA_SEND/MB_USER

LX51 LINKER/LOCATER V4.66.97.0                                                        09/27/2023  17:05:17  PAGE 28


_DIM_ALL_CTRL/MODULE                          ----- -----  ----- -----  C856H C85AH
  +--> MODULE
  +--> _GET_KEY_VALUE/MODULE
  +--> _SET_MASTER_SEND_HR/MB_USER
  +--> _PACK_DATA_SEND/MB_USER
  +--> _CLEAR_KEY_VALUE/MODULE
  +--> _WRITE_DGUSII_VP/T5LLIB

_DIM_REFESH/MODULE                            ----- -----  ----- -----  C856H C85AH
  +--> MODULE
  +--> _GET_KEY_VALUE/MODULE
  +--> _PACK_DATA_SEND/MB_USER
  +--> _CLEAR_KEY_VALUE/MODULE

MODULE_SCENE_SEND/SCENE                       ----- -----  ----- -----  ----- -----
  +--> SCENE
  +--> _MODULE_RELAY_SCENE_SEND/SCENE
  +--> _MODULE_DIM_SCENE_SEND/SCENE
  +--> PRINTF/PRINTF
  +--> CLEAR_TEMP_SCENC_INFOR/SCENE
  +--> CLEAR_ALL_SCENE_INFOR/SCENE
  +--> _PIC_SET/MODULE

_SCENE_DELETE_CTRL_SEND/SCENE                 ----- -----  ----- -----  C853H C855H
  +--> SCENE
  +--> PRINTF/PRINTF
  +--> _POP_MENU_KEY_CTRL/SCENE
  +--> MBH_GETSTATE/MB_HOST
  +--> _MODULE_RELAY_SCENE_SEND/SCENE
  +--> _MODULE_DIM_SCENE_SEND/SCENE
  +--> CLEAR_TEMP_SCENC_INFOR/SCENE

MBH_GETSTATE/MB_HOST                          ----- -----  ----- -----  ----- -----

_SCENE_NAME_CTRL_SEND/SCENE                   ----- -----  ----- -----  C853H C8B7H
  +--> SCENE
  +--> IF_ALL_SCENE_NAME_BLANK/SCENE
  +--> _POP_MENU_KEY_CTRL/SCENE
  +--> _MODULE_RELAY_SCENE_SEND/SCENE
  +--> _MODULE_DIM_SCENE_SEND/SCENE
  +--> PRINTF/PRINTF

MODULE_TOUCH_CTRL/MODULE                      ----- -----  ----- -----  C853H C854H
  +--> MODULE
  +--> _GET_KEY_VALUE/MODULE
  +--> _MODULE_TOUCH/MODULE
  +--> _CLEAR_KEY_VALUE/MODULE

_MODULE_TOUCH/MODULE                          ----- -----  ----- -----  C855H C857H
  +--> MODULE
  +--> _NORFLASH_READ/NOR_FLASH
  +--> _DISPLAY_INTERFACE/MODULE

_DISPLAY_INTERFACE/MODULE                     ----- -----  ----- -----  C858H C85AH
  +--> MODULE
  +--> _DISPLAY_RELAY_INTERFACE/MODULE
  +--> _RELAY_READ/MODULE
  +--> CLEAR_TOUCH_STA/MODULE
  +--> _DISPLAY_DIM_INTERFACE/MODULE
  +--> _DIM_READ/MODULE
  +--> PRINTF/PRINTF

_DISPLAY_RELAY_INTERFACE/MODULE               ----- -----  ----- -----  C85BH C85DH
  +--> MODULE
  +--> _WRITE_DGUS/SYS
LX51 LINKER/LOCATER V4.66.97.0                                                        09/27/2023  17:05:17  PAGE 29


  +--> _WRITE_DGUSII_VP/T5LLIB
  +--> _RELAY_INTERFACE_TRIGGER/MODULE

_RELAY_INTERFACE_TRIGGER/MODULE               ----- -----  ----- -----  C85EH C865H
  +--> MODULE
  +--> _PIC_SET/MODULE

_RELAY_READ/MODULE                            ----- -----  ----- -----  C85BH C85DH
  +--> MODULE
  +--> _PACK_DATA_SEND/MB_USER

CLEAR_TOUCH_STA/MODULE                        ----- -----  ----- -----  C85BH C862H
  +--> MODULE
  +--> _WRITE_DGUSII_VP/T5LLIB

_DISPLAY_DIM_INTERFACE/MODULE                 ----- -----  ----- -----  C85BH C85DH
  +--> MODULE
  +--> _WRITE_DGUS/SYS
  +--> _WRITE_DGUSII_VP/T5LLIB
  +--> _PIC_SET/MODULE

_DIM_READ/MODULE                              ----- -----  ----- -----  C85BH C85DH
  +--> _DELAY_US/MODULE
  +--> MODULE
  +--> _PACK_DATA_SEND/MB_USER

MBH_UARTTXISR/MB_HOST                         ----- -----  ----- -----  ----- -----
  +--> _MB_PORT_UARTENABLE/MB_PORT
  +--> MB_PORT_TIMERENABLE/MB_PORT
  +--> MB_SET_RECEIVE_STATE/MB_PORT
  +--> MB_HOST
  +--> _MB_PORT_PUTCHAR/MB_PORT

MB_PORT_TIMERENABLE/MB_PORT                   ----- -----  ----- -----  ----- -----

MB_SET_RECEIVE_STATE/MB_PORT                  ----- -----  ----- -----  ----- -----

_MB_PORT_PUTCHAR/MB_PORT                      ----- -----  ----- -----  ----- -----
  +--> MB_SET_SEND_STATE/MB_PORT

MB_SET_SEND_STATE/MB_PORT                     ----- -----  ----- -----  ----- -----

MBH_POLL/MB_HOST                              ----- -----  ----- -----  ----- -----
  +--> MB_HOST
  +--> _MB_CRC16/MB_CRC
  +--> _MB_PORT_UARTENABLE/MB_PORT
  +--> PRINTF/PRINTF
  +--> _MBH_HOOK_TIMESERR/MB_HOOK
  +--> _MBH_EXEC/MB_HOST

_MBH_HOOK_TIMESERR/MB_HOOK                    ----- -----  ----- -----  C853H C854H

_MBH_EXEC/MB_HOST                             ----- -----  ----- -----  C853H C85AH
  +--> MB_HOST
  +--> _MBH_HOOK_REC01/MB_HOOK
  +--> _MBH_HOOK_REC02/MB_HOOK
  +--> _MBH_HOOK_REC03/MB_HOOK
  +--> _MBH_HOOK_REC04/MB_HOOK
  +--> _MBH_HOOK_REC05/MB_HOOK
  +--> _MBH_HOOK_REC06/MB_HOOK
  +--> _MBH_HOOK_REC15/MB_HOOK
  +--> _MBH_HOOK_REC16/MB_HOOK

_MBH_HOOK_REC01/MB_HOOK                       ----- -----  ----- -----  C85BH C861H

LX51 LINKER/LOCATER V4.66.97.0                                                        09/27/2023  17:05:17  PAGE 30


_MBH_HOOK_REC02/MB_HOOK                       ----- -----  ----- -----  C85BH C861H

_MBH_HOOK_REC03/MB_HOOK                       ----- -----  ----- -----  C85BH C861H
  +--> _SHORT_COPY_XCH/MB_USER

_MBH_HOOK_REC04/MB_HOOK                       ----- -----  ----- -----  C85BH C861H

_MBH_HOOK_REC05/MB_HOOK                       ----- -----  ----- -----  C85BH C861H

_MBH_HOOK_REC06/MB_HOOK                       ----- -----  ----- -----  C85BH C861H

_MBH_HOOK_REC15/MB_HOOK                       ----- -----  ----- -----  C85BH C861H

_MBH_HOOK_REC16/MB_HOOK                       ----- -----  ----- -----  C85BH C861H

FACTORY_DATA_RESET/MODULE                     ----- -----  ----- -----  C853H C859H
  +--> MODULE
  +--> _GET_KEY_VALUE/MODULE
  +--> _T5L_FLASH/T5LLIB
  +--> _CLEAR_KEY_VALUE/MODULE
  +--> _WRITE_DGUSII_VP/T5LLIB

SET_SCENE_INFOR_SELECT_SEQUENCE_NUMBER/S+     ----- -----  ----- -----  ----- -----
... CENE
  +--> SCENE
  +--> _SET_BOX_SELECT/MODULE

SET_SCENE_NAME_SELECT_SEQUENCE_NUMBER/SC+     ----- -----  ----- -----  ----- -----
... ENE
  +--> SCENE
  +--> _SET_BOX_SELECT/MODULE

SET_TIMING_SCENE_NAME_SELECT_SEQUENCE_NU+     ----- -----  ----- -----  ----- -----
... MBER/TIME_SCENE
  +--> _SET_BOX_SELECT/MODULE

TIMING_SCENE_RUN/TIME_SCENE                   ----- -----  ----- -----  ----- -----
  +--> _MODULE_TIMING_SCENE_SELECT_CTRL/TIME_SCENE
  +--> _OPERAND_CTRL/TIME_SCENE
  +--> _TIMING_SCENE_INFOR_CTRL/TIME_SCENE
  +--> TIMING_ALL_ON_OFF_CTRL/TIME_SCENE
  +--> _TIMING_SCENE_SELECT_CTRL/TIME_SCENE
  +--> _TIMING_SCENE_EDIT/TIME_SCENE

_MODULE_TIMING_SCENE_SELECT_CTRL/TIME_SC+     ----- -----  ----- -----  C853H C857H
... ENE
  +--> TIME_SCENE
  +--> _GET_KEY_VALUE/MODULE
  +--> _MODULE_TIMING_SCENE_SELECT/TIME_SCENE
  +--> _CLEAR_KEY_VALUE/MODULE

_MODULE_TIMING_SCENE_SELECT/TIME_SCENE        ----- -----  ----- -----  C861H C863H
  +--> TIME_SCENE
  +--> _NORFLASH_READ/NOR_FLASH
  +--> _DISPLAY_RELAY_TIMING_SCENE_INTERFACE/TIME_SCENE
  +--> _DISPLAY_DIM_TIMING_SCENE_INTERFACE/TIME_SCENE
  +--> PRINTF/PRINTF

_DISPLAY_RELAY_TIMING_SCENE_INTERFACE/TI+     ----- -----  ----- -----  C864H C866H
... ME_SCENE
  +--> TIME_SCENE
  +--> _WRITE_DGUS/SYS
  +--> _WRITE_DGUSII_VP/T5LLIB
  +--> _PIC_SET/MODULE

LX51 LINKER/LOCATER V4.66.97.0                                                        09/27/2023  17:05:17  PAGE 31


_DISPLAY_DIM_TIMING_SCENE_INTERFACE/TIME+     ----- -----  ----- -----  C864H C866H
... _SCENE
  +--> TIME_SCENE
  +--> _WRITE_DGUS/SYS
  +--> _WRITE_DGUSII_VP/T5LLIB
  +--> _PIC_SET/MODULE

_OPERAND_CTRL/TIME_SCENE                      ----- -----  ----- -----  C853H C85AH
  +--> TIME_SCENE
  +--> _GET_KEY_VALUE/MODULE
  +--> _PIC_SET/MODULE
  +--> _WRITE_DGUS/SYS
  +--> _CLEAR_KEY_VALUE/MODULE

_TIMING_SCENE_INFOR_CTRL/TIME_SCENE           ----- -----  ----- -----  C853H C85DH
  +--> TIME_SCENE
  +--> _GET_KEY_VALUE/MODULE
  +--> _SCENE_INFOR_MODULE_CONFIM_KEY/TIME_SCENE
  +--> _ALL_ON_OFF_SCENE_CONFIM_KEY/TIME_SCENE
  +--> _SPECIFIED_SCENE_CONFIM_KEY/TIME_SCENE
  +--> SCENE_INFOR_CANCLE_KEY/TIME_SCENE
  +--> _CLEAR_KEY_VALUE/MODULE

_SCENE_INFOR_MODULE_CONFIM_KEY/TIME_SCEN+     ----- -----  ----- -----  C85EH C866H
... E
  +--> TIME_SCENE
  +--> _GET_TIMING_SET_INFOR/TIME_SCENE
  +--> _TIMING_MODULE_SCENE_SET/TIME_SCENE
  +--> _DISPLAY_TIMING_SCENE_INFOR/TIME_SCENE
  +--> _TIMING_SCENE_INFOR_SAVE_FLASH/TIME_SCENE
  +--> _PRINTF_TEMP_TIMING_CONTENT/TIME_SCENE
  +--> CLEAR_TIMING_SCENE_VAR/TIME_SCENE
  +--> _PIC_SET/MODULE

_GET_TIMING_SET_INFOR/TIME_SCENE              ----- -----  ----- -----  C867H C872H
  +--> GET_TIMING_DATA_ENABLE/TIME_SCENE
  +--> _GET_TIMING_WEEK_ENABLE/TIME_SCENE
  +--> TIME_SCENE
  +--> _READ_DGUS/SYS

GET_TIMING_DATA_ENABLE/TIME_SCENE             ----- -----  ----- -----  ----- -----
  +--> _READ_DGUS/SYS

_TIMING_MODULE_SCENE_SET/TIME_SCENE           ----- -----  ----- -----  C867H C86CH
  +--> TIME_SCENE
  +--> _TIMING_MODULE_RELAY_SCENE_SET/TIME_SCENE
  +--> _TIMING_MODULE_DIM_SCENE_SET/TIME_SCENE
  +--> PRINTF/PRINTF

_TIMING_MODULE_RELAY_SCENE_SET/TIME_SCEN+     ----- -----  ----- -----  C86DH C892H
... E
  +--> TIME_SCENE
  +--> _READ_DGUSII_VP/T5LLIB
  +--> PRINTF/PRINTF

_TIMING_MODULE_DIM_SCENE_SET/TIME_SCENE       ----- -----  ----- -----  C86DH C884H
  +--> TIME_SCENE
  +--> _READ_DGUSII_VP/T5LLIB

_TIMING_SCENE_INFOR_SAVE_FLASH/TIME_SCEN+     ----- -----  ----- -----  ----- -----
... E
  +--> TIME_SCENE
  +--> _NORFLASH_WRITE/NOR_FLASH
  +--> PRINTF/PRINTF

LX51 LINKER/LOCATER V4.66.97.0                                                        09/27/2023  17:05:17  PAGE 32


_PRINTF_TEMP_TIMING_CONTENT/TIME_SCENE        ----- -----  ----- -----  C867H C869H
  +--> TIME_SCENE
  +--> PRINTF/PRINTF

CLEAR_TIMING_SCENE_VAR/TIME_SCENE             ----- -----  ----- -----  C867H C867H
  +--> _WRITE_DGUS/SYS
  +--> TIME_SCENE

_ALL_ON_OFF_SCENE_CONFIM_KEY/TIME_SCENE       ----- -----  ----- -----  C85EH C866H
  +--> TIME_SCENE
  +--> _GET_TIMING_SET_INFOR/TIME_SCENE
  +--> _TIMING_ALL_ON_OFF_SCENE_SET/TIME_SCENE
  +--> _DISPLAY_TIMING_SCENE_INFOR/TIME_SCENE
  +--> _TIMING_SCENE_INFOR_SAVE_FLASH/TIME_SCENE
  +--> CLEAR_TIMING_SCENE_VAR/TIME_SCENE

_TIMING_ALL_ON_OFF_SCENE_SET/TIME_SCENE       ----- -----  ----- -----  C867H C86AH
  +--> _READ_DGUS/SYS
  +--> TIME_SCENE

_SPECIFIED_SCENE_CONFIM_KEY/TIME_SCENE        ----- -----  ----- -----  C85EH C866H
  +--> TIME_SCENE
  +--> _GET_TIMING_SET_INFOR/TIME_SCENE
  +--> _TIMING_SPECIFIED_SCENE_SET/TIME_SCENE
  +--> _DISPLAY_TIMING_SCENE_INFOR/TIME_SCENE
  +--> CLEAR_TIMING_SCENE_VAR/TIME_SCENE
  +--> _TIMING_SCENE_INFOR_SAVE_FLASH/TIME_SCENE

_TIMING_SPECIFIED_SCENE_SET/TIME_SCENE        ----- -----  ----- -----  C867H C869H
  +--> TIME_SCENE
  +--> PRINTF/PRINTF

SCENE_INFOR_CANCLE_KEY/TIME_SCENE             ----- -----  ----- -----  ----- -----
  +--> CLEAR_TIMING_SCENE_VAR/TIME_SCENE
  +--> _PIC_SET/MODULE

TIMING_ALL_ON_OFF_CTRL/TIME_SCENE             ----- -----  ----- -----  C853H C854H
  +--> TIME_SCENE
  +--> _GET_KEY_VALUE/MODULE
  +--> _WRITE_DGUS/SYS
  +--> _CLEAR_KEY_VALUE/MODULE

_TIMING_SCENE_SELECT_CTRL/TIME_SCENE          ----- -----  ----- -----  C853H C867H
  +--> TIME_SCENE
  +--> _GET_KEY_VALUE/MODULE
  +--> _READ_DGUSII_VP/T5LLIB
  +--> _WRITE_DGUSII_VP/T5LLIB
  +--> _CLEAR_KEY_VALUE/MODULE
  +--> PRINTF/PRINTF
  +--> _PIC_SET/MODULE

_TIMING_SCENE_EDIT/TIME_SCENE                 ----- -----  ----- -----  C853H C85AH
  +--> TIME_SCENE
  +--> _GET_KEY_VALUE/MODULE
  +--> _TIMING_SCENE_ADD/TIME_SCENE
  +--> _TIMING_SCENE_MODTIFY/TIME_SCENE
  +--> _CLEAR_KEY_VALUE/MODULE
  +--> _TIMING_SCENE_CLEAR/TIME_SCENE
  +--> _TIMING_SCENE_DELETE/TIME_SCENE

_TIMING_SCENE_ADD/TIME_SCENE                  ----- -----  ----- -----  C85BH C85DH
  +--> GET_BLANK_TIMING_SCENE_INFOR_INDEX/TIME_SCENE

GET_BLANK_TIMING_SCENE_INFOR_INDEX/TIME_+     ----- -----  ----- -----  C85EH C85EH
... SCENE
LX51 LINKER/LOCATER V4.66.97.0                                                        09/27/2023  17:05:17  PAGE 33


  +--> TIME_SCENE
  +--> PRINTF/PRINTF

_TIMING_SCENE_MODTIFY/TIME_SCENE              ----- -----  ----- -----  C85BH C860H
  +--> GET_TIMING_SCENE_NAME_SELECT_SEQUENCE_NUMBER/TIME_SCENE
  +--> TIME_SCENE
  +--> _COPY_TO_TEMP_TIMING_CONTENT/TIME_SCENE
  +--> _SET_TIMING_SET_INFOR/TIME_SCENE
  +--> PRINTF/PRINTF
  +--> _MODULE_TIMING_SCENE_SELECT/TIME_SCENE
  +--> _DIS_MODULE_SCENE_INFOR/TIME_SCENE
  +--> _DISPLAY_ALL_ON_OFF_INTERFACE/TIME_SCENE
  +--> _DISPLAY_SCENE_TIME_INTERFACE/TIME_SCENE
  +--> _WRITE_DGUS/SYS

GET_TIMING_SCENE_NAME_SELECT_SEQUENCE_NU+     ----- -----  ----- -----  ----- -----
... MBER/TIME_SCENE
  +--> _GET_BOX_SELECT_NUMBER/MODULE

_COPY_TO_TEMP_TIMING_CONTENT/TIME_SCENE       ----- -----  ----- -----  ----- -----

_SET_TIMING_SET_INFOR/TIME_SCENE              ----- -----  ----- -----  C861H C86CH
  +--> _SET_TIMING_DATA_ENABLE/TIME_SCENE
  +--> _SET_TIMING_WEEK_ENABLE/TIME_SCENE
  +--> TIME_SCENE
  +--> _WRITE_DGUS/SYS

_SET_TIMING_DATA_ENABLE/TIME_SCENE            ----- -----  ----- -----  C86DH C86FH
  +--> TIME_SCENE
  +--> PRINTF/PRINTF
  +--> _WRITE_DGUS/SYS

_SET_TIMING_WEEK_ENABLE/TIME_SCENE            ----- -----  ----- -----  ----- -----
  +--> _DISPLAY_WEEK_PARAMETER/MODULE

_DIS_MODULE_SCENE_INFOR/TIME_SCENE            ----- -----  ----- -----  C861H C884H
  +--> TIME_SCENE
  +--> _WRITE_DGUSII_VP/T5LLIB

_DISPLAY_ALL_ON_OFF_INTERFACE/TIME_SCENE      ----- -----  ----- -----  C861H C863H
  +--> _PIC_SET/MODULE
  +--> TIME_SCENE
  +--> _WRITE_DGUS/SYS

_DISPLAY_SCENE_TIME_INTERFACE/TIME_SCENE      ----- -----  ----- -----  C861H C873H
  +--> TIME_SCENE
  +--> _PIC_SET/MODULE
  +--> _READ_DGUSII_VP/T5LLIB
  +--> _WRITE_DGUSII_VP/T5LLIB

_TIMING_SCENE_CLEAR/TIME_SCENE                ----- -----  ----- -----  C85BH C85FH
  +--> TIME_SCENE
  +--> _GET_KEY_VALUE/MODULE
  +--> _TIMING_SCENE_INFOR_CLEAR/TIME_SCENE
  +--> _CLEAR_KEY_VALUE/MODULE
  +--> PRINTF/PRINTF

_TIMING_SCENE_INFOR_CLEAR/TIME_SCENE          ----- -----  ----- -----  C860H C862H
  +--> _T5L_FLASH/T5LLIB
  +--> _CLEAR_ALL_TIMING_SCENE_CONTENT/TIME_SCENE

_CLEAR_ALL_TIMING_SCENE_CONTENT/TIME_SCE+     ----- -----  ----- -----  C863H C866H
... NE
  +--> TIME_SCENE
  +--> _CLEAR_SINGLE_TIMING_SCENE_CONTENT/TIME_SCENE
LX51 LINKER/LOCATER V4.66.97.0                                                        09/27/2023  17:05:17  PAGE 34



_CLEAR_SINGLE_TIMING_SCENE_CONTENT/TIME_+     ----- -----  ----- -----  ----- -----
... SCENE

_TIMING_SCENE_DELETE/TIME_SCENE               ----- -----  ----- -----  C85BH C862H
  +--> TIME_SCENE
  +--> _GET_KEY_VALUE/MODULE
  +--> _CLEAR_KEY_VALUE/MODULE
  +--> GET_TIMING_SCENE_NAME_SELECT_SEQUENCE_NUMBER/TIME_SCENE
  +--> _TIMING_SCENE_INFOR_DELETE/TIME_SCENE
  +--> PRINTF/PRINTF

_TIMING_SCENE_INFOR_DELETE/TIME_SCENE         ----- -----  ----- -----  C863H C868H
  +--> TIME_SCENE
  +--> _T5L_FLASH/T5LLIB
  +--> _CLEAR_SINGLE_TIMING_SCENE_CONTENT/TIME_SCENE

TIMED_AUTO_SEND/TIME_SCENE                    ----- -----  ----- -----  ----- -----
  +--> TIME_SCENE
  +--> MBH_GETSTATE/MB_HOST
  +--> _MODULE_TIMING_SEND/TIME_SCENE
  +--> _ALL_ON_OFF_TIMING_SEND/TIME_SCENE
  +--> PRINTF/PRINTF
  +--> _SCENE_TIMING_SEND/TIME_SCENE

_MODULE_TIMING_SEND/TIME_SCENE                ----- -----  ----- -----  C853H C855H
  +--> TIME_SCENE
  +--> _SET_MASTER_SEND_HR/MB_USER
  +--> PRINTF/PRINTF
  +--> _PACK_DATA_SEND/MB_USER

_ALL_ON_OFF_TIMING_SEND/TIME_SCENE            ----- -----  ----- -----  C853H C855H
  +--> TIME_SCENE
  +--> _SET_MASTER_SEND_HR/MB_USER
  +--> _PACK_DATA_SEND/MB_USER

_SCENE_TIMING_SEND/TIME_SCENE                 ----- -----  ----- -----  C853H C855H
  +--> TIME_SCENE
  +--> _SET_MASTER_SEND_HR/MB_USER
  +--> _PACK_DATA_SEND/MB_USER

TIMING_MODULE_PARAMETER_BATCH_SEND/MODUL+     ----- -----  ----- -----  ----- -----
... E
  +--> MODULE
  +--> MBH_GETSTATE/MB_HOST
  +--> _NORFLASH_READ/NOR_FLASH
  +--> _RUN_TIMING_MODULE_PARAMETER_SET/MODULE
  +--> CLEAR_BATCH_SET_VAR/MODULE

_RUN_TIMING_MODULE_PARAMETER_SET/MODULE       ----- -----  ----- -----  C853H C858H
  +--> _TIMING_MODULE_PARAMETER_ONGITUDE_LATITUDE_SEND/MODULE
  +--> _TIMING_MODULE_PARAMETER_TIME_SEND/MODULE
  +--> MODULE
  +--> _TIMING_MODULE_PARAMETER_WEEK_ENABLE_CHANNEL_SEND/MODULE
  +--> _TIMING_MODULE_PARAMETER_SOLAR_CHANNEL_SEND/MODULE
  +--> _TIMING_MODULE_PARAMETER_TIME_FRAME_CHANNEL_SEND/MODULE

CLEAR_BATCH_SET_VAR/MODULE                    ----- -----  ----- -----  ----- -----
  +--> _POP_MENU_KEY_CTRL/SCENE
  +--> PRINTF/PRINTF

AUTOMATICALLY_RETRIEVE/MODULE                 ----- -----  ----- -----  ----- -----
  +--> MBH_GETSTATE/MB_HOST
  +--> _READ_DEVICE_INFORMATION/MODULE
  +--> _POP_MENU_KEY_CTRL/SCENE
LX51 LINKER/LOCATER V4.66.97.0                                                        09/27/2023  17:05:17  PAGE 35


  +--> PRINTF/PRINTF

_READ_DEVICE_INFORMATION/MODULE               ----- -----  ----- -----  ----- -----
  +--> MODULE
  +--> _PACK_DATA_SEND/MB_USER

AUTO_ADD_MODULE/MODULE                        ----- -----  ----- -----  ----- -----
  +--> MODULE
  +--> _FIND_INDEX/MODULE
  +--> PRINTF/PRINTF
  +--> _READ_DGUSII_VP/T5LLIB
  +--> _NORFLASH_WRITE/NOR_FLASH
  +--> _WRITE_DGUSII_VP/T5LLIB
  +--> _DISPLAY_MODULE_INFORMATION/MODULE

?C_INITSEG                                    ----- -----  ----- -----  ----- -----

*** NEW ROOT ********************************

SYS_TIMER2_ISR/SYS                            ----- -----  ----- -----  ----- -----
  +--> SYS
  +--> MBH_TIMER3T5ISR/MB_HOST
  +--> MBH_RESEND_TIME_RUN/MB_HOOK

MBH_TIMER3T5ISR/MB_HOST                       ----- -----  ----- -----  ----- -----
  +--> MB_HOST

MBH_RESEND_TIME_RUN/MB_HOOK                   ----- -----  ----- -----  ----- -----

*** NEW ROOT ********************************

UART4_RISR/UART                               ----- -----  ----- -----  ----- -----
  +--> MBH_UARTRXISR/MB_HOST
  +--> UART

MBH_UARTRXISR/MB_HOST                         ----- -----  ----- -----  CBACH CBACH
  +--> _MB_PORT_GETCHAR/MB_PORT
  +--> MB_HOST
  +--> MB_PORT_TIMERENABLE/MB_PORT

_MB_PORT_GETCHAR/MB_PORT                      ----- -----  ----- -----  ----- -----

*** NEW ROOT ********************************

UART4_TISR/UART                               ----- -----  ----- -----  ----- -----

*** NEW ROOT ********************************

UART5_RISR/UART                               ----- -----  ----- -----  ----- -----
  +--> UART

*** NEW ROOT ********************************

UART5_TISR/UART                               ----- -----  ----- -----  ----- -----

*** NEW ROOT ********************************

UART3_RISR/UART                               ----- -----  ----- -----  ----- -----
  +--> UART

*** NEW ROOT ********************************

UART2_RISR/UART                               ----- -----  ----- -----  ----- -----
  +--> UART

LX51 LINKER/LOCATER V4.66.97.0                                                        09/27/2023  17:05:17  PAGE 36




PUBLIC SYMBOLS OF MODULE:  .\OBJ\T5L51 (?C_STARTUP)


      VALUE       CLASS    TYPE      PUBLIC SYMBOL NAME
      =================================================
      0200C85EH   XDATA    BYTE      ?_add_arr_data?BYTE
      0200C853H   XDATA    BYTE      ?_add_module_scene_infor?BYTE
      0200C85EH   XDATA    BYTE      ?_all_on_off_scene_confim_key?BYTE
*DEL*:00000000H   XDATA    BYTE      ?_base64_decode?BYTE
      0200C95BH   XDATA    BYTE      ?_deal_83_cmd?BYTE
      00000020H.0 BIT      BIT       ?_deal_uart_data?BIT
      0200C853H   XDATA    BYTE      ?_deal_uart_data?BYTE
      0200C875H   XDATA    BYTE      ?_display_solar_parameter?BYTE
      0200C876H   XDATA    BYTE      ?_get_channel_set?BYTE
      0200C867H   XDATA    BYTE      ?_get_timing_set_infor?BYTE
      0200C858H   XDATA    BYTE      ?_mb_port_uartInit?BYTE
      0200C853H   XDATA    BYTE      ?_mbh_exec?BYTE
      0200C85BH   XDATA    BYTE      ?_mbh_hook_rec01?BYTE
      0200C85BH   XDATA    BYTE      ?_mbh_hook_rec02?BYTE
      0200C85BH   XDATA    BYTE      ?_mbh_hook_rec03?BYTE
      0200C85BH   XDATA    BYTE      ?_mbh_hook_rec04?BYTE
      0200C85BH   XDATA    BYTE      ?_mbh_hook_rec05?BYTE
      0200C85BH   XDATA    BYTE      ?_mbh_hook_rec06?BYTE
      0200C85BH   XDATA    BYTE      ?_mbh_hook_rec15?BYTE
      0200C85BH   XDATA    BYTE      ?_mbh_hook_rec16?BYTE
      0200C853H   XDATA    BYTE      ?_mbh_init?BYTE
      0200C8C6H   XDATA    BYTE      ?_mbh_send?BYTE
      0200C8C3H   XDATA    BYTE      ?_modtify_mb_infom?BYTE
      0200C861H   XDATA    BYTE      ?_module_dim_scene_set?BYTE
      0200C861H   XDATA    BYTE      ?_module_relay_scene_set?BYTE
      0200CB84H   XDATA    BYTE      ?_norflash_read?BYTE
      0200C867H   XDATA    BYTE      ?_norflash_write?BYTE
      0200C853H   XDATA    BYTE      ?_operand_ctrl?BYTE
      0200C8BBH   XDATA    BYTE      ?_pack_data_send?BYTE
      0200CB84H   XDATA    ---       ?_PRINTF517?BYTE
      0200CB84H   XDATA    ---       ?_PRINTF?BYTE
      0200CB8DH   XDATA    BYTE      ?_read_dgusii_vp?BYTE
      0200C85EH   XDATA    BYTE      ?_relay_interface_trigger?BYTE
      0200C853H   XDATA    BYTE      ?_run_timing_module_parameter_set?BYTE
      0200C85BH   XDATA    BYTE      ?_scene_edit_sta_clear_infor?BYTE
      0200C85BH   XDATA    BYTE      ?_scene_infor_cancel_ctrl?BYTE
      0200C85BH   XDATA    BYTE      ?_scene_infor_clear_ctrl?BYTE
      0200C853H   XDATA    BYTE      ?_scene_infor_key_ctrl?BYTE
      0200C85EH   XDATA    BYTE      ?_scene_infor_module_confim_key?BYTE
*DEL*:00000000H   XDATA    BYTE      ?_scene_init?BYTE
      0200C855H   XDATA    BYTE      ?_set_box_select?BYTE
      0200C8BBH   XDATA    BYTE      ?_set_master_send_hr?BYTE
      0200C85EH   XDATA    BYTE      ?_set_module_information?BYTE
      0200C861H   XDATA    BYTE      ?_set_timing_set_infor?BYTE
      0200C8D9H   XDATA    BYTE      ?_short_copy_xch?BYTE
      0200C85EH   XDATA    BYTE      ?_specified_scene_confim_key?BYTE
      0200CB84H   XDATA    ---       ?_SPRINTF517?BYTE
      0200CB84H   XDATA    ---       ?_SPRINTF?BYTE
      0200CB84H   XDATA    ---       ?_strncpy?BYTE
      0200CB84H   XDATA    BYTE      ?_strrpl?BYTE
      0200CB90H   XDATA    ---       ?_strstr?BYTE
      0200C869H   XDATA    BYTE      ?_T5L_Flash?BYTE
      0200C86DH   XDATA    BYTE      ?_timing_module_dim_scene_set?BYTE
      0200C85BH   XDATA    BYTE      ?_timing_module_parameter_solar_channel_send?BYTE
      0200C85BH   XDATA    BYTE      ?_timing_module_parameter_time_frame_channel_send?BYTE
      0200C85BH   XDATA    BYTE      ?_timing_module_parameter_week_enable_channel_send?BYTE
      0200C86DH   XDATA    BYTE      ?_timing_module_relay_scene_set?BYTE
      0200C867H   XDATA    BYTE      ?_timing_module_scene_set?BYTE
LX51 LINKER/LOCATER V4.66.97.0                                                        09/27/2023  17:05:17  PAGE 37


      0200C85BH   XDATA    BYTE      ?_timing_scene_delete?BYTE
      0200C853H   XDATA    BYTE      ?_timing_scene_edit?BYTE
      0200C853H   XDATA    BYTE      ?_timing_scene_infor_ctrl?BYTE
      0200C863H   XDATA    BYTE      ?_timing_scene_infor_delete?BYTE
      0200C85BH   XDATA    BYTE      ?_timing_scene_modtify?BYTE
*DEL*:00000000H.0 BIT      BIT       ?_uart_data_send?BIT
      0200CB8DH   XDATA    BYTE      ?_write_dgusii_vp?BYTE
      01002687H   CODE     ---       ?C?CCASE
      01002288H   CODE     ---       ?C?CLDOPTR
      0100226FH   CODE     ---       ?C?CLDPTR
      00000000H   NUMBER   ---       ?C?CODESEG
      01002249H   CODE     ---       ?C?COPY
      010022C7H   CODE     ---       ?C?CSTOPTR
      010022B5H   CODE     ---       ?C?CSTPTR
      01002386H   CODE     ---       ?C?IILDX
      0100239CH   CODE     ---       ?C?ILDIX
      010023DDH   CODE     ---       ?C?ILDOPTR
      010023B2H   CODE     ---       ?C?ILDPTR
      010022E9H   CODE     ---       ?C?IMUL
      01002434H   CODE     ---       ?C?ISTOPTR
      01002415H   CODE     ---       ?C?ISTPTR
      01002461H   CODE     ---       ?C?LADD
      01002574H   CODE     ---       ?C?LLDXDATA
      01002580H   CODE     ---       ?C?LLDXDATA0
      01002598H   CODE     ---       ?C?LSTKXDATA
      0100258CH   CODE     ---       ?C?LSTXDATA
      010029EEH   CODE     ---       ?C?MEMMOVE
      01002848H   CODE     ---       ?C?MEMSET
      010025C9H   CODE     ---       ?C?OFFXADD
      01002A3AH   CODE     ---       ?C?PLDCODE
      01002A16H   CODE     ---       ?C?PLDIDATA
      010025DEH   CODE     ---       ?C?PLDIXDATA
      010025FEH   CODE     ---       ?C?PLDOPTR
      01002A28H   CODE     ---       ?C?PLDPDATA
      010025D5H   CODE     ---       ?C?PLDXDATA
      01002A1FH   CODE     ---       ?C?PSTIDATA
      0100262EH   CODE     ---       ?C?PSTOPTR
      01002A31H   CODE     ---       ?C?PSTPDATA
      010025F5H   CODE     ---       ?C?PSTXDATA
      01002350H   CODE     ---       ?C?SIDIV
      01002560H   CODE     ---       ?C?SLSHR
      0100282BH   CODE     ---       ?C?STRCMP
      010022FBH   CODE     ---       ?C?UIDIV
      0100253CH   CODE     ---       ?C?ULCMP
      010024AAH   CODE     ---       ?C?ULDIV
      0100254DH   CODE     ---       ?C?ULSHR
      00000000H   NUMBER   ---       ?C?XDATASEG
      01009D82H   CODE     ---       ?C_START
      01000000H   CODE     ---       ?C_STARTUP
      0100C85BH   CODE     ---       _add_arr_data
      01005A8BH   CODE     ---       _add_module_scene_infor
      0100B2B6H   CODE     ---       _all_on_off_scene_confim_key
      0100AC92H   CODE     ---       _all_on_off_timing_send
      0100B561H   CODE     ---       _back_light_ctrl
*DEL*:00000000H   CODE     ---       _base64_decode
      0100D3BCH   CODE     ---       _BCD
      0100B9D4H   CODE     ---       _beep_ctrl
      01009FA0H   CODE     ---       _change_pwd
      0100D2D5H   CODE     ---       _check_constant
      0100CB48H   CODE     ---       _check_or_not_frame
      0100BE57H   CODE     ---       _check_whether_data_exists
      0100CE13H   CODE     ---       _check_whether_the_passwords_are_consistent
      0100C973H   CODE     ---       _clear_all_module_var_en
      0100CCB0H   CODE     ---       _clear_all_timing_scene_content
      0100C175H   CODE     ---       _clear_key_value
LX51 LINKER/LOCATER V4.66.97.0                                                        09/27/2023  17:05:17  PAGE 38


*DEL*:00000000H   CODE     ---       _clear_led_sta
      0100D439H   CODE     ---       _clear_pwd
      0100D465H   CODE     ---       _clear_single_module_var_en
      0100006EH   CODE     ---       _clear_single_scene
      0100D41FH   CODE     ---       _clear_single_timing_scene_content
      0100D35FH   CODE     ---       _copy_to_temp_timing_content
      0100BF9FH   CODE     ---       _crc16table
      01006DAEH   CODE     ---       _deal_82_cmd
      01006906H   CODE     ---       _deal_83_cmd
      0100867EH   CODE     ---       _deal_uart_data
      0100CF0BH   CODE     ---       _delay_us
      0100CD37H   CODE     ---       _delayus
      0100D214H   CODE     ---       _delete_arr_data
      0100D26FH   CODE     ---       _delete_scene_list_name
      010077EDH   CODE     ---       _dim_all_ctrl
      0100D1CCH   CODE     ---       _dim_ctrl
      0100D032H   CODE     ---       _dim_read
      0100C528H   CODE     ---       _dim_refesh
      01005F8EH   CODE     ---       _dim_single_ctrl
      01007D98H   CODE     ---       _dis_module_scene_infor
      0100C129H   CODE     ---       _display_all_on_off_interface
      0100BEFCH   CODE     ---       _display_dim_interface
      0100B85DH   CODE     ---       _display_dim_scene_interface
      0100AD71H   CODE     ---       _display_dim_timing_scene_interface
      01006C32H   CODE     ---       _display_edit_interface
      0100BE03H   CODE     ---       _display_interface
      010084B6H   CODE     ---       _display_module_information
      01008E88H   CODE     ---       _display_relay_interface
      0100A5C1H   CODE     ---       _display_relay_scene_interface
      01009B3AH   CODE     ---       _display_relay_timing_scene_interface
      01004B54H   CODE     ---       _display_scene_infor
      0100C49FH   CODE     ---       _display_scene_interface
      0100C256H   CODE     ---       _display_scene_time_interface
      0100B0C1H   CODE     ---       _display_solar_parameter
      0100B6E1H   CODE     ---       _display_time_frame_parameter
      01007B6DH   CODE     ---       _display_timing_module_parameter
      01002A46H   CODE     ---       _display_timing_scene_infor
      0100B05BH   CODE     ---       _display_week_parameter
      0100C2A1H   CODE     ---       _find_index
      0100CCDAH   CODE     ---       _find_nub_index
      0100C821H   CODE     ---       _get_box_select_number
      0100BDAEH   CODE     ---       _get_channel_set
      0100A426H   CODE     ---       _get_days_in_month
      0100D431H   CODE     ---       _get_key_value
*DEL*:00000000H   CODE     ---       _get_selected_sequence_number
      01009E69H   CODE     ---       _get_timing_set_infor
      0100988AH   CODE     ---       _get_timing_week_enable
      0100C502H   CODE     ---       _i2cbw
      0100CFB1H   CODE     ---       _if_scene_name_exists
      0100BFEFH   CODE     ---       _mb_crc16
      0100C6B4H   CODE     ---       _mb_data_init
      01000026H   CODE     ---       _mb_port_getchar
      0100D39CH   CODE     ---       _mb_port_putchar
      0100B127H   CODE     ---       _mb_port_timerInit
      0100D404H   CODE     ---       _mb_port_uartEnable
      0100D459H   CODE     ---       _mb_port_uartInit
      01007FADH   CODE     ---       _mbh_exec
      0100D3C5H   CODE     ---       _mbh_hook_rec01
      0100D3CEH   CODE     ---       _mbh_hook_rec02
      0100AEB6H   CODE     ---       _mbh_hook_rec03
      0100D3D7H   CODE     ---       _mbh_hook_rec04
      0100D3E0H   CODE     ---       _mbh_hook_rec05
      0100D3E9H   CODE     ---       _mbh_hook_rec06
      0100D3F2H   CODE     ---       _mbh_hook_rec15
      0100D3FBH   CODE     ---       _mbh_hook_rec16
LX51 LINKER/LOCATER V4.66.97.0                                                        09/27/2023  17:05:17  PAGE 39


      0100D2ADH   CODE     ---       _mbh_hook_timesErr
      0100CFF2H   CODE     ---       _mbh_init
      0100A538H   CODE     ---       _mbh_send
      0100659CH   CODE     ---       _modbus_master_send
      0100C40FH   CODE     ---       _modbus_send_data
      0100A15EH   CODE     ---       _modifying_module_information
      0100C0DCH   CODE     ---       _modtify_mb_infom
      010090C5H   CODE     ---       _module_dim_scene_send
      01007088H   CODE     ---       _module_dim_scene_set
      01009DC7H   CODE     ---       _module_relay_scene_send
      01004240H   CODE     ---       _module_relay_scene_set
      0100791AH   CODE     ---       _module_scene_infor_dis
      0100CD7BH   CODE     ---       _module_scene_select
      01009BDFH   CODE     ---       _module_scene_select_ctrl
      0100B79FH   CODE     ---       _module_timing_scene_select
      0100C8CDH   CODE     ---       _module_timing_scene_select_ctrl
      0100A399H   CODE     ---       _module_timing_send
      0100D19BH   CODE     ---       _module_touch
      0100B622H   CODE     ---       _norflash_read
      0100BD02H   CODE     ---       _norflash_write
*DEL*:00000000H   CODE     ---       _num_strchr
      01007EA3H   CODE     ---       _operand_ctrl
      0100C93CH   CODE     ---       _pack_data_send
      0100BC53H   CODE     ---       _pic_set
      0100ADDFH   CODE     ---       _pop_menu_key_ctrl
      01004F40H   CODE     ---       _PRINTF
      01004F40H   CODE     ---       _PRINTF517
      0100BB45H   CODE     ---       _printf_tab
      0100D3A7H   CODE     ---       _printf_temp_scenc_infor
      0100CEC5H   CODE     ---       _printf_temp_timing_content
*DEL*:00000000H   CODE     ---       _printf_timing_content
      0100D379H   CODE     ---       _putchar
      0100D2FAH   CODE     ---       _read_device_information
      0100C76DH   CODE     ---       _read_dgus
      0100BEAAH   CODE     ---       _read_dgusii_vp
      0100D352H   CODE     ---       _read_sys_time
*DEL*:00000000H   CODE     ---       _read_timing_module_parameter
      01008AAEH   CODE     ---       _relay_all_ctrl
      0100D1B4H   CODE     ---       _relay_ctrl
      0100C7E5H   CODE     ---       _relay_interface_trigger
      0100D2E8H   CODE     ---       _relay_read
      0100CAB0H   CODE     ---       _relay_refesh
      010063D1H   CODE     ---       _relay_single_ctrl
      0100A7D0H   CODE     ---       _rtc_config
      010080B6H   CODE     ---       _RTC_Get_Week
      0100A0CAH   CODE     ---       _rtc_get_week_1
      0100C3C7H   CODE     ---       _run_timing_module_parameter_set
      0100AE89H   CODE     ---       _Rx8130_Writ_Byte
      010061FAH   CODE     ---       _save_module_information
      0100972AH   CODE     ---       _scene_delete_ctrl_send
*DEL*:00000000H   CODE     ---       _scene_edit_clear_infor
      0100B8BBH   CODE     ---       _scene_edit_sta_clear_infor
      0100CBA5H   CODE     ---       _scene_infor_cancel_ctrl
      0100CE5BH   CODE     ---       _scene_infor_clear_ctrl
*DEL*:00000000H   CODE     ---       _scene_infor_clear_flash
      0100B500H   CODE     ---       _scene_infor_confirm_ctrl
      0100745AH   CODE     ---       _scene_infor_delete_ctrl
      0100C674H   CODE     ---       _scene_infor_delete_flash
      01008B77H   CODE     ---       _scene_infor_key_ctrl
      0100BAE9H   CODE     ---       _scene_infor_modify_ctrl
      01009F09H   CODE     ---       _scene_infor_module_confim_key
      0100CE37H   CODE     ---       _scene_infor_save_flash
*DEL*:00000000H   CODE     ---       _scene_init
      0100CC5AH   CODE     ---       _scene_name_add
      0100C9A9H   CODE     ---       _scene_name_clear
LX51 LINKER/LOCATER V4.66.97.0                                                        09/27/2023  17:05:17  PAGE 40


      01008DC7H   CODE     ---       _scene_name_ctrl_send
      0100C5F0H   CODE     ---       _scene_name_delete
      0100C08EH   CODE     ---       _scene_name_delete_flash
      01008D03H   CODE     ---       _scene_name_key_ctrl
      01007323H   CODE     ---       _scene_name_modify
      0100CDEEH   CODE     ---       _scene_name_read_flash
      0100D1FCH   CODE     ---       _scene_name_save
      0100D1E4H   CODE     ---       _scene_name_save_flash
      0100AF21H   CODE     ---       _scene_name_write_dgusii
      0100C632H   CODE     ---       _scene_timing_send
      010092FFH   CODE     ---       _select_either_or_single
      01008914H   CODE     ---       _set_box_select
      0100D0FEH   CODE     ---       _set_master_send_hr
      0100A74EH   CODE     ---       _set_module_information
*DEL*:00000000H   CODE     ---       _set_selected_sequence_number
      0100AA46H   CODE     ---       _set_the_right_number_of_days
      0100D012H   CODE     ---       _set_timing_data_enable
      01009A91H   CODE     ---       _set_timing_set_infor
      0100D32AH   CODE     ---       _set_timing_week_enable
      0100AABFH   CODE     ---       _short_copy_xch
      0100B37BH   CODE     ---       _specified_scene_confim_key
      01004F3AH   CODE     ---       _SPRINTF
      01004F3AH   CODE     ---       _SPRINTF517
      0100B43EH   CODE     ---       _starup_page_pwd
*DEL*:00000000H   CODE     ---       _STRCHR
      0100D284H   CODE     ---       _STRLEN
      0100AF8CH   CODE     ---       _strncpy
      010093B4H   CODE     ---       _strrpl
      01009184H   CODE     ---       _strstr
      01000003H   CODE     ---       _sys_delay_about_ms
      0100B740H   CODE     ---       _sys_led_config
      0100B682H   CODE     ---       _T5L_Flash
      0100BD58H   CODE     ---       _timing_all_on_off_scene_set
*DEL*:00000000H   CODE     ---       _timing_module_dim_scene_send
      0100758DH   CODE     ---       _timing_module_dim_scene_set
      01008F47H   CODE     ---       _timing_module_parameter_key_ctrl
      0100551EH   CODE     ---       _timing_module_parameter_ongitude_latitude_send
      0100BF4EH   CODE     ---       _timing_module_parameter_settings
      01007A44H   CODE     ---       _timing_module_parameter_solar_channel_send
      0100523AH   CODE     ---       _timing_module_parameter_time_frame_channel_send
      010095CAH   CODE     ---       _timing_module_parameter_time_send
      01008840H   CODE     ---       _timing_module_parameter_week_enable_channel_send
*DEL*:00000000H   CODE     ---       _timing_module_relay_scene_send
      010046E1H   CODE     ---       _timing_module_relay_scene_set
      0100CA13H   CODE     ---       _timing_module_scene_set
      0100D259H   CODE     ---       _timing_scene_add
      0100C56BH   CODE     ---       _timing_scene_clear
      0100AD02H   CODE     ---       _timing_scene_delete
      0100B919H   CODE     ---       _timing_scene_edit
      0100C457H   CODE     ---       _timing_scene_infor_clear
      010097DAH   CODE     ---       _timing_scene_infor_ctrl
      0100B319H   CODE     ---       _timing_scene_infor_delete
      0100D181H   CODE     ---       _timing_scene_infor_save_flash
      01006F1DH   CODE     ---       _timing_scene_modtify
      01009519H   CODE     ---       _timing_scene_select_ctrl
      0100C6F3H   CODE     ---       _timing_specified_scene_set
      0100C905H   CODE     ---       _Uart2_Init
      0100CF4EH   CODE     ---       _Uart4_Init
      0100CF6FH   CODE     ---       _Uart5_Init
*DEL*:00000000H   CODE     ---       _UART5_SendString
*DEL*:00000000H   CODE     ---       _uart_data_send
      0100BCBDH   CODE     ---       _uart_send_byte
*DEL*:00000000H   CODE     ---       _user_uart_send
      0100CA7CH   CODE     ---       _wait_ok
      0100C7A9H   CODE     ---       _write_dgus
LX51 LINKER/LOCATER V4.66.97.0                                                        09/27/2023  17:05:17  PAGE 41


      0100A850H   CODE     ---       _write_dgusii_vp
*SFR* 000000D0H.6 DATA     BIT       AC
*SFR* 000000E0H   DATA     BYTE      ACC
*SFR* 000000D8H   DATA     BYTE      ADCON
      0200AC1BH   XDATA    WORD      adr
*SFR* 000000F1H   DATA     BYTE      ADR_H
*SFR* 000000F4H   DATA     BYTE      ADR_INC
*SFR* 000000F3H   DATA     BYTE      ADR_L
*SFR* 000000F2H   DATA     BYTE      ADR_M
      01007C83H   CODE     ---       all_dim_on_off
      01009006H   CODE     ---       all_module_on_off
*SFR* 000000F8H.4 DATA     BIT       APP_ACK
*SFR* 000000F8H.6 DATA     BIT       APP_EN
*SFR* 000000F8H.7 DATA     BIT       APP_REQ
*SFR* 000000F8H.5 DATA     BIT       APP_RW
      010089E2H   CODE     ---       auto_add_module
      00000021H.1 BIT      BIT       Auto_data_upload
      0200AAB1H   XDATA    ---       auto_module
      01000086H   CODE     ---       automatically_retrieve
      0100CC86H   CODE     ---       automatically_retrieve_cmd
*SFR* 000000F0H   DATA     BYTE      B
      0100B1F0H   CODE     ---       back_light_set
      020083E9H   XDATA    ---       base64char
      0100967AH   CODE     ---       batch_set_time_parameters
      0100C5AEH   CODE     ---       black_screen_switches_to_home_page
*SFR* 000000D9H   DATA     BYTE      BODE4_DIV_H
*SFR* 000000E7H   DATA     BYTE      BODE4_DIV_L
*SFR* 000000AEH   DATA     BYTE      BODE5_DIV_H
*SFR* 000000AFH   DATA     BYTE      BODE5_DIV_L
      00000021H.3 BIT      BIT       Busy2
      00000021H.4 BIT      BIT       Busy3
      00000021H.5 BIT      BIT       Busy4
      00000021H.6 BIT      BIT       Busy5
      0100CEA2H   CODE     ---       cack
*SFR* 0000008FH   DATA     BYTE      CAN_CR
*SFR* 000000E8H   DATA     BYTE      CAN_ET
*SFR* 00000091H   DATA     BYTE      CAN_IR
      0200AD4DH   XDATA    WORD      channel
      0200AC21H   XDATA    BYTE      channel_number
      01009467H   CODE     ---       check_rtc_set
*SFR* 0000008EH   DATA     BYTE      CKCON
      01008C3EH   CODE     ---       clear_all_module_information
      0100D14DH   CODE     ---       clear_all_scene_infor
      0100CDC8H   CODE     ---       clear_batch_set_var
*DEL*:00000000H   CODE     ---       clear_mbh_rec_one_frame_sta
      0100D167H   CODE     ---       clear_scene_list_name
      010082BDH   CODE     ---       clear_select_module_information
      0100D31BH   CODE     ---       clear_temp_scenc_infor
      0100C20BH   CODE     ---       clear_timing_scene_var
      0100D08EH   CODE     ---       clear_touch_sta
      0100CB16H   CODE     ---       Clock
      0100D133H   CODE     ---       Clock_1
      0200CFADH   XDATA    WORD      Count_for_tx
      0200CFBAH   XDATA    WORD      Count_num1
      00000021H.2 BIT      BIT       Crc_check_flog
      0200CBADH   XDATA    ---       crctablehi
      0200CCADH   XDATA    ---       crctablelo
*SFR* 000000D0H.7 DATA     BIT       CY
*SFR* 00000095H   DATA     BYTE      D_PAGESEL
*SFR* 000000FDH   DATA     BYTE      DATA0
*SFR* 000000FCH   DATA     BYTE      DATA1
*SFR* 000000FBH   DATA     BYTE      DATA2
*SFR* 000000FAH   DATA     BYTE      DATA3
      0200A88EH   XDATA    ---       default_module_channel_name
      0100D232H   CODE     ---       Delayus
LX51 LINKER/LOCATER V4.66.97.0                                                        09/27/2023  17:05:17  PAGE 42


*SFR* 000000E6H   DATA     BYTE      DIV_MODE
*SFR* 00000093H   DATA     BYTE      DPC
*SFR* 00000083H   DATA     BYTE      DPH
*SFR* 00000082H   DATA     BYTE      DPL
*SFR* 000000A8H.7 DATA     BIT       EA
*SFR* 000000B8H.1 DATA     BIT       ECAN
      0200CFB6H   XDATA    DWORD     enter_code_time_cnt
*SFR* 000000A8H.4 DATA     BIT       ES2
*SFR* 000000B8H.3 DATA     BIT       ES4R
*SFR* 000000B8H.2 DATA     BIT       ES4T
*SFR* 000000B8H.5 DATA     BIT       ES5R
*SFR* 000000B8H.4 DATA     BIT       ES5T
*SFR* 000000A8H.1 DATA     BIT       ET0
*SFR* 000000A8H.3 DATA     BIT       ET1
*SFR* 000000A8H.5 DATA     BIT       ET2
*SFR* 000000A8H.0 DATA     BIT       EX0
*SFR* 000000A8H.2 DATA     BIT       EX1
*SFR* 000000FEH   DATA     BYTE      EXADR
*SFR* 000000FFH   DATA     BYTE      EXDATA
*SFR* 000000D0H.5 DATA     BIT       F0
*SFR* 000000D0H.1 DATA     BIT       F1
      0100ABACH   CODE     ---       factory_data_reset
      0200AE8CH   XDATA    ---       g_var_module
      0100D2C1H   CODE     ---       get_blank_scene_infor_index
      0100C894H   CODE     ---       get_blank_scene_name_index
      0100C9DEH   CODE     ---       get_blank_timing_scene_infor_index
*DEL*:00000000H   CODE     ---       get_mbh_rec_one_frame_sta
      0100D45FH   CODE     ---       get_module_scene_edit_sta
*DEL*:00000000H   CODE     ---       get_module_scene_module_select
      0100D40DH   CODE     ---       get_scene_infor_select_sequence_number
      0100D416H   CODE     ---       get_scene_name_select_sequence_number
      0100D440H   CODE     ---       get_timing_data_enable
      0100D428H   CODE     ---       get_timing_scene_name_select_sequence_number
*SFR* 000000A0H.7 DATA     BIT       Green_LED2
      02008001H   XDATA    ---       HR
      0100CDA2H   CODE     ---       i2cbr
      0100D119H   CODE     ---       i2cstart
      0100CFDCH   CODE     ---       i2cstop
      02008000H   XDATA    BYTE      i_test
*SFR* 00000088H.1 DATA     BIT       IE0
*SFR* 00000088H.3 DATA     BIT       IE1
*SFR* 000000A8H   DATA     BYTE      IEN0
*SFR* 000000B8H   DATA     BYTE      IEN1
*SFR* 0000009AH   DATA     BYTE      IEN2
      0100D0AAH   CODE     ---       if_all_scene_infor_blank
      0100CD54H   CODE     ---       if_all_scene_name_blank
      0200C6CEH   XDATA    BYTE      infor_clear_sta
      01009243H   CODE     ---       init_back_light_parameters
      0100A9CBH   CODE     ---       init_beep_enable
      0100CD03H   CODE     ---       init_flash_parameters
      0200AD6FH   XDATA    WORD      init_pwd
      0100AB36H   CODE     ---       init_pwd_f
      0100BB9FH   CODE     ---       Init_Rtc
      0100A27EH   CODE     ---       init_rtc_1
*SFR* 000000A9H   DATA     BYTE      IP0
*SFR* 000000B9H   DATA     BYTE      IP1
*SFR* 000000C0H   DATA     BYTE      IRCON
*SFR* 000000BFH   DATA     BYTE      IRCON2
*SFR* 00000088H.0 DATA     BIT       IT0
*SFR* 00000088H.2 DATA     BIT       IT1
      0200AC1FH   XDATA    WORD      key
      0200AD4FH   XDATA    ---       led_sta
      0100B49FH   CODE     ---       lock_screen_enable_ctrl
*SFR* 000000E5H   DATA     BYTE      MAC_MODE
      0100D30CH   CODE     ---       mack
LX51 LINKER/LOCATER V4.66.97.0                                                        09/27/2023  17:05:17  PAGE 43


      01005D10H   CODE     ---       main
      0200B3BAH   XDATA    ---       master_send_hr
      0200B3B4H   XDATA    ---       mb_master_func
*DEL*:00000000H   CODE     ---       mb_port_timerDisable
      0100005AH   CODE     ---       mb_port_timerEnable
      01000066H   CODE     ---       mb_set_receive_state
      0100D46BH   CODE     ---       mb_set_send_state
      0100D453H   CODE     ---       mbh_getState
      0100859AH   CODE     ---       mbh_poll
      0100D242H   CODE     ---       mbh_resend_time_run
      0100CAE3H   CODE     ---       mbh_timer3T5Isr
      0100C1C0H   CODE     ---       mbh_uartRxIsr
      0100AC1FH   CODE     ---       mbh_uartTxIsr
      0200B7BBH   XDATA    ---       mbHost
      0200B7BAH   XDATA    BYTE      mbhRecTimeout
      0100D345H   CODE     ---       mnak
      0200AE8BH   XDATA    BYTE      modfity_index
      0200A776H   XDATA    ---       module
      01006753H   CODE     ---       module_all_ctrl
      0200AD3CH   XDATA    ---       module_default_name
      0200AD71H   XDATA    WORD      module_key_nb_bak
      01009938H   CODE     ---       module_modify
      0200ABC9H   XDATA    ---       module_name_tab
      0200C6CFH   XDATA    ---       module_scene
      0200C0C3H   XDATA    ---       module_scene_select_key_bak
      0100A6CAH   CODE     ---       module_scene_send
      0200AC17H   XDATA    BYTE      module_select_sta_bak
      0200A98FH   XDATA    ---       module_tab
      0100CC2EH   CODE     ---       module_touch_ctrl
      0200AC19H   XDATA    WORD      module_type
      0200AC1DH   XDATA    WORD      module_type_bak
*SFR* 000000C9H   DATA     BYTE      MUX_SEL
      0200C037H   XDATA    ---       name_space
      0200CFBEH   XDATA    ---       norflash_cmd
      0200A774H   XDATA    WORD      num4
      0200AD3AH   XDATA    WORD      num_return
*SFR* 000000D0H.2 DATA     BIT       OV
*SFR* 000000D0H.0 DATA     BIT       P
*SFR* 00000080H   DATA     BYTE      P0
*SFR* 000000B7H   DATA     BYTE      P0MDOUT
*SFR* 00000090H   DATA     BYTE      P1
*SFR* 000000BCH   DATA     BYTE      P1MDOUT
*SFR* 000000A0H   DATA     BYTE      P2
*SFR* 000000BDH   DATA     BYTE      P2MDOUT
*SFR* 000000B0H   DATA     BYTE      P3
*SFR* 000000BEH   DATA     BYTE      P3MDOUT
*SFR* 00000094H   DATA     BYTE      PAGESEL
*SFR* 00000087H   DATA     BYTE      PCON
      0200CFB1H   XDATA    BYTE      pic_page
*SFR* 000000F9H   DATA     BYTE      PORTDRV
*SFR* 000000D0H   DATA     BYTE      PSW
      02009404H   XDATA    WORD      R_CN2
      02009406H   XDATA    WORD      R_CN3
      02009408H   XDATA    WORD      R_CN4
      0200940BH   XDATA    WORD      R_CN5
      0200940AH   XDATA    BYTE      R_OD2
      0200940DH   XDATA    BYTE      R_OD3
      0200940EH   XDATA    BYTE      R_OD4
      0200940FH   XDATA    BYTE      R_OD5
      020083F0H   XDATA    ---       R_u2
      02008BF0H   XDATA    ---       R_u3
      02008C04H   XDATA    ---       R_u5
*SFR* 000000F8H   DATA     BYTE      RAMMODE
      0100A4AFH   CODE     ---       rdtime
      0200CFBCH   XDATA    WORD      re_send_time
LX51 LINKER/LOCATER V4.66.97.0                                                        09/27/2023  17:05:17  PAGE 44


      0100A94EH   CODE     ---       read_dgus_time
      0100002EH   CODE     ---       read_pic
      010099E5H   CODE     ---       Read_Time
*SFR* 000000A0H.6 DATA     BIT       Red_LED1
      00000021H.7 BIT      BIT       Response_flog
      0100C335H   CODE     ---       return_page
      0100D3B2H   CODE     ---       return_to_previous_page
*SFR* 00000098H.0 DATA     BIT       RI2
      0100D070H   CODE     ---       right_number_of_days_ctrl
*SFR* 000000D0H.3 DATA     BIT       RS0
*SFR* 000000D0H.4 DATA     BIT       RS1
      00000022H.0 BIT      BIT       RTC_Flog
*SFR* 000000B0H.2 DATA     BIT       RTC_SCL
*SFR* 000000B0H.3 DATA     BIT       RTC_SDA
      010081BCH   CODE     ---       RTC_Set_Time
      0100CE7FH   CODE     ---       Rx8130_Cack
      0100D338H   CODE     ---       Rx8130_Mack
      0100D391H   CODE     ---       Rx8130_Mnak
      0100CC01H   CODE     ---       Rx8130_Read_Byte
      0100D299H   CODE     ---       Rx8130_Start
      0100CF3CH   CODE     ---       Rx8130_Stop
      0100B977H   CODE     ---       save_back_light_parameters
*SFR* 00000099H   DATA     BYTE      SBUF2
*SFR* 0000009CH   DATA     BYTE      SBUF3
*SFR* 0000009FH   DATA     BYTE      SBUF4_RX
*SFR* 0000009EH   DATA     BYTE      SBUF4_TX
*SFR* 000000ADH   DATA     BYTE      SBUF5_RX
*SFR* 000000ACH   DATA     BYTE      SBUF5_TX
      0200C01EH   XDATA    ---       scenc_infor
      0200C019H   XDATA    ---       scene_data
      0100D36CH   CODE     ---       scene_infor_cancle_key
      0200C00DH   XDATA    WORD      scene_infor_key_nb_bak
      0200C036H   XDATA    BYTE      scene_infor_page
      0200C6CCH   XDATA    BYTE      scene_infor_select_sta_bak
      0100CBD3H   CODE     ---       scene_modify
      0100A8CFH   CODE     ---       scene_name_clear_flash
      0200C00FH   XDATA    WORD      scene_name_key_nb_bak
      0200C6CDH   XDATA    BYTE      scene_name_select_sta_bak
      01009C82H   CODE     ---       scene_touch_run
      0200C011H   XDATA    ---       scene_vaild
*SFR* 00000098H   DATA     BYTE      SCON2
*SFR* 0000009BH   DATA     BYTE      SCON3
*SFR* 00000097H   DATA     BYTE      SCON4R
*SFR* 00000096H   DATA     BYTE      SCON4T
*SFR* 000000ABH   DATA     BYTE      SCON5R
*SFR* 000000A7H   DATA     BYTE      SCON5T
      01000056H   CODE     ---       SDA_IN
      0100005EH   CODE     ---       SDA_OUT
      0100A646H   CODE     ---       select_beep_enable
      0100C37FH   CODE     ---       select_either_or_all
      0100BA8DH   CODE     ---       select_password_enable
      0200CFC8H   XDATA    BYTE      Select_rtc
      0200AF9EH   XDATA    ---       send_table
      0100C2EBH   CODE     ---       set_channel_nb
      010076BEH   CODE     ---       set_module_type
      0100D051H   CODE     ---       set_scene_infor_page
      0100D0C6H   CODE     ---       set_scene_infor_select_sequence_number
      0100D0E2H   CODE     ---       set_scene_name_select_sequence_number
      0100CEE8H   CODE     ---       set_timing_scene_name_select_sequence_number
*SFR* 00000081H   DATA     BYTE      SP
*SFR* 000000BAH   DATA     BYTE      SREL2H
*SFR* 000000AAH   DATA     BYTE      SREL2L
*SFR* 000000BBH   DATA     BYTE      SREL3H
*SFR* 0000009DH   DATA     BYTE      SREL3L
      0200AC22H   XDATA    ---       st_module
LX51 LINKER/LOCATER V4.66.97.0                                                        09/27/2023  17:05:17  PAGE 45


*DEL*:00000000H   CODE     ---       Sw_Data_Send
      0100C731H   CODE     ---       Sys_Cpu_Init
      010071EAH   CODE     ---       Sys_Timer2_isr
      0200CFAFH   XDATA    WORD      SysTick_RTC
*SFR* 000000C8H   DATA     BYTE      T2CON
      020083ECH   XDATA    BYTE      T_O2
      020083EDH   XDATA    BYTE      T_O3
      020083EEH   XDATA    BYTE      T_O4
      020083EFH   XDATA    BYTE      T_O5
*SFR* 00000088H   DATA     BYTE      TCON
      0200A999H   XDATA    ---       temp_module
      0200C0CBH   XDATA    BYTE      temp_module_index
      0200C0CCH   XDATA    ---       temp_scenc_infor
      02009412H   XDATA    ---       temp_timing_content
*SFR* 00000088H.5 DATA     BIT       TF0
*SFR* 00000088H.7 DATA     BIT       TF1
*SFR* 000000C0H.6 DATA     BIT       TF2
*SFR* 0000008CH   DATA     BYTE      TH0
*SFR* 0000008DH   DATA     BYTE      TH1
*SFR* 000000CDH   DATA     BYTE      TH2
*SFR* 00000098H.1 DATA     BIT       TI2
*DEL*:00000000H   CODE     ---       time_scene_init
      02009438H   XDATA    WORD      time_scene_key_nb_bak
      0200943AH   XDATA    BYTE      time_scene_select_sta_bak
      0200943BH   XDATA    ---       time_scene_var
      0200CFB2H   XDATA    WORD      time_tick
      0100875FH   CODE     ---       timed_auto_send
      0100B7FEH   CODE     ---       timing_all_on_off_ctrl
      010057F0H   CODE     ---       timing_auto_detect
      02009459H   XDATA    ---       timing_content
      0200AD73H   XDATA    ---       timing_module
      0100A1EEH   CODE     ---       timing_module_parameter_batch_send
      0100B18CH   CODE     ---       timing_scene_run
      0200CFB4H   XDATA    WORD      TimVal
*SFR* 0000008AH   DATA     BYTE      TL0
*SFR* 0000008BH   DATA     BYTE      TL1
*SFR* 000000CCH   DATA     BYTE      TL2
*SFR* 00000089H   DATA     BYTE      TMOD
*SFR* 00000088H.4 DATA     BIT       TR0
*SFR* 00000088H.6 DATA     BIT       TR1
*SFR* 000000C8H.0 DATA     BIT       TR2
*SFR* 00000080H.0 DATA     BIT       TR4
*SFR* 00000080H.1 DATA     BIT       TR5
*SFR* 000000CBH   DATA     BYTE      TRL2H
*SFR* 000000CAH   DATA     BYTE      TRL2L
      0100BBF9H   CODE     ---       uart2_Risr
      0100B3DDH   CODE     ---       uart3_Risr
      0100BA31H   CODE     ---       uart4_Risr
      0100D447H   CODE     ---       uart4_Tisr
      0100C03FH   CODE     ---       uart5_Risr
      0100D44DH   CODE     ---       uart5_Tisr
      0100A30CH   CODE     ---       uart_frame_deal
      0100CF90H   CODE     ---       uart_init
      0200B39EH   XDATA    ---       user_modbus
      0200AC18H   XDATA    BYTE      var_previous_page



SYMBOL TABLE OF MODULE:  .\OBJ\T5L51 (?C_STARTUP)

      VALUE       REP       CLASS    TYPE      SYMBOL NAME
      ====================================================
      ---         MODULE    ---      ---       ?C_STARTUP
      01000000H   PUBLIC    CODE     ---       ?C_STARTUP
      000000E0H   SYMBOL    DATA     ---       ACC
LX51 LINKER/LOCATER V4.66.97.0                                                        09/27/2023  17:05:17  PAGE 46


      000000F0H   SYMBOL    DATA     ---       B
      00000083H   SYMBOL    DATA     ---       DPH
      00000082H   SYMBOL    DATA     ---       DPL
      00000095H   SYMBOL    DATA     ---       D_PAGESEL
      00000000H   SYMBOL    NUMBER   ---       IBPSTACK
      00000100H   SYMBOL    NUMBER   ---       IBPSTACKTOP
      00000100H   SYMBOL    NUMBER   ---       IDATALEN
      01009D28H   SYMBOL    CODE     ---       IDATALOOP
      00000094H   SYMBOL    DATA     ---       PAGESEL
      00000000H   SYMBOL    NUMBER   ---       PBPSTACK
      00000100H   SYMBOL    NUMBER   ---       PBPSTACKTOP
      00000000H   SYMBOL    NUMBER   ---       PDATALEN
      00000000H   SYMBOL    NUMBER   ---       PDATASTART
      00000000H   SYMBOL    NUMBER   ---       PPAGE
      00000000H   SYMBOL    NUMBER   ---       PPAGEENABLE
      000000A0H   SYMBOL    DATA     ---       PPAGE_SFR
      00000081H   SYMBOL    DATA     ---       SP
      01009D25H   SYMBOL    CODE     ---       STARTUP1
      00000000H   SYMBOL    NUMBER   ---       XBPSTACK
      00000000H   SYMBOL    NUMBER   ---       XBPSTACKTOP
      00008000H   SYMBOL    NUMBER   ---       XDATALEN
      01009D3BH   SYMBOL    CODE     ---       XDATALOOP
      00008000H   SYMBOL    NUMBER   ---       XDATASTART
      01000000H   LINE      CODE     ---       #34
      01009D25H   LINE      CODE     ---       #39
      01009D27H   LINE      CODE     ---       #40
      01009D28H   LINE      CODE     ---       #41
      01009D29H   LINE      CODE     ---       #42
      01009D2BH   LINE      CODE     ---       #45
      01009D2DH   LINE      CODE     ---       #46
      01009D2FH   LINE      CODE     ---       #47
      01009D31H   LINE      CODE     ---       #48
      01009D33H   LINE      CODE     ---       #50
      01009D36H   LINE      CODE     ---       #51
      01009D38H   LINE      CODE     ---       #55
      01009D3AH   LINE      CODE     ---       #57
      01009D3BH   LINE      CODE     ---       #58
      01009D3CH   LINE      CODE     ---       #59
      01009D3DH   LINE      CODE     ---       #60
      01009D3FH   LINE      CODE     ---       #61
      01009D41H   LINE      CODE     ---       #87
      01009D44H   LINE      CODE     ---       #88

      ---         MODULE    ---      ---       MAIN
      01005D10H   PUBLIC    CODE     ---       main
      000000F1H   SFRSYM    DATA     BYTE      ADR_H
      00000080H   SFRSYM    DATA     BYTE      P0
      00000090H   SFRSYM    DATA     BYTE      P1
      000000A0H   SFRSYM    DATA     BYTE      P2
      000000B0H   SFRSYM    DATA     BYTE      P3
      000000F3H   SFRSYM    DATA     BYTE      ADR_L
      000000D0H.6 SFRSYM    DATA     BIT       AC
      000000A0H.6 SFRSYM    DATA     BIT       Red_LED1
      00000094H   SFRSYM    DATA     BYTE      PAGESEL
      000000F2H   SFRSYM    DATA     BYTE      ADR_M
      000000A8H.7 SFRSYM    DATA     BIT       EA
      000000F8H   SFRSYM    DATA     BYTE      RAMMODE
      000000B7H   SFRSYM    DATA     BYTE      P0MDOUT
      000000BCH   SFRSYM    DATA     BYTE      P1MDOUT
      000000A8H   SFRSYM    DATA     BYTE      IEN0
      000000BDH   SFRSYM    DATA     BYTE      P2MDOUT
      000000B8H   SFRSYM    DATA     BYTE      IEN1
      000000BEH   SFRSYM    DATA     BYTE      P3MDOUT
      0000009AH   SFRSYM    DATA     BYTE      IEN2
      000000F8H.4 SFRSYM    DATA     BIT       APP_ACK
LX51 LINKER/LOCATER V4.66.97.0                                                        09/27/2023  17:05:17  PAGE 47


      000000F4H   SFRSYM    DATA     BYTE      ADR_INC
      000000B8H.1 SFRSYM    DATA     BIT       ECAN
      000000D0H.7 SFRSYM    DATA     BIT       CY
      000000B8H.3 SFRSYM    DATA     BIT       ES4R
      000000B8H.5 SFRSYM    DATA     BIT       ES5R
      000000B8H.2 SFRSYM    DATA     BIT       ES4T
      000000B8H.4 SFRSYM    DATA     BIT       ES5T
      000000B0H.3 SFRSYM    DATA     BIT       RTC_SDA
      00000081H   SFRSYM    DATA     BYTE      SP
      000000D0H.2 SFRSYM    DATA     BIT       OV
      00000095H   SFRSYM    DATA     BYTE      D_PAGESEL
      000000F8H.7 SFRSYM    DATA     BIT       APP_REQ
      000000B0H.2 SFRSYM    DATA     BIT       RTC_SCL
      000000BFH   SFRSYM    DATA     BYTE      IRCON2
      00000087H   SFRSYM    DATA     BYTE      PCON
      000000BAH   SFRSYM    DATA     BYTE      SREL2H
      000000BBH   SFRSYM    DATA     BYTE      SREL3H
      000000F9H   SFRSYM    DATA     BYTE      PORTDRV
      00000089H   SFRSYM    DATA     BYTE      TMOD
      00000088H   SFRSYM    DATA     BYTE      TCON
      000000AAH   SFRSYM    DATA     BYTE      SREL2L
      0000009DH   SFRSYM    DATA     BYTE      SREL3L
      000000FFH   SFRSYM    DATA     BYTE      EXDATA
      00000097H   SFRSYM    DATA     BYTE      SCON4R
      000000ABH   SFRSYM    DATA     BYTE      SCON5R
      000000D9H   SFRSYM    DATA     BYTE      BODE4_DIV_H
      000000AEH   SFRSYM    DATA     BYTE      BODE5_DIV_H
      00000096H   SFRSYM    DATA     BYTE      SCON4T
      000000A7H   SFRSYM    DATA     BYTE      SCON5T
      00000088H.1 SFRSYM    DATA     BIT       IE0
      00000088H.3 SFRSYM    DATA     BIT       IE1
      000000C9H   SFRSYM    DATA     BYTE      MUX_SEL
      000000E7H   SFRSYM    DATA     BYTE      BODE4_DIV_L
      000000AFH   SFRSYM    DATA     BYTE      BODE5_DIV_L
      000000F0H   SFRSYM    DATA     BYTE      B
      000000E0H   SFRSYM    DATA     BYTE      ACC
      0000008FH   SFRSYM    DATA     BYTE      CAN_CR
      000000A9H   SFRSYM    DATA     BYTE      IP0
      000000A8H.1 SFRSYM    DATA     BIT       ET0
      000000B9H   SFRSYM    DATA     BYTE      IP1
      000000A8H.3 SFRSYM    DATA     BIT       ET1
      000000A8H.4 SFRSYM    DATA     BIT       ES2
      00000088H.5 SFRSYM    DATA     BIT       TF0
      000000FDH   SFRSYM    DATA     BYTE      DATA0
      000000A8H.5 SFRSYM    DATA     BIT       ET2
      00000088H.7 SFRSYM    DATA     BIT       TF1
      000000E8H   SFRSYM    DATA     BYTE      CAN_ET
      000000FCH   SFRSYM    DATA     BYTE      DATA1
      000000C0H.6 SFRSYM    DATA     BIT       TF2
      0000008CH   SFRSYM    DATA     BYTE      TH0
      000000FBH   SFRSYM    DATA     BYTE      DATA2
      000000A8H.0 SFRSYM    DATA     BIT       EX0
      00000098H.0 SFRSYM    DATA     BIT       RI2
      0000008DH   SFRSYM    DATA     BYTE      TH1
      00000088H.0 SFRSYM    DATA     BIT       IT0
      00000091H   SFRSYM    DATA     BYTE      CAN_IR
      000000FAH   SFRSYM    DATA     BYTE      DATA3
      000000CDH   SFRSYM    DATA     BYTE      TH2
      000000A8H.2 SFRSYM    DATA     BIT       EX1
      00000088H.2 SFRSYM    DATA     BIT       IT1
      000000D0H.0 SFRSYM    DATA     BIT       P
      00000098H.1 SFRSYM    DATA     BIT       TI2
      0000008AH   SFRSYM    DATA     BYTE      TL0
      0000008BH   SFRSYM    DATA     BYTE      TL1
      000000CCH   SFRSYM    DATA     BYTE      TL2
LX51 LINKER/LOCATER V4.66.97.0                                                        09/27/2023  17:05:17  PAGE 48


      000000F8H.6 SFRSYM    DATA     BIT       APP_EN
      000000D0H.3 SFRSYM    DATA     BIT       RS0
      000000D0H.4 SFRSYM    DATA     BIT       RS1
      00000088H.4 SFRSYM    DATA     BIT       TR0
      00000093H   SFRSYM    DATA     BYTE      DPC
      00000088H.6 SFRSYM    DATA     BIT       TR1
      000000E5H   SFRSYM    DATA     BYTE      MAC_MODE
      000000C8H.0 SFRSYM    DATA     BIT       TR2
      00000080H.0 SFRSYM    DATA     BIT       TR4
      00000080H.1 SFRSYM    DATA     BIT       TR5
      000000A0H.7 SFRSYM    DATA     BIT       Green_LED2
      00000083H   SFRSYM    DATA     BYTE      DPH
      00000082H   SFRSYM    DATA     BYTE      DPL
      00000099H   SFRSYM    DATA     BYTE      SBUF2
      0000009CH   SFRSYM    DATA     BYTE      SBUF3
      000000D8H   SFRSYM    DATA     BYTE      ADCON
      00000098H   SFRSYM    DATA     BYTE      SCON2
      000000C8H   SFRSYM    DATA     BYTE      T2CON
      0000009BH   SFRSYM    DATA     BYTE      SCON3
      000000E6H   SFRSYM    DATA     BYTE      DIV_MODE
      000000F8H.5 SFRSYM    DATA     BIT       APP_RW
      000000CBH   SFRSYM    DATA     BYTE      TRL2H
      0000008EH   SFRSYM    DATA     BYTE      CKCON
      0000009FH   SFRSYM    DATA     BYTE      SBUF4_RX
      000000ADH   SFRSYM    DATA     BYTE      SBUF5_RX
      000000CAH   SFRSYM    DATA     BYTE      TRL2L
      0000009EH   SFRSYM    DATA     BYTE      SBUF4_TX
      000000ACH   SFRSYM    DATA     BYTE      SBUF5_TX
      000000FEH   SFRSYM    DATA     BYTE      EXADR
      000000D0H.5 SFRSYM    DATA     BIT       F0
      000000D0H.1 SFRSYM    DATA     BIT       F1
      000000D0H   SFRSYM    DATA     BYTE      PSW
      000000C0H   SFRSYM    DATA     BYTE      IRCON
      0100EB9DH   SYMBOL    CONST    ---       _?ix1000
      0100ECB5H   SYMBOL    CONST    ---       _?ix1001
      0100ECD7H   SYMBOL    CONST    ---       _?ix1002

      0100CA48H   BLOCK     CODE     ---       LVL=0
      ---         BLOCKEND  ---      ---       LVL=0

      01005D10H   BLOCK     CODE     ---       LVL=0
      01005D10H   BLOCK     CODE     NEAR LAB  LVL=1
      0200C6F1H   SYMBOL    XDATA    WORD      i
      0200CFC6H   SYMBOL    XDATA    BYTE      time
      0200CFC7H   SYMBOL    XDATA    BYTE      time_200ms
      0200C6F3H   SYMBOL    XDATA    ---       module_read
      0200C80BH   SYMBOL    XDATA    ---       module_scene_read
      0200C82DH   SYMBOL    XDATA    ---       timing_content_read
      ---         BLOCKEND  ---      ---       LVL=1
      01005D10H   LINE      CODE     ---       #17
      01005D10H   LINE      CODE     ---       #19
      01005D10H   LINE      CODE     ---       #20
      01005D13H   LINE      CODE     ---       #23
      01005D26H   LINE      CODE     ---       #24
      01005D33H   LINE      CODE     ---       #25
      01005D40H   LINE      CODE     ---       #26
      01005D43H   LINE      CODE     ---       #27
      01005D46H   LINE      CODE     ---       #28
      01005D53H   LINE      CODE     ---       #29
      01005D5CH   LINE      CODE     ---       #32
      01005D5FH   LINE      CODE     ---       #35
      01005D62H   LINE      CODE     ---       #38
      01005D74H   LINE      CODE     ---       #39
      01005D74H   LINE      CODE     ---       #40
      01005D88H   LINE      CODE     ---       #41
LX51 LINKER/LOCATER V4.66.97.0                                                        09/27/2023  17:05:17  PAGE 49


      01005DADH   LINE      CODE     ---       #43
      01005DB5H   LINE      CODE     ---       #44
      01005DB5H   LINE      CODE     ---       #45
      01005DDAH   LINE      CODE     ---       #47
      01005DE9H   LINE      CODE     ---       #48
      01005DFFH   LINE      CODE     ---       #49
      01005DFFH   LINE      CODE     ---       #50
      01005E07H   LINE      CODE     ---       #51
      01005E07H   LINE      CODE     ---       #52
      01005E1CH   LINE      CODE     ---       #53
      01005E31H   LINE      CODE     ---       #55
      01005E31H   LINE      CODE     ---       #56
      01005E37H   LINE      CODE     ---       #57
      01005E44H   LINE      CODE     ---       #59
      01005E5FH   LINE      CODE     ---       #61
      01005E6EH   LINE      CODE     ---       #62
      01005E6EH   LINE      CODE     ---       #64
      01005E86H   LINE      CODE     ---       #65
      01005E86H   LINE      CODE     ---       #66
      01005E9EH   LINE      CODE     ---       #68
      01005E9EH   LINE      CODE     ---       #70
      01005E9EH   LINE      CODE     ---       #72
      01005E9EH   LINE      CODE     ---       #73
      01005EA3H   LINE      CODE     ---       #75
      01005EAEH   LINE      CODE     ---       #76
      01005EC4H   LINE      CODE     ---       #79
      01005ECDH   LINE      CODE     ---       #80
      01005ECDH   LINE      CODE     ---       #81
      01005ECDH   LINE      CODE     ---       #82
      01005ED0H   LINE      CODE     ---       #83
      01005ED3H   LINE      CODE     ---       #84
      01005ED6H   LINE      CODE     ---       #85
      01005ED9H   LINE      CODE     ---       #86
      01005EE8H   LINE      CODE     ---       #87
      01005EE8H   LINE      CODE     ---       #88
      01005EECH   LINE      CODE     ---       #89
      01005EF2H   LINE      CODE     ---       #90
      01005EF5H   LINE      CODE     ---       #92
      01005EF5H   LINE      CODE     ---       #93
      01005F02H   LINE      CODE     ---       #94
      01005F02H   LINE      CODE     ---       #95
      01005F04H   LINE      CODE     ---       #96
      01005F08H   LINE      CODE     ---       #99
      01005F0EH   LINE      CODE     ---       #100
      01005F14H   LINE      CODE     ---       #102
      01005F17H   LINE      CODE     ---       #103
      01005F1AH   LINE      CODE     ---       #104
      01005F1DH   LINE      CODE     ---       #105
      01005F20H   LINE      CODE     ---       #106
      01005F23H   LINE      CODE     ---       #107
      01005F26H   LINE      CODE     ---       #109
      01005F26H   LINE      CODE     ---       #110
      01005F33H   LINE      CODE     ---       #111
      01005F33H   LINE      CODE     ---       #112
      01005F35H   LINE      CODE     ---       #113
      01005F38H   LINE      CODE     ---       #115
      01005F38H   LINE      CODE     ---       #116
      01005F3EH   LINE      CODE     ---       #117
      01005F41H   LINE      CODE     ---       #118
      01005F4AH   LINE      CODE     ---       #119
      01005F53H   LINE      CODE     ---       #120
      01005F56H   LINE      CODE     ---       #121
      01005F59H   LINE      CODE     ---       #122
      01005F5CH   LINE      CODE     ---       #123
      01005F5FH   LINE      CODE     ---       #124
LX51 LINKER/LOCATER V4.66.97.0                                                        09/27/2023  17:05:17  PAGE 50


      01005F62H   LINE      CODE     ---       #125
      01005F65H   LINE      CODE     ---       #126
      01005F68H   LINE      CODE     ---       #127
      01005F6BH   LINE      CODE     ---       #128
      01005F6EH   LINE      CODE     ---       #129
      01005F71H   LINE      CODE     ---       #130
      01005F74H   LINE      CODE     ---       #131
      01005F77H   LINE      CODE     ---       #134
      01005F7AH   LINE      CODE     ---       #135
      ---         BLOCKEND  ---      ---       LVL=0

      ---         MODULE    ---      ---       SYS
      0200CFBCH   PUBLIC    XDATA    WORD      re_send_time
      0200CFBAH   PUBLIC    XDATA    WORD      Count_num1
      0200CFB6H   PUBLIC    XDATA    DWORD     enter_code_time_cnt
      00000022H.0 PUBLIC    BIT      BIT       RTC_Flog
      0200CFB4H   PUBLIC    XDATA    WORD      TimVal
      0200CFB2H   PUBLIC    XDATA    WORD      time_tick
      0200CFB1H   PUBLIC    XDATA    BYTE      pic_page
      0200CFAFH   PUBLIC    XDATA    WORD      SysTick_RTC
      0200CFADH   PUBLIC    XDATA    WORD      Count_for_tx
      0100D2D5H   PUBLIC    CODE     ---       _check_constant
      0100A426H   PUBLIC    CODE     ---       _get_days_in_month
      0200CB84H   PUBLIC    XDATA    BYTE      ?_strrpl?BYTE
      010093B4H   PUBLIC    CODE     ---       _strrpl
      0100CCDAH   PUBLIC    CODE     ---       _find_nub_index
      0100D214H   PUBLIC    CODE     ---       _delete_arr_data
      0200C85EH   PUBLIC    XDATA    BYTE      ?_add_arr_data?BYTE
      0100C85BH   PUBLIC    CODE     ---       _add_arr_data
      0100BB45H   PUBLIC    CODE     ---       _printf_tab
      0100C7A9H   PUBLIC    CODE     ---       _write_dgus
      0100C76DH   PUBLIC    CODE     ---       _read_dgus
      0100C731H   PUBLIC    CODE     ---       Sys_Cpu_Init
      01000003H   PUBLIC    CODE     ---       _sys_delay_about_ms
      010071EAH   PUBLIC    CODE     ---       Sys_Timer2_isr
      000000F1H   SFRSYM    DATA     BYTE      ADR_H
      00000080H   SFRSYM    DATA     BYTE      P0
      00000090H   SFRSYM    DATA     BYTE      P1
      000000A0H   SFRSYM    DATA     BYTE      P2
      000000B0H   SFRSYM    DATA     BYTE      P3
      000000F3H   SFRSYM    DATA     BYTE      ADR_L
      000000D0H.6 SFRSYM    DATA     BIT       AC
      000000A0H.6 SFRSYM    DATA     BIT       Red_LED1
      00000094H   SFRSYM    DATA     BYTE      PAGESEL
      000000F2H   SFRSYM    DATA     BYTE      ADR_M
      000000A8H.7 SFRSYM    DATA     BIT       EA
      000000F8H   SFRSYM    DATA     BYTE      RAMMODE
      000000B7H   SFRSYM    DATA     BYTE      P0MDOUT
      000000BCH   SFRSYM    DATA     BYTE      P1MDOUT
      000000A8H   SFRSYM    DATA     BYTE      IEN0
      000000BDH   SFRSYM    DATA     BYTE      P2MDOUT
      000000B8H   SFRSYM    DATA     BYTE      IEN1
      000000BEH   SFRSYM    DATA     BYTE      P3MDOUT
      0000009AH   SFRSYM    DATA     BYTE      IEN2
      000000F8H.4 SFRSYM    DATA     BIT       APP_ACK
      000000F4H   SFRSYM    DATA     BYTE      ADR_INC
      000000B8H.1 SFRSYM    DATA     BIT       ECAN
      000000D0H.7 SFRSYM    DATA     BIT       CY
      000000B8H.3 SFRSYM    DATA     BIT       ES4R
      000000B8H.5 SFRSYM    DATA     BIT       ES5R
      000000B8H.2 SFRSYM    DATA     BIT       ES4T
      000000B8H.4 SFRSYM    DATA     BIT       ES5T
      000000B0H.3 SFRSYM    DATA     BIT       RTC_SDA
      00000081H   SFRSYM    DATA     BYTE      SP
      000000D0H.2 SFRSYM    DATA     BIT       OV
LX51 LINKER/LOCATER V4.66.97.0                                                        09/27/2023  17:05:17  PAGE 51


      00000095H   SFRSYM    DATA     BYTE      D_PAGESEL
      000000F8H.7 SFRSYM    DATA     BIT       APP_REQ
      000000B0H.2 SFRSYM    DATA     BIT       RTC_SCL
      000000BFH   SFRSYM    DATA     BYTE      IRCON2
      00000087H   SFRSYM    DATA     BYTE      PCON
      000000BAH   SFRSYM    DATA     BYTE      SREL2H
      000000BBH   SFRSYM    DATA     BYTE      SREL3H
      000000F9H   SFRSYM    DATA     BYTE      PORTDRV
      00000089H   SFRSYM    DATA     BYTE      TMOD
      00000088H   SFRSYM    DATA     BYTE      TCON
      000000AAH   SFRSYM    DATA     BYTE      SREL2L
      0000009DH   SFRSYM    DATA     BYTE      SREL3L
      000000FFH   SFRSYM    DATA     BYTE      EXDATA
      00000097H   SFRSYM    DATA     BYTE      SCON4R
      000000ABH   SFRSYM    DATA     BYTE      SCON5R
      000000D9H   SFRSYM    DATA     BYTE      BODE4_DIV_H
      000000AEH   SFRSYM    DATA     BYTE      BODE5_DIV_H
      00000096H   SFRSYM    DATA     BYTE      SCON4T
      000000A7H   SFRSYM    DATA     BYTE      SCON5T
      00000088H.1 SFRSYM    DATA     BIT       IE0
      00000088H.3 SFRSYM    DATA     BIT       IE1
      000000C9H   SFRSYM    DATA     BYTE      MUX_SEL
      000000E7H   SFRSYM    DATA     BYTE      BODE4_DIV_L
      000000AFH   SFRSYM    DATA     BYTE      BODE5_DIV_L
      000000F0H   SFRSYM    DATA     BYTE      B
      000000E0H   SFRSYM    DATA     BYTE      ACC
      0000008FH   SFRSYM    DATA     BYTE      CAN_CR
      000000A9H   SFRSYM    DATA     BYTE      IP0
      000000A8H.1 SFRSYM    DATA     BIT       ET0
      000000B9H   SFRSYM    DATA     BYTE      IP1
      000000A8H.3 SFRSYM    DATA     BIT       ET1
      000000A8H.4 SFRSYM    DATA     BIT       ES2
      00000088H.5 SFRSYM    DATA     BIT       TF0
      000000FDH   SFRSYM    DATA     BYTE      DATA0
      000000A8H.5 SFRSYM    DATA     BIT       ET2
      00000088H.7 SFRSYM    DATA     BIT       TF1
      000000E8H   SFRSYM    DATA     BYTE      CAN_ET
      000000FCH   SFRSYM    DATA     BYTE      DATA1
      000000C0H.6 SFRSYM    DATA     BIT       TF2
      0000008CH   SFRSYM    DATA     BYTE      TH0
      000000FBH   SFRSYM    DATA     BYTE      DATA2
      000000A8H.0 SFRSYM    DATA     BIT       EX0
      00000098H.0 SFRSYM    DATA     BIT       RI2
      0000008DH   SFRSYM    DATA     BYTE      TH1
      00000088H.0 SFRSYM    DATA     BIT       IT0
      00000091H   SFRSYM    DATA     BYTE      CAN_IR
      000000FAH   SFRSYM    DATA     BYTE      DATA3
      000000CDH   SFRSYM    DATA     BYTE      TH2
      000000A8H.2 SFRSYM    DATA     BIT       EX1
      00000088H.2 SFRSYM    DATA     BIT       IT1
      000000D0H.0 SFRSYM    DATA     BIT       P
      00000098H.1 SFRSYM    DATA     BIT       TI2
      0000008AH   SFRSYM    DATA     BYTE      TL0
      0000008BH   SFRSYM    DATA     BYTE      TL1
      000000CCH   SFRSYM    DATA     BYTE      TL2
      000000F8H.6 SFRSYM    DATA     BIT       APP_EN
      000000D0H.3 SFRSYM    DATA     BIT       RS0
      000000D0H.4 SFRSYM    DATA     BIT       RS1
      00000088H.4 SFRSYM    DATA     BIT       TR0
      00000093H   SFRSYM    DATA     BYTE      DPC
      00000088H.6 SFRSYM    DATA     BIT       TR1
      000000E5H   SFRSYM    DATA     BYTE      MAC_MODE
      000000C8H.0 SFRSYM    DATA     BIT       TR2
      00000080H.0 SFRSYM    DATA     BIT       TR4
      00000080H.1 SFRSYM    DATA     BIT       TR5
LX51 LINKER/LOCATER V4.66.97.0                                                        09/27/2023  17:05:17  PAGE 52


      000000A0H.7 SFRSYM    DATA     BIT       Green_LED2
      00000083H   SFRSYM    DATA     BYTE      DPH
      00000082H   SFRSYM    DATA     BYTE      DPL
      00000099H   SFRSYM    DATA     BYTE      SBUF2
      0000009CH   SFRSYM    DATA     BYTE      SBUF3
      000000D8H   SFRSYM    DATA     BYTE      ADCON
      00000098H   SFRSYM    DATA     BYTE      SCON2
      000000C8H   SFRSYM    DATA     BYTE      T2CON
      0000009BH   SFRSYM    DATA     BYTE      SCON3
      000000E6H   SFRSYM    DATA     BYTE      DIV_MODE
      000000F8H.5 SFRSYM    DATA     BIT       APP_RW
      000000CBH   SFRSYM    DATA     BYTE      TRL2H
      0000008EH   SFRSYM    DATA     BYTE      CKCON
      0000009FH   SFRSYM    DATA     BYTE      SBUF4_RX
      000000ADH   SFRSYM    DATA     BYTE      SBUF5_RX
      000000CAH   SFRSYM    DATA     BYTE      TRL2L
      0000009EH   SFRSYM    DATA     BYTE      SBUF4_TX
      000000ACH   SFRSYM    DATA     BYTE      SBUF5_TX
      000000FEH   SFRSYM    DATA     BYTE      EXADR
      000000D0H.5 SFRSYM    DATA     BIT       F0
      000000D0H.1 SFRSYM    DATA     BIT       F1
      000000D0H   SFRSYM    DATA     BYTE      PSW
      000000C0H   SFRSYM    DATA     BYTE      IRCON

      0100CB77H   BLOCK     CODE     ---       LVL=0
      ---         BLOCKEND  ---      ---       LVL=0

      010071EAH   BLOCK     CODE     ---       LVL=0
      010071EAH   LINE      CODE     ---       #21
      01007207H   LINE      CODE     ---       #24
      01007209H   LINE      CODE     ---       #25
      01007218H   LINE      CODE     ---       #26
      0100721BH   LINE      CODE     ---       #27
      01007221H   LINE      CODE     ---       #29
      01007227H   LINE      CODE     ---       #30
      0100722FH   LINE      CODE     ---       #31
      01007232H   LINE      CODE     ---       #32
      0100723AH   LINE      CODE     ---       #33
      0100723DH   LINE      CODE     ---       #34
      01007245H   LINE      CODE     ---       #35
      01007248H   LINE      CODE     ---       #36
      01007250H   LINE      CODE     ---       #37
      01007253H   LINE      CODE     ---       #38
      01007262H   LINE      CODE     ---       #39
      01007265H   LINE      CODE     ---       #40
      01007274H   LINE      CODE     ---       #41
      01007277H   LINE      CODE     ---       #42
      0100728BH   LINE      CODE     ---       #43
      010072A4H   LINE      CODE     ---       #44
      010072B3H   LINE      CODE     ---       #45
      010072B6H   LINE      CODE     ---       #46
      010072C5H   LINE      CODE     ---       #47
      010072C8H   LINE      CODE     ---       #48
      010072D7H   LINE      CODE     ---       #49
      010072DAH   LINE      CODE     ---       #50
      010072E2H   LINE      CODE     ---       #51
      010072E5H   LINE      CODE     ---       #53
      010072F4H   LINE      CODE     ---       #54
      010072F7H   LINE      CODE     ---       #55
      010072FFH   LINE      CODE     ---       #56
      01007302H   LINE      CODE     ---       #58
      01007305H   LINE      CODE     ---       #59
      01007308H   LINE      CODE     ---       #60
      ---         BLOCKEND  ---      ---       LVL=0

LX51 LINKER/LOCATER V4.66.97.0                                                        09/27/2023  17:05:17  PAGE 53


      01000003H   BLOCK     CODE     ---       LVL=0
      00000006H   SYMBOL    DATA     WORD      ms
      01000003H   BLOCK     CODE     NEAR LAB  LVL=1
      00000004H   SYMBOL    DATA     WORD      i
      00000002H   SYMBOL    DATA     WORD      j
      ---         BLOCKEND  ---      ---       LVL=1
      01000003H   LINE      CODE     ---       #68
      01000003H   LINE      CODE     ---       #69
      01000003H   LINE      CODE     ---       #71
      0100000DH   LINE      CODE     ---       #72
      01000022H   LINE      CODE     ---       #74
      ---         BLOCKEND  ---      ---       LVL=0

      0100C731H   BLOCK     CODE     ---       LVL=0
      0100C731H   LINE      CODE     ---       #76
      0100C731H   LINE      CODE     ---       #77
      0100C731H   LINE      CODE     ---       #78
      0100C734H   LINE      CODE     ---       #79
      0100C736H   LINE      CODE     ---       #80
      0100C738H   LINE      CODE     ---       #82
      0100C73AH   LINE      CODE     ---       #83
      0100C73CH   LINE      CODE     ---       #85
      0100C73EH   LINE      CODE     ---       #86
      0100C740H   LINE      CODE     ---       #87
      0100C742H   LINE      CODE     ---       #89
      0100C745H   LINE      CODE     ---       #90
      0100C748H   LINE      CODE     ---       #91
      0100C74BH   LINE      CODE     ---       #92
      0100C74EH   LINE      CODE     ---       #93
      0100C751H   LINE      CODE     ---       #94
      0100C753H   LINE      CODE     ---       #95
      0100C756H   LINE      CODE     ---       #97
      0100C758H   LINE      CODE     ---       #98
      0100C75AH   LINE      CODE     ---       #99
      0100C75DH   LINE      CODE     ---       #100
      0100C760H   LINE      CODE     ---       #101
      0100C763H   LINE      CODE     ---       #102
      0100C766H   LINE      CODE     ---       #103
      0100C768H   LINE      CODE     ---       #104
      0100C76AH   LINE      CODE     ---       #105
      0100C76CH   LINE      CODE     ---       #106
      ---         BLOCKEND  ---      ---       LVL=0

      0100C76DH   BLOCK     CODE     ---       LVL=0
      00000004H   SYMBOL    DATA     WORD      Dgus_Addr
      0100C771H   BLOCK     CODE     NEAR LAB  LVL=1
      00000002H   SYMBOL    DATA     WORD      R_Dgus
      ---         BLOCKEND  ---      ---       LVL=1
      0100C76DH   LINE      CODE     ---       #108
      0100C771H   LINE      CODE     ---       #109
      0100C771H   LINE      CODE     ---       #110
      0100C772H   LINE      CODE     ---       #112
      0100C774H   LINE      CODE     ---       #113
      0100C77BH   LINE      CODE     ---       #114
      0100C782H   LINE      CODE     ---       #115
      0100C785H   LINE      CODE     ---       #117
      0100C787H   LINE      CODE     ---       #119
      0100C78BH   LINE      CODE     ---       #120
      0100C793H   LINE      CODE     ---       #122
      0100C7A1H   LINE      CODE     ---       #123
      0100C7A4H   LINE      CODE     ---       #125
      0100C7A8H   LINE      CODE     ---       #126
      ---         BLOCKEND  ---      ---       LVL=0

      0100C7A9H   BLOCK     CODE     ---       LVL=0
LX51 LINKER/LOCATER V4.66.97.0                                                        09/27/2023  17:05:17  PAGE 54


      00000002H   SYMBOL    DATA     WORD      Dgus_Addr
      00000004H   SYMBOL    DATA     WORD      Val
      0100C7A9H   LINE      CODE     ---       #128
      0100C7ADH   LINE      CODE     ---       #129
      0100C7ADH   LINE      CODE     ---       #131
      0100C7B0H   LINE      CODE     ---       #132
      0100C7B0H   LINE      CODE     ---       #133
      0100C7B3H   LINE      CODE     ---       #134
      0100C7B6H   LINE      CODE     ---       #135
      0100C7B9H   LINE      CODE     ---       #137
      0100C7BBH   LINE      CODE     ---       #138
      0100C7BEH   LINE      CODE     ---       #140
      0100C7C1H   LINE      CODE     ---       #141
      0100C7C1H   LINE      CODE     ---       #142
      0100C7C4H   LINE      CODE     ---       #143
      0100C7C7H   LINE      CODE     ---       #144
      0100C7CAH   LINE      CODE     ---       #146
      0100C7CEH   LINE      CODE     ---       #147
      0100C7CEH   LINE      CODE     ---       #148
      0100C7D1H   LINE      CODE     ---       #149
      0100C7D3H   LINE      CODE     ---       #150
      0100C7D5H   LINE      CODE     ---       #152
      0100C7D5H   LINE      CODE     ---       #153
      0100C7D8H   LINE      CODE     ---       #154
      0100C7DCH   LINE      CODE     ---       #155
      0100C7DCH   LINE      CODE     ---       #156
      0100C7DEH   LINE      CODE     ---       #157
      0100C7E1H   LINE      CODE     ---       #159
      0100C7E4H   LINE      CODE     ---       #161
      ---         BLOCKEND  ---      ---       LVL=0

      0100BB45H   BLOCK     CODE     ---       LVL=0
      0200C8A8H   SYMBOL    XDATA    WORD      nb
      0200C8AAH   SYMBOL    XDATA    ---       p
      0100BB51H   BLOCK     CODE     NEAR LAB  LVL=1
      0200C8ADH   SYMBOL    XDATA    WORD      i
      ---         BLOCKEND  ---      ---       LVL=1
      0100BB45H   LINE      CODE     ---       #164
      0100BB51H   LINE      CODE     ---       #165
      0100BB51H   LINE      CODE     ---       #166
      0100BB58H   LINE      CODE     ---       #167
      0100BB74H   LINE      CODE     ---       #168
      0100BB74H   LINE      CODE     ---       #169
      0100BB8EH   LINE      CODE     ---       #170
      0100BB96H   LINE      CODE     ---       #171
      ---         BLOCKEND  ---      ---       LVL=0

      0100C85BH   BLOCK     CODE     ---       LVL=0
      0200C85EH   SYMBOL    XDATA    ---       t_arr
      0200C861H   SYMBOL    XDATA    BYTE      element
      0200C862H   SYMBOL    XDATA    BYTE      pos
      0100C85BH   LINE      CODE     ---       #180
      0100C866H   LINE      CODE     ---       #181
      0100C866H   LINE      CODE     ---       #182
      0100C86DH   LINE      CODE     ---       #183
      0100C86DH   LINE      CODE     ---       #184
      0100C876H   LINE      CODE     ---       #185
      0100C879H   LINE      CODE     ---       #186
      0100C879H   LINE      CODE     ---       #188
      0100C879H   LINE      CODE     ---       #189
      0100C891H   LINE      CODE     ---       #190
      0100C893H   LINE      CODE     ---       #191
      0100C893H   LINE      CODE     ---       #192
      ---         BLOCKEND  ---      ---       LVL=0

LX51 LINKER/LOCATER V4.66.97.0                                                        09/27/2023  17:05:17  PAGE 55


      0100D214H   BLOCK     CODE     ---       LVL=0
      00000001H   SYMBOL    DATA     ---       t_arr
      00000005H   SYMBOL    DATA     BYTE      pos
      0100D214H   LINE      CODE     ---       #200
      0100D214H   LINE      CODE     ---       #201
      0100D214H   LINE      CODE     ---       #202
      0100D21AH   LINE      CODE     ---       #203
      0100D21AH   LINE      CODE     ---       #204
      0100D21DH   LINE      CODE     ---       #205
      0100D21DH   LINE      CODE     ---       #207
      0100D21DH   LINE      CODE     ---       #208
      0100D228H   LINE      CODE     ---       #209
      0100D22AH   LINE      CODE     ---       #210
      0100D22AH   LINE      CODE     ---       #211
      ---         BLOCKEND  ---      ---       LVL=0

      0100CCDAH   BLOCK     CODE     ---       LVL=0
      0200C85EH   SYMBOL    XDATA    ---       t_arr
      00000005H   SYMBOL    DATA     BYTE      num_to_find
      0100CCE0H   BLOCK     CODE     NEAR LAB  LVL=1
      00000007H   SYMBOL    DATA     BYTE      i
      ---         BLOCKEND  ---      ---       LVL=1
      0100CCDAH   LINE      CODE     ---       #218
      0100CCE0H   LINE      CODE     ---       #219
      0100CCE0H   LINE      CODE     ---       #220
      0100CCE2H   LINE      CODE     ---       #221
      0100CCE9H   LINE      CODE     ---       #222
      0100CCE9H   LINE      CODE     ---       #223
      0100CCFAH   LINE      CODE     ---       #224
      0100CCFAH   LINE      CODE     ---       #225
      0100CCFDH   LINE      CODE     ---       #226
      0100CCFDH   LINE      CODE     ---       #227
      0100CD00H   LINE      CODE     ---       #228
      0100CD02H   LINE      CODE     ---       #229
      ---         BLOCKEND  ---      ---       LVL=0

      010093B4H   BLOCK     CODE     ---       LVL=0
      0200CB84H   SYMBOL    XDATA    ---       s
      0200CB87H   SYMBOL    XDATA    ---       old_str
      0200CB8AH   SYMBOL    XDATA    ---       new_str
      010093BAH   BLOCK     CODE     NEAR LAB  LVL=1
      0200CB8DH   SYMBOL    XDATA    ---       ptr
      ---         BLOCKEND  ---      ---       LVL=1
      010093B4H   LINE      CODE     ---       #237
      010093BAH   LINE      CODE     ---       #238
      010093BAH   LINE      CODE     ---       #240
      010093DAH   LINE      CODE     ---       #241
      010093DAH   LINE      CODE     ---       #242
      01009432H   LINE      CODE     ---       #243
      01009444H   LINE      CODE     ---       #244
      01009447H   LINE      CODE     ---       #245
      0100944DH   LINE      CODE     ---       #246
      ---         BLOCKEND  ---      ---       LVL=0

      0100A426H   BLOCK     CODE     ---       LVL=0
      00000002H   SYMBOL    DATA     WORD      year
      00000005H   SYMBOL    DATA     BYTE      month
      0100A42AH   BLOCK     CODE     NEAR LAB  LVL=1
      0200C85BH   SYMBOL    XDATA    BYTE      days
      ---         BLOCKEND  ---      ---       LVL=1
      0100A426H   LINE      CODE     ---       #253
      0100A42AH   LINE      CODE     ---       #254
      0100A42AH   LINE      CODE     ---       #255
      0100A42FH   LINE      CODE     ---       #256
      0100A45BH   LINE      CODE     ---       #257
LX51 LINKER/LOCATER V4.66.97.0                                                        09/27/2023  17:05:17  PAGE 56


      0100A45BH   LINE      CODE     ---       #258
      0100A45BH   LINE      CODE     ---       #259
      0100A45BH   LINE      CODE     ---       #260
      0100A45BH   LINE      CODE     ---       #261
      0100A45BH   LINE      CODE     ---       #262
      0100A45BH   LINE      CODE     ---       #263
      0100A45BH   LINE      CODE     ---       #264
      0100A45BH   LINE      CODE     ---       #265
      0100A461H   LINE      CODE     ---       #266
      0100A463H   LINE      CODE     ---       #267
      0100A463H   LINE      CODE     ---       #268
      0100A463H   LINE      CODE     ---       #269
      0100A463H   LINE      CODE     ---       #270
      0100A463H   LINE      CODE     ---       #271
      0100A469H   LINE      CODE     ---       #272
      0100A46BH   LINE      CODE     ---       #273
      0100A46BH   LINE      CODE     ---       #274
      0100A48DH   LINE      CODE     ---       #275
      0100A48DH   LINE      CODE     ---       #276
      0100A493H   LINE      CODE     ---       #277
      0100A495H   LINE      CODE     ---       #279
      0100A495H   LINE      CODE     ---       #280
      0100A49BH   LINE      CODE     ---       #281
      0100A49BH   LINE      CODE     ---       #282
      0100A49DH   LINE      CODE     ---       #283
      0100A49DH   LINE      CODE     ---       #284
      0100A4A6H   LINE      CODE     ---       #285
      0100A4A9H   LINE      CODE     ---       #286
      0100A4A9H   LINE      CODE     ---       #287
      0100A4AEH   LINE      CODE     ---       #288
      ---         BLOCKEND  ---      ---       LVL=0

      0100D2D5H   BLOCK     CODE     ---       LVL=0
      00000006H   SYMBOL    DATA     WORD      var
      00000001H   SYMBOL    DATA     ---       pre_var
      0100D2D5H   LINE      CODE     ---       #295
      0100D2D5H   LINE      CODE     ---       #296
      0100D2D5H   LINE      CODE     ---       #300
      0100D2DEH   LINE      CODE     ---       #301
      0100D2DEH   LINE      CODE     ---       #302
      0100D2E2H   LINE      CODE     ---       #303
      0100D2E5H   LINE      CODE     ---       #304
      0100D2E5H   LINE      CODE     ---       #306
      0100D2E5H   LINE      CODE     ---       #307
      0100D2E7H   LINE      CODE     ---       #308
      0100D2E7H   LINE      CODE     ---       #309
      ---         BLOCKEND  ---      ---       LVL=0

      ---         MODULE    ---      ---       CRC16
      0200CCADH   PUBLIC    XDATA    ---       crctablelo
      0200CBADH   PUBLIC    XDATA    ---       crctablehi
      0100BF9FH   PUBLIC    CODE     ---       _crc16table
      000000F1H   SFRSYM    DATA     BYTE      ADR_H
      00000080H   SFRSYM    DATA     BYTE      P0
      00000090H   SFRSYM    DATA     BYTE      P1
      000000A0H   SFRSYM    DATA     BYTE      P2
      000000B0H   SFRSYM    DATA     BYTE      P3
      000000F3H   SFRSYM    DATA     BYTE      ADR_L
      000000D0H.6 SFRSYM    DATA     BIT       AC
      000000A0H.6 SFRSYM    DATA     BIT       Red_LED1
      00000094H   SFRSYM    DATA     BYTE      PAGESEL
      000000F2H   SFRSYM    DATA     BYTE      ADR_M
      000000A8H.7 SFRSYM    DATA     BIT       EA
      000000F8H   SFRSYM    DATA     BYTE      RAMMODE
      000000B7H   SFRSYM    DATA     BYTE      P0MDOUT
LX51 LINKER/LOCATER V4.66.97.0                                                        09/27/2023  17:05:17  PAGE 57


      000000BCH   SFRSYM    DATA     BYTE      P1MDOUT
      000000A8H   SFRSYM    DATA     BYTE      IEN0
      000000BDH   SFRSYM    DATA     BYTE      P2MDOUT
      000000B8H   SFRSYM    DATA     BYTE      IEN1
      000000BEH   SFRSYM    DATA     BYTE      P3MDOUT
      0000009AH   SFRSYM    DATA     BYTE      IEN2
      000000F8H.4 SFRSYM    DATA     BIT       APP_ACK
      000000F4H   SFRSYM    DATA     BYTE      ADR_INC
      000000B8H.1 SFRSYM    DATA     BIT       ECAN
      000000D0H.7 SFRSYM    DATA     BIT       CY
      000000B8H.3 SFRSYM    DATA     BIT       ES4R
      000000B8H.5 SFRSYM    DATA     BIT       ES5R
      000000B8H.2 SFRSYM    DATA     BIT       ES4T
      000000B8H.4 SFRSYM    DATA     BIT       ES5T
      000000B0H.3 SFRSYM    DATA     BIT       RTC_SDA
      00000081H   SFRSYM    DATA     BYTE      SP
      000000D0H.2 SFRSYM    DATA     BIT       OV
      00000095H   SFRSYM    DATA     BYTE      D_PAGESEL
      000000F8H.7 SFRSYM    DATA     BIT       APP_REQ
      000000B0H.2 SFRSYM    DATA     BIT       RTC_SCL
      000000BFH   SFRSYM    DATA     BYTE      IRCON2
      00000087H   SFRSYM    DATA     BYTE      PCON
      000000BAH   SFRSYM    DATA     BYTE      SREL2H
      000000BBH   SFRSYM    DATA     BYTE      SREL3H
      000000F9H   SFRSYM    DATA     BYTE      PORTDRV
      00000089H   SFRSYM    DATA     BYTE      TMOD
      00000088H   SFRSYM    DATA     BYTE      TCON
      000000AAH   SFRSYM    DATA     BYTE      SREL2L
      0000009DH   SFRSYM    DATA     BYTE      SREL3L
      000000FFH   SFRSYM    DATA     BYTE      EXDATA
      00000097H   SFRSYM    DATA     BYTE      SCON4R
      000000ABH   SFRSYM    DATA     BYTE      SCON5R
      000000D9H   SFRSYM    DATA     BYTE      BODE4_DIV_H
      000000AEH   SFRSYM    DATA     BYTE      BODE5_DIV_H
      00000096H   SFRSYM    DATA     BYTE      SCON4T
      000000A7H   SFRSYM    DATA     BYTE      SCON5T
      00000088H.1 SFRSYM    DATA     BIT       IE0
      00000088H.3 SFRSYM    DATA     BIT       IE1
      000000C9H   SFRSYM    DATA     BYTE      MUX_SEL
      000000E7H   SFRSYM    DATA     BYTE      BODE4_DIV_L
      000000AFH   SFRSYM    DATA     BYTE      BODE5_DIV_L
      000000F0H   SFRSYM    DATA     BYTE      B
      000000E0H   SFRSYM    DATA     BYTE      ACC
      0000008FH   SFRSYM    DATA     BYTE      CAN_CR
      000000A9H   SFRSYM    DATA     BYTE      IP0
      000000A8H.1 SFRSYM    DATA     BIT       ET0
      000000B9H   SFRSYM    DATA     BYTE      IP1
      000000A8H.3 SFRSYM    DATA     BIT       ET1
      000000A8H.4 SFRSYM    DATA     BIT       ES2
      00000088H.5 SFRSYM    DATA     BIT       TF0
      000000FDH   SFRSYM    DATA     BYTE      DATA0
      000000A8H.5 SFRSYM    DATA     BIT       ET2
      00000088H.7 SFRSYM    DATA     BIT       TF1
      000000E8H   SFRSYM    DATA     BYTE      CAN_ET
      000000FCH   SFRSYM    DATA     BYTE      DATA1
      000000C0H.6 SFRSYM    DATA     BIT       TF2
      0000008CH   SFRSYM    DATA     BYTE      TH0
      000000FBH   SFRSYM    DATA     BYTE      DATA2
      000000A8H.0 SFRSYM    DATA     BIT       EX0
      00000098H.0 SFRSYM    DATA     BIT       RI2
      0000008DH   SFRSYM    DATA     BYTE      TH1
      00000088H.0 SFRSYM    DATA     BIT       IT0
      00000091H   SFRSYM    DATA     BYTE      CAN_IR
      000000FAH   SFRSYM    DATA     BYTE      DATA3
      000000CDH   SFRSYM    DATA     BYTE      TH2
LX51 LINKER/LOCATER V4.66.97.0                                                        09/27/2023  17:05:17  PAGE 58


      000000A8H.2 SFRSYM    DATA     BIT       EX1
      00000088H.2 SFRSYM    DATA     BIT       IT1
      000000D0H.0 SFRSYM    DATA     BIT       P
      00000098H.1 SFRSYM    DATA     BIT       TI2
      0000008AH   SFRSYM    DATA     BYTE      TL0
      0000008BH   SFRSYM    DATA     BYTE      TL1
      000000CCH   SFRSYM    DATA     BYTE      TL2
      000000F8H.6 SFRSYM    DATA     BIT       APP_EN
      000000D0H.3 SFRSYM    DATA     BIT       RS0
      000000D0H.4 SFRSYM    DATA     BIT       RS1
      00000088H.4 SFRSYM    DATA     BIT       TR0
      00000093H   SFRSYM    DATA     BYTE      DPC
      00000088H.6 SFRSYM    DATA     BIT       TR1
      000000E5H   SFRSYM    DATA     BYTE      MAC_MODE
      000000C8H.0 SFRSYM    DATA     BIT       TR2
      00000080H.0 SFRSYM    DATA     BIT       TR4
      00000080H.1 SFRSYM    DATA     BIT       TR5
      000000A0H.7 SFRSYM    DATA     BIT       Green_LED2
      00000083H   SFRSYM    DATA     BYTE      DPH
      00000082H   SFRSYM    DATA     BYTE      DPL
      00000099H   SFRSYM    DATA     BYTE      SBUF2
      0000009CH   SFRSYM    DATA     BYTE      SBUF3
      000000D8H   SFRSYM    DATA     BYTE      ADCON
      00000098H   SFRSYM    DATA     BYTE      SCON2
      000000C8H   SFRSYM    DATA     BYTE      T2CON
      0000009BH   SFRSYM    DATA     BYTE      SCON3
      000000E6H   SFRSYM    DATA     BYTE      DIV_MODE
      000000F8H.5 SFRSYM    DATA     BIT       APP_RW
      000000CBH   SFRSYM    DATA     BYTE      TRL2H
      0000008EH   SFRSYM    DATA     BYTE      CKCON
      0000009FH   SFRSYM    DATA     BYTE      SBUF4_RX
      000000ADH   SFRSYM    DATA     BYTE      SBUF5_RX
      000000CAH   SFRSYM    DATA     BYTE      TRL2L
      0000009EH   SFRSYM    DATA     BYTE      SBUF4_TX
      000000ACH   SFRSYM    DATA     BYTE      SBUF5_TX
      000000FEH   SFRSYM    DATA     BYTE      EXADR
      000000D0H.5 SFRSYM    DATA     BIT       F0
      000000D0H.1 SFRSYM    DATA     BIT       F1
      000000D0H   SFRSYM    DATA     BYTE      PSW
      000000C0H   SFRSYM    DATA     BYTE      IRCON

      0100BF9FH   BLOCK     CODE     ---       LVL=0
      0200C96CH   SYMBOL    XDATA    ---       ptr
      0200C96FH   SYMBOL    XDATA    WORD      len
      0100BFADH   BLOCK     CODE     NEAR LAB  LVL=1
      00000007H   SYMBOL    DATA     BYTE      crchi
      00000005H   SYMBOL    DATA     BYTE      crclo
      00000002H   SYMBOL    DATA     WORD      index
      ---         BLOCKEND  ---      ---       LVL=1
      0100BF9FH   LINE      CODE     ---       #57
      0100BFADH   LINE      CODE     ---       #58
      0100BFADH   LINE      CODE     ---       #59
      0100BFAFH   LINE      CODE     ---       #60
      0100BFB1H   LINE      CODE     ---       #62
      0100BFBFH   LINE      CODE     ---       #63
      0100BFBFH   LINE      CODE     ---       #64
      0100BFD0H   LINE      CODE     ---       #65
      0100BFDCH   LINE      CODE     ---       #66
      0100BFE8H   LINE      CODE     ---       #67
      0100BFEAH   LINE      CODE     ---       #68
      0100BFEEH   LINE      CODE     ---       #69
      ---         BLOCKEND  ---      ---       LVL=0

      ---         MODULE    ---      ---       I2C
      0200CFC8H   PUBLIC    XDATA    BYTE      Select_rtc
LX51 LINKER/LOCATER V4.66.97.0                                                        09/27/2023  17:05:17  PAGE 59


      0100CB16H   PUBLIC    CODE     ---       Clock
      0100D133H   PUBLIC    CODE     ---       Clock_1
      01009467H   PUBLIC    CODE     ---       check_rtc_set
      0100A0CAH   PUBLIC    CODE     ---       _rtc_get_week_1
      0100D3BCH   PUBLIC    CODE     ---       _BCD
      0100A4AFH   PUBLIC    CODE     ---       rdtime
      0100A7D0H   PUBLIC    CODE     ---       _rtc_config
      0100A27EH   PUBLIC    CODE     ---       init_rtc_1
      0100CDA2H   PUBLIC    CODE     ---       i2cbr
      0100C502H   PUBLIC    CODE     ---       _i2cbw
      0100CEA2H   PUBLIC    CODE     ---       cack
      0100D345H   PUBLIC    CODE     ---       mnak
      0100D30CH   PUBLIC    CODE     ---       mack
      0100CFDCH   PUBLIC    CODE     ---       i2cstop
      0100D119H   PUBLIC    CODE     ---       i2cstart
      0100CD37H   PUBLIC    CODE     ---       _delayus
      010081BCH   PUBLIC    CODE     ---       RTC_Set_Time
      0100BB9FH   PUBLIC    CODE     ---       Init_Rtc
      010099E5H   PUBLIC    CODE     ---       Read_Time
      010080B6H   PUBLIC    CODE     ---       _RTC_Get_Week
      0100CC01H   PUBLIC    CODE     ---       Rx8130_Read_Byte
      0100AE89H   PUBLIC    CODE     ---       _Rx8130_Writ_Byte
      0100CE7FH   PUBLIC    CODE     ---       Rx8130_Cack
      0100D391H   PUBLIC    CODE     ---       Rx8130_Mnak
      0100D338H   PUBLIC    CODE     ---       Rx8130_Mack
      0100CF3CH   PUBLIC    CODE     ---       Rx8130_Stop
      0100D299H   PUBLIC    CODE     ---       Rx8130_Start
      0100005EH   PUBLIC    CODE     ---       SDA_OUT
      01000056H   PUBLIC    CODE     ---       SDA_IN
      0100D232H   PUBLIC    CODE     ---       Delayus
      000000F1H   SFRSYM    DATA     BYTE      ADR_H
      00000080H   SFRSYM    DATA     BYTE      P0
      00000090H   SFRSYM    DATA     BYTE      P1
      000000A0H   SFRSYM    DATA     BYTE      P2
      000000B0H   SFRSYM    DATA     BYTE      P3
      000000F3H   SFRSYM    DATA     BYTE      ADR_L
      000000D0H.6 SFRSYM    DATA     BIT       AC
      000000A0H.6 SFRSYM    DATA     BIT       Red_LED1
      00000094H   SFRSYM    DATA     BYTE      PAGESEL
      000000F2H   SFRSYM    DATA     BYTE      ADR_M
      000000A8H.7 SFRSYM    DATA     BIT       EA
      000000F8H   SFRSYM    DATA     BYTE      RAMMODE
      000000B7H   SFRSYM    DATA     BYTE      P0MDOUT
      000000BCH   SFRSYM    DATA     BYTE      P1MDOUT
      000000A8H   SFRSYM    DATA     BYTE      IEN0
      000000BDH   SFRSYM    DATA     BYTE      P2MDOUT
      000000B8H   SFRSYM    DATA     BYTE      IEN1
      000000BEH   SFRSYM    DATA     BYTE      P3MDOUT
      0000009AH   SFRSYM    DATA     BYTE      IEN2
      000000F8H.4 SFRSYM    DATA     BIT       APP_ACK
      000000F4H   SFRSYM    DATA     BYTE      ADR_INC
      000000B8H.1 SFRSYM    DATA     BIT       ECAN
      000000D0H.7 SFRSYM    DATA     BIT       CY
      000000B8H.3 SFRSYM    DATA     BIT       ES4R
      000000B8H.5 SFRSYM    DATA     BIT       ES5R
      000000B8H.2 SFRSYM    DATA     BIT       ES4T
      000000B8H.4 SFRSYM    DATA     BIT       ES5T
      000000B0H.3 SFRSYM    DATA     BIT       RTC_SDA
      00000081H   SFRSYM    DATA     BYTE      SP
      000000D0H.2 SFRSYM    DATA     BIT       OV
      00000095H   SFRSYM    DATA     BYTE      D_PAGESEL
      000000F8H.7 SFRSYM    DATA     BIT       APP_REQ
      000000B0H.2 SFRSYM    DATA     BIT       RTC_SCL
      000000BFH   SFRSYM    DATA     BYTE      IRCON2
      00000087H   SFRSYM    DATA     BYTE      PCON
LX51 LINKER/LOCATER V4.66.97.0                                                        09/27/2023  17:05:17  PAGE 60


      000000BAH   SFRSYM    DATA     BYTE      SREL2H
      000000BBH   SFRSYM    DATA     BYTE      SREL3H
      000000F9H   SFRSYM    DATA     BYTE      PORTDRV
      00000089H   SFRSYM    DATA     BYTE      TMOD
      00000088H   SFRSYM    DATA     BYTE      TCON
      000000AAH   SFRSYM    DATA     BYTE      SREL2L
      0000009DH   SFRSYM    DATA     BYTE      SREL3L
      000000FFH   SFRSYM    DATA     BYTE      EXDATA
      00000097H   SFRSYM    DATA     BYTE      SCON4R
      000000ABH   SFRSYM    DATA     BYTE      SCON5R
      000000D9H   SFRSYM    DATA     BYTE      BODE4_DIV_H
      000000AEH   SFRSYM    DATA     BYTE      BODE5_DIV_H
      00000096H   SFRSYM    DATA     BYTE      SCON4T
      000000A7H   SFRSYM    DATA     BYTE      SCON5T
      00000088H.1 SFRSYM    DATA     BIT       IE0
      00000088H.3 SFRSYM    DATA     BIT       IE1
      000000C9H   SFRSYM    DATA     BYTE      MUX_SEL
      000000E7H   SFRSYM    DATA     BYTE      BODE4_DIV_L
      000000AFH   SFRSYM    DATA     BYTE      BODE5_DIV_L
      000000F0H   SFRSYM    DATA     BYTE      B
      000000E0H   SFRSYM    DATA     BYTE      ACC
      0000008FH   SFRSYM    DATA     BYTE      CAN_CR
      000000A9H   SFRSYM    DATA     BYTE      IP0
      000000A8H.1 SFRSYM    DATA     BIT       ET0
      000000B9H   SFRSYM    DATA     BYTE      IP1
      000000A8H.3 SFRSYM    DATA     BIT       ET1
      000000A8H.4 SFRSYM    DATA     BIT       ES2
      00000088H.5 SFRSYM    DATA     BIT       TF0
      000000FDH   SFRSYM    DATA     BYTE      DATA0
      000000A8H.5 SFRSYM    DATA     BIT       ET2
      00000088H.7 SFRSYM    DATA     BIT       TF1
      000000E8H   SFRSYM    DATA     BYTE      CAN_ET
      000000FCH   SFRSYM    DATA     BYTE      DATA1
      000000C0H.6 SFRSYM    DATA     BIT       TF2
      0000008CH   SFRSYM    DATA     BYTE      TH0
      000000FBH   SFRSYM    DATA     BYTE      DATA2
      000000A8H.0 SFRSYM    DATA     BIT       EX0
      00000098H.0 SFRSYM    DATA     BIT       RI2
      0000008DH   SFRSYM    DATA     BYTE      TH1
      00000088H.0 SFRSYM    DATA     BIT       IT0
      00000091H   SFRSYM    DATA     BYTE      CAN_IR
      000000FAH   SFRSYM    DATA     BYTE      DATA3
      000000CDH   SFRSYM    DATA     BYTE      TH2
      000000A8H.2 SFRSYM    DATA     BIT       EX1
      00000088H.2 SFRSYM    DATA     BIT       IT1
      000000D0H.0 SFRSYM    DATA     BIT       P
      00000098H.1 SFRSYM    DATA     BIT       TI2
      0000008AH   SFRSYM    DATA     BYTE      TL0
      0000008BH   SFRSYM    DATA     BYTE      TL1
      000000CCH   SFRSYM    DATA     BYTE      TL2
      000000F8H.6 SFRSYM    DATA     BIT       APP_EN
      000000D0H.3 SFRSYM    DATA     BIT       RS0
      000000D0H.4 SFRSYM    DATA     BIT       RS1
      00000088H.4 SFRSYM    DATA     BIT       TR0
      00000093H   SFRSYM    DATA     BYTE      DPC
      00000088H.6 SFRSYM    DATA     BIT       TR1
      000000E5H   SFRSYM    DATA     BYTE      MAC_MODE
      000000C8H.0 SFRSYM    DATA     BIT       TR2
      00000080H.0 SFRSYM    DATA     BIT       TR4
      00000080H.1 SFRSYM    DATA     BIT       TR5
      000000A0H.7 SFRSYM    DATA     BIT       Green_LED2
      00000083H   SFRSYM    DATA     BYTE      DPH
      00000082H   SFRSYM    DATA     BYTE      DPL
      00000099H   SFRSYM    DATA     BYTE      SBUF2
      0000009CH   SFRSYM    DATA     BYTE      SBUF3
LX51 LINKER/LOCATER V4.66.97.0                                                        09/27/2023  17:05:17  PAGE 61


      000000D8H   SFRSYM    DATA     BYTE      ADCON
      00000098H   SFRSYM    DATA     BYTE      SCON2
      000000C8H   SFRSYM    DATA     BYTE      T2CON
      0000009BH   SFRSYM    DATA     BYTE      SCON3
      000000E6H   SFRSYM    DATA     BYTE      DIV_MODE
      000000F8H.5 SFRSYM    DATA     BIT       APP_RW
      000000CBH   SFRSYM    DATA     BYTE      TRL2H
      0000008EH   SFRSYM    DATA     BYTE      CKCON
      0000009FH   SFRSYM    DATA     BYTE      SBUF4_RX
      000000ADH   SFRSYM    DATA     BYTE      SBUF5_RX
      000000CAH   SFRSYM    DATA     BYTE      TRL2L
      0000009EH   SFRSYM    DATA     BYTE      SBUF4_TX
      000000ACH   SFRSYM    DATA     BYTE      SBUF5_TX
      000000FEH   SFRSYM    DATA     BYTE      EXADR
      000000D0H.5 SFRSYM    DATA     BIT       F0
      000000D0H.1 SFRSYM    DATA     BIT       F1
      000000D0H   SFRSYM    DATA     BYTE      PSW
      000000C0H   SFRSYM    DATA     BYTE      IRCON
      0100EDBEH   SYMBOL    CONST    ---       _?ix1000
      0100EDC6H   SYMBOL    CONST    ---       _?ix1001

      010083BCH   BLOCK     CODE     ---       LVL=0
      ---         BLOCKEND  ---      ---       LVL=0

      0100D22BH   BLOCK     CODE     ---       LVL=0
      ---         BLOCKEND  ---      ---       LVL=0

      0100D232H   BLOCK     CODE     ---       LVL=0
      00000007H   SYMBOL    DATA     BYTE      i
      0100D232H   BLOCK     CODE     NEAR LAB  LVL=1
      00000007H   SYMBOL    DATA     BYTE      i
      ---         BLOCKEND  ---      ---       LVL=1
      0100D232H   LINE      CODE     ---       #16
      0100D232H   LINE      CODE     ---       #17
      0100D232H   LINE      CODE     ---       #19
      0100D241H   LINE      CODE     ---       #21
      ---         BLOCKEND  ---      ---       LVL=0

      01000056H   BLOCK     CODE     ---       LVL=0
      01000056H   LINE      CODE     ---       #23
      ---         BLOCKEND  ---      ---       LVL=0

      0100005EH   BLOCK     CODE     ---       LVL=0
      0100005EH   LINE      CODE     ---       #25
      ---         BLOCKEND  ---      ---       LVL=0

      0100D299H   BLOCK     CODE     ---       LVL=0
      0100D299H   LINE      CODE     ---       #27
      0100D299H   LINE      CODE     ---       #28
      0100D299H   LINE      CODE     ---       #29
      0100D29CH   LINE      CODE     ---       #30
      0100D29EH   LINE      CODE     ---       #31
      0100D2A0H   LINE      CODE     ---       #32
      0100D2A3H   LINE      CODE     ---       #33
      0100D2A5H   LINE      CODE     ---       #34
      0100D2A8H   LINE      CODE     ---       #35
      0100D2AAH   LINE      CODE     ---       #36
      ---         BLOCKEND  ---      ---       LVL=0

      0100CF2DH   BLOCK     CODE     ---       LVL=0
      ---         BLOCKEND  ---      ---       LVL=0

      0100CF3CH   BLOCK     CODE     ---       LVL=0
      0100CF3CH   LINE      CODE     ---       #39
      0100CF3CH   LINE      CODE     ---       #40
LX51 LINKER/LOCATER V4.66.97.0                                                        09/27/2023  17:05:17  PAGE 62


      0100CF3CH   LINE      CODE     ---       #41
      0100CF3FH   LINE      CODE     ---       #42
      0100CF41H   LINE      CODE     ---       #43
      0100CF43H   LINE      CODE     ---       #44
      0100CF46H   LINE      CODE     ---       #45
      0100CF48H   LINE      CODE     ---       #46
      0100CF4BH   LINE      CODE     ---       #47
      ---         BLOCKEND  ---      ---       LVL=0

      0100D338H   BLOCK     CODE     ---       LVL=0
      0100D338H   LINE      CODE     ---       #50
      0100D338H   LINE      CODE     ---       #51
      0100D338H   LINE      CODE     ---       #52
      0100D33BH   LINE      CODE     ---       #53
      0100D33DH   LINE      CODE     ---       #54
      0100D33DH   LINE      CODE     ---       #55
      0100D33DH   LINE      CODE     ---       #56
      0100D340H   LINE      CODE     ---       #57
      0100D342H   LINE      CODE     ---       #58
      ---         BLOCKEND  ---      ---       LVL=0

      0100D391H   BLOCK     CODE     ---       LVL=0
      0100D391H   LINE      CODE     ---       #61
      0100D391H   LINE      CODE     ---       #62
      0100D391H   LINE      CODE     ---       #63
      0100D394H   LINE      CODE     ---       #64
      0100D394H   LINE      CODE     ---       #65
      0100D394H   LINE      CODE     ---       #66
      0100D394H   LINE      CODE     ---       #67
      0100D397H   LINE      CODE     ---       #68
      0100D399H   LINE      CODE     ---       #69
      ---         BLOCKEND  ---      ---       LVL=0

      0100CE7FH   BLOCK     CODE     ---       LVL=0
      0100CE7FH   BLOCK     CODE     NEAR LAB  LVL=1
      00000006H   SYMBOL    DATA     BYTE      i
      ---         BLOCKEND  ---      ---       LVL=1
      0100CE7FH   LINE      CODE     ---       #72
      0100CE7FH   LINE      CODE     ---       #73
      0100CE7FH   LINE      CODE     ---       #75
      0100CE82H   LINE      CODE     ---       #76
      0100CE82H   LINE      CODE     ---       #77
      0100CE82H   LINE      CODE     ---       #78
      0100CE82H   LINE      CODE     ---       #79
      0100CE85H   LINE      CODE     ---       #80
      0100CE91H   LINE      CODE     ---       #81
      0100CE91H   LINE      CODE     ---       #82
      0100CE94H   LINE      CODE     ---       #83
      0100CE94H   LINE      CODE     ---       #84
      0100CE97H   LINE      CODE     ---       #85
      0100CE9AH   LINE      CODE     ---       #86
      0100CE9CH   LINE      CODE     ---       #87
      0100CE9FH   LINE      CODE     ---       #88
      ---         BLOCKEND  ---      ---       LVL=0

      0100AE4BH   BLOCK     CODE     ---       LVL=0
      ---         BLOCKEND  ---      ---       LVL=0

      0100AE89H   BLOCK     CODE     ---       LVL=0
      00000006H   SYMBOL    DATA     BYTE      dat
      00000005H   SYMBOL    DATA     BYTE      i
      0100AE8BH   BLOCK     CODE     NEAR LAB  LVL=1
      00000005H   SYMBOL    DATA     BYTE      i
      ---         BLOCKEND  ---      ---       LVL=1
      0100AE89H   LINE      CODE     ---       #91
LX51 LINKER/LOCATER V4.66.97.0                                                        09/27/2023  17:05:17  PAGE 63


      0100AE8BH   LINE      CODE     ---       #92
      0100AE8BH   LINE      CODE     ---       #94
      0100AE8EH   LINE      CODE     ---       #95
      0100AE9AH   LINE      CODE     ---       #96
      0100AE9AH   LINE      CODE     ---       #97
      0100AE9EH   LINE      CODE     ---       #98
      0100AEA2H   LINE      CODE     ---       #100
      0100AEA4H   LINE      CODE     ---       #101
      0100AEA8H   LINE      CODE     ---       #102
      0100AEA8H   LINE      CODE     ---       #103
      0100AEA8H   LINE      CODE     ---       #104
      0100AEABH   LINE      CODE     ---       #105
      0100AEADH   LINE      CODE     ---       #106
      0100AEB0H   LINE      CODE     ---       #107
      0100AEB3H   LINE      CODE     ---       #108
      ---         BLOCKEND  ---      ---       LVL=0

      0100CC01H   BLOCK     CODE     ---       LVL=0
      0100CC01H   BLOCK     CODE     NEAR LAB  LVL=1
      00000005H   SYMBOL    DATA     BYTE      i
      00000006H   SYMBOL    DATA     BYTE      Dat
      ---         BLOCKEND  ---      ---       LVL=1
      0100CC01H   LINE      CODE     ---       #111
      0100CC01H   LINE      CODE     ---       #112
      0100CC01H   LINE      CODE     ---       #115
      0100CC04H   LINE      CODE     ---       #116
      0100CC10H   LINE      CODE     ---       #117
      0100CC10H   LINE      CODE     ---       #118
      0100CC10H   LINE      CODE     ---       #119
      0100CC10H   LINE      CODE     ---       #120
      0100CC13H   LINE      CODE     ---       #121
      0100CC17H   LINE      CODE     ---       #122
      0100CC1AH   LINE      CODE     ---       #123
      0100CC1FH   LINE      CODE     ---       #125
      0100CC23H   LINE      CODE     ---       #126
      0100CC25H   LINE      CODE     ---       #127
      0100CC28H   LINE      CODE     ---       #128
      0100CC2BH   LINE      CODE     ---       #129
      0100CC2DH   LINE      CODE     ---       #130
      ---         BLOCKEND  ---      ---       LVL=0

      010080B6H   BLOCK     CODE     ---       LVL=0
      00000007H   SYMBOL    DATA     BYTE      years
      0200C85DH   SYMBOL    XDATA    BYTE      month
      0200C85EH   SYMBOL    XDATA    BYTE      day
      010080C0H   BLOCK     CODE     NEAR LAB  LVL=1
      0200C85FH   SYMBOL    XDATA    BYTE      weak
      0200C860H   SYMBOL    XDATA    WORD      year
      ---         BLOCKEND  ---      ---       LVL=1
      010080B6H   LINE      CODE     ---       #132
      010080C0H   LINE      CODE     ---       #133
      010080C0H   LINE      CODE     ---       #136
      010080CEH   LINE      CODE     ---       #137
      010080D9H   LINE      CODE     ---       #138
      010080D9H   LINE      CODE     ---       #139
      010080EAH   LINE      CODE     ---       #140
      010080EAH   LINE      CODE     ---       #141
      01008125H   LINE      CODE     ---       #142
      01008125H   LINE      CODE     ---       #143
      01008156H   LINE      CODE     ---       #144
      01008158H   LINE      CODE     ---       #146
      01008158H   LINE      CODE     ---       #147
      010081B6H   LINE      CODE     ---       #148
      010081B6H   LINE      CODE     ---       #149
      010081BBH   LINE      CODE     ---       #150
LX51 LINKER/LOCATER V4.66.97.0                                                        09/27/2023  17:05:17  PAGE 64


      ---         BLOCKEND  ---      ---       LVL=0

      010099E5H   BLOCK     CODE     ---       LVL=0
      010099E5H   BLOCK     CODE     NEAR LAB  LVL=1
      00000004H   SYMBOL    DATA     BYTE      i
      0200C853H   SYMBOL    XDATA    BYTE      N
      0200C854H   SYMBOL    XDATA    BYTE      M
      0200C855H   SYMBOL    XDATA    ---       Rtcdata
      ---         BLOCKEND  ---      ---       LVL=1
      010099E5H   LINE      CODE     ---       #152
      010099E5H   LINE      CODE     ---       #153
      010099E5H   LINE      CODE     ---       #155
      010099F8H   LINE      CODE     ---       #156
      010099F8H   LINE      CODE     ---       #157
      010099FBH   LINE      CODE     ---       #158
      010099FBH   LINE      CODE     ---       #159
      010099FEH   LINE      CODE     ---       #160
      01009A01H   LINE      CODE     ---       #161
      01009A06H   LINE      CODE     ---       #162
      01009A12H   LINE      CODE     ---       #163
      01009A12H   LINE      CODE     ---       #164
      01009A18H   LINE      CODE     ---       #165
      01009A1BH   LINE      CODE     ---       #166
      01009A1EH   LINE      CODE     ---       #167
      01009A26H   LINE      CODE     ---       #168
      01009A29H   LINE      CODE     ---       #169
      01009A2CH   LINE      CODE     ---       #170
      01009A34H   LINE      CODE     ---       #171
      01009A34H   LINE      CODE     ---       #172
      01009A34H   LINE      CODE     ---       #173
      01009A34H   LINE      CODE     ---       #174
      01009A3AH   LINE      CODE     ---       #175
      01009A3DH   LINE      CODE     ---       #176
      01009A49H   LINE      CODE     ---       #177
      01009A49H   LINE      CODE     ---       #178
      01009A49H   LINE      CODE     ---       #179
      01009A49H   LINE      CODE     ---       #180
      01009A4FH   LINE      CODE     ---       #181
      01009A52H   LINE      CODE     ---       #182
      01009A65H   LINE      CODE     ---       #183
      01009A70H   LINE      CODE     ---       #184
      01009A7BH   LINE      CODE     ---       #185
      01009A86H   LINE      CODE     ---       #186
      ---         BLOCKEND  ---      ---       LVL=0

      0100BB9FH   BLOCK     CODE     ---       LVL=0
      0100BB9FH   BLOCK     CODE     NEAR LAB  LVL=1
      00000004H   SYMBOL    DATA     BYTE      i
      ---         BLOCKEND  ---      ---       LVL=1
      0100BB9FH   LINE      CODE     ---       #189
      0100BB9FH   LINE      CODE     ---       #190
      0100BB9FH   LINE      CODE     ---       #192
      0100BB9FH   LINE      CODE     ---       #193
      0100BBA2H   LINE      CODE     ---       #194
      0100BBA7H   LINE      CODE     ---       #195
      0100BBAAH   LINE      CODE     ---       #196
      0100BBADH   LINE      CODE     ---       #197
      0100BBB2H   LINE      CODE     ---       #198
      0100BBB7H   LINE      CODE     ---       #199
      0100BBBAH   LINE      CODE     ---       #200
      0100BBBDH   LINE      CODE     ---       #201
      0100BBC0H   LINE      CODE     ---       #202
      0100BBC3H   LINE      CODE     ---       #203
      0100BBCAH   LINE      CODE     ---       #204
      0100BBCAH   LINE      CODE     ---       #206
LX51 LINKER/LOCATER V4.66.97.0                                                        09/27/2023  17:05:17  PAGE 65


      0100BBCAH   LINE      CODE     ---       #207
      0100BBCAH   LINE      CODE     ---       #208
      0100BBCAH   LINE      CODE     ---       #209
      0100BBCAH   LINE      CODE     ---       #210
      0100BBCAH   LINE      CODE     ---       #211
      0100BBCAH   LINE      CODE     ---       #212
      0100BBCAH   LINE      CODE     ---       #213
      0100BBCAH   LINE      CODE     ---       #214
      0100BBCAH   LINE      CODE     ---       #215
      0100BBCAH   LINE      CODE     ---       #216
      0100BBCAH   LINE      CODE     ---       #217
      0100BBCAH   LINE      CODE     ---       #218
      0100BBCAH   LINE      CODE     ---       #219
      0100BBCAH   LINE      CODE     ---       #220
      0100BBCDH   LINE      CODE     ---       #221
      0100BBD2H   LINE      CODE     ---       #222
      0100BBD7H   LINE      CODE     ---       #223
      0100BBDCH   LINE      CODE     ---       #224
      0100BBE1H   LINE      CODE     ---       #225
      0100BBE6H   LINE      CODE     ---       #226
      0100BBEBH   LINE      CODE     ---       #227
      0100BBF0H   LINE      CODE     ---       #228
      0100BBF2H   LINE      CODE     ---       #229
      0100BBF2H   LINE      CODE     ---       #230
      0100BBF2H   LINE      CODE     ---       #231
      0100BBF5H   LINE      CODE     ---       #232
      0100BBF5H   LINE      CODE     ---       #233
      0100BBF5H   LINE      CODE     ---       #234
      0100BBF5H   LINE      CODE     ---       #235
      0100BBF8H   LINE      CODE     ---       #236
      0100BBF8H   LINE      CODE     ---       #237
      ---         BLOCKEND  ---      ---       LVL=0

      010081BCH   BLOCK     CODE     ---       LVL=0
      010081BCH   BLOCK     CODE     NEAR LAB  LVL=1
      00000006H   SYMBOL    DATA     WORD      Va
      010081D0H   BLOCK     CODE     NEAR LAB  LVL=2
      0200C853H   SYMBOL    XDATA    BYTE      N
      0200C854H   SYMBOL    XDATA    BYTE      S
      00000020H.1 SYMBOL    BIT      BIT       Flog
      0200C855H   SYMBOL    XDATA    ---       TimeS
      0200C85CH   SYMBOL    XDATA    WORD      V1
      ---         BLOCKEND  ---      ---       LVL=2
      ---         BLOCKEND  ---      ---       LVL=1
      010081BCH   LINE      CODE     ---       #239
      010081BCH   LINE      CODE     ---       #240
      010081BCH   LINE      CODE     ---       #241
      010081C3H   LINE      CODE     ---       #242
      010081D0H   LINE      CODE     ---       #243
      010081D0H   LINE      CODE     ---       #244
      010081D6H   LINE      CODE     ---       #245
      010081D8H   LINE      CODE     ---       #246
      010081EAH   LINE      CODE     ---       #247
      010081ECH   LINE      CODE     ---       #248
      010081ECH   LINE      CODE     ---       #249
      010081F2H   LINE      CODE     ---       #250
      010081F2H   LINE      CODE     ---       #251
      010081FCH   LINE      CODE     ---       #252
      010081FEH   LINE      CODE     ---       #253
      010081FEH   LINE      CODE     ---       #254
      01008204H   LINE      CODE     ---       #255
      01008204H   LINE      CODE     ---       #256
      0100820EH   LINE      CODE     ---       #257
      0100821DH   LINE      CODE     ---       #258
      01008229H   LINE      CODE     ---       #259
LX51 LINKER/LOCATER V4.66.97.0                                                        09/27/2023  17:05:17  PAGE 66


      01008232H   LINE      CODE     ---       #260
      01008232H   LINE      CODE     ---       #261
      0100823CH   LINE      CODE     ---       #264
      01008245H   LINE      CODE     ---       #265
      01008248H   LINE      CODE     ---       #266
      01008248H   LINE      CODE     ---       #267
      01008248H   LINE      CODE     ---       #268
      01008248H   LINE      CODE     ---       #269
      01008248H   LINE      CODE     ---       #270
      01008248H   LINE      CODE     ---       #271
      01008248H   LINE      CODE     ---       #272
      01008248H   LINE      CODE     ---       #273
      01008248H   LINE      CODE     ---       #274
      01008248H   LINE      CODE     ---       #275
      01008248H   LINE      CODE     ---       #276
      01008248H   LINE      CODE     ---       #277
      01008248H   LINE      CODE     ---       #278
      01008248H   LINE      CODE     ---       #279
      01008248H   LINE      CODE     ---       #280
      01008248H   LINE      CODE     ---       #281
      0100824BH   LINE      CODE     ---       #282
      01008250H   LINE      CODE     ---       #283
      01008258H   LINE      CODE     ---       #284
      01008260H   LINE      CODE     ---       #285
      01008268H   LINE      CODE     ---       #286
      01008270H   LINE      CODE     ---       #287
      01008278H   LINE      CODE     ---       #288
      01008280H   LINE      CODE     ---       #289
      01008285H   LINE      CODE     ---       #290
      01008285H   LINE      CODE     ---       #291
      01008285H   LINE      CODE     ---       #292
      01008288H   LINE      CODE     ---       #293
      01008288H   LINE      CODE     ---       #294
      01008288H   LINE      CODE     ---       #295
      01008288H   LINE      CODE     ---       #296
      0100828BH   LINE      CODE     ---       #297
      0100828DH   LINE      CODE     ---       #298
      0100828FH   LINE      CODE     ---       #299
      0100828FH   LINE      CODE     ---       #300
      ---         BLOCKEND  ---      ---       LVL=0

      0100CD2CH   BLOCK     CODE     ---       LVL=0
      ---         BLOCKEND  ---      ---       LVL=0

      0100CD37H   BLOCK     CODE     ---       LVL=0
      00000007H   SYMBOL    DATA     BYTE      t
      00000006H   SYMBOL    DATA     CHAR      i
      0100CD37H   BLOCK     CODE     NEAR LAB  LVL=1
      00000006H   SYMBOL    DATA     CHAR      i
      ---         BLOCKEND  ---      ---       LVL=1
      0100CD37H   LINE      CODE     ---       #304
      0100CD37H   LINE      CODE     ---       #305
      0100CD37H   LINE      CODE     ---       #307
      0100CD3AH   LINE      CODE     ---       #308
      0100CD3AH   LINE      CODE     ---       #309
      0100CD4DH   LINE      CODE     ---       #310
      0100CD4DH   LINE      CODE     ---       #311
      0100CD4DH   LINE      CODE     ---       #312
      0100CD50H   LINE      CODE     ---       #313
      0100CD51H   LINE      CODE     ---       #314
      0100CD53H   LINE      CODE     ---       #315
      ---         BLOCKEND  ---      ---       LVL=0

      0100D119H   BLOCK     CODE     ---       LVL=0
      0100D119H   LINE      CODE     ---       #327
LX51 LINKER/LOCATER V4.66.97.0                                                        09/27/2023  17:05:17  PAGE 67


      0100D119H   LINE      CODE     ---       #328
      0100D119H   LINE      CODE     ---       #329
      0100D11CH   LINE      CODE     ---       #330
      0100D11EH   LINE      CODE     ---       #331
      0100D120H   LINE      CODE     ---       #332
      0100D125H   LINE      CODE     ---       #333
      0100D127H   LINE      CODE     ---       #334
      0100D12CH   LINE      CODE     ---       #335
      0100D12EH   LINE      CODE     ---       #336
      ---         BLOCKEND  ---      ---       LVL=0

      0100CFD2H   BLOCK     CODE     ---       LVL=0
      ---         BLOCKEND  ---      ---       LVL=0

      0100CFDCH   BLOCK     CODE     ---       LVL=0
      0100CFDCH   LINE      CODE     ---       #339
      0100CFDCH   LINE      CODE     ---       #340
      0100CFDCH   LINE      CODE     ---       #341
      0100CFDFH   LINE      CODE     ---       #342
      0100CFE1H   LINE      CODE     ---       #343
      0100CFE3H   LINE      CODE     ---       #344
      0100CFE8H   LINE      CODE     ---       #345
      0100CFEAH   LINE      CODE     ---       #346
      0100CFEFH   LINE      CODE     ---       #347
      ---         BLOCKEND  ---      ---       LVL=0

      0100D30CH   BLOCK     CODE     ---       LVL=0
      0100D30CH   LINE      CODE     ---       #350
      0100D30CH   LINE      CODE     ---       #351
      0100D30CH   LINE      CODE     ---       #352
      0100D30FH   LINE      CODE     ---       #353
      0100D311H   LINE      CODE     ---       #354
      0100D311H   LINE      CODE     ---       #355
      0100D311H   LINE      CODE     ---       #356
      0100D314H   LINE      CODE     ---       #357
      0100D316H   LINE      CODE     ---       #358
      ---         BLOCKEND  ---      ---       LVL=0

      0100D345H   BLOCK     CODE     ---       LVL=0
      0100D345H   LINE      CODE     ---       #361
      0100D345H   LINE      CODE     ---       #362
      0100D345H   LINE      CODE     ---       #363
      0100D348H   LINE      CODE     ---       #364
      0100D348H   LINE      CODE     ---       #365
      0100D348H   LINE      CODE     ---       #366
      0100D348H   LINE      CODE     ---       #367
      0100D34BH   LINE      CODE     ---       #368
      0100D34DH   LINE      CODE     ---       #369
      ---         BLOCKEND  ---      ---       LVL=0

      0100CEA2H   BLOCK     CODE     ---       LVL=0
      0100CEA2H   BLOCK     CODE     NEAR LAB  LVL=1
      00000003H   SYMBOL    DATA     BYTE      i
      ---         BLOCKEND  ---      ---       LVL=1
      0100CEA2H   LINE      CODE     ---       #372
      0100CEA2H   LINE      CODE     ---       #373
      0100CEA2H   LINE      CODE     ---       #375
      0100CEA5H   LINE      CODE     ---       #376
      0100CEA5H   LINE      CODE     ---       #377
      0100CEA5H   LINE      CODE     ---       #378
      0100CEA5H   LINE      CODE     ---       #379
      0100CEA8H   LINE      CODE     ---       #380
      0100CEB4H   LINE      CODE     ---       #381
      0100CEB4H   LINE      CODE     ---       #382
      0100CEB7H   LINE      CODE     ---       #383
LX51 LINKER/LOCATER V4.66.97.0                                                        09/27/2023  17:05:17  PAGE 68


      0100CEB7H   LINE      CODE     ---       #384
      0100CEB7H   LINE      CODE     ---       #385
      0100CEB7H   LINE      CODE     ---       #386
      0100CEBCH   LINE      CODE     ---       #387
      0100CEBFH   LINE      CODE     ---       #388
      0100CEBFH   LINE      CODE     ---       #389
      0100CEC2H   LINE      CODE     ---       #390
      ---         BLOCKEND  ---      ---       LVL=0

      0100C4E4H   BLOCK     CODE     ---       LVL=0
      ---         BLOCKEND  ---      ---       LVL=0

      0100C502H   BLOCK     CODE     ---       LVL=0
      00000003H   SYMBOL    DATA     BYTE      dat
      00000002H   SYMBOL    DATA     CHAR      i
      0100C504H   BLOCK     CODE     NEAR LAB  LVL=1
      00000002H   SYMBOL    DATA     CHAR      i
      ---         BLOCKEND  ---      ---       LVL=1
      0100C502H   LINE      CODE     ---       #394
      0100C504H   LINE      CODE     ---       #395
      0100C504H   LINE      CODE     ---       #397
      0100C507H   LINE      CODE     ---       #398
      0100C50EH   LINE      CODE     ---       #399
      0100C50EH   LINE      CODE     ---       #400
      0100C512H   LINE      CODE     ---       #401
      0100C512H   LINE      CODE     ---       #402
      0100C514H   LINE      CODE     ---       #403
      0100C516H   LINE      CODE     ---       #405
      0100C516H   LINE      CODE     ---       #406
      0100C518H   LINE      CODE     ---       #407
      0100C518H   LINE      CODE     ---       #408
      0100C51CH   LINE      CODE     ---       #409
      0100C51CH   LINE      CODE     ---       #410
      0100C51CH   LINE      CODE     ---       #411
      0100C51FH   LINE      CODE     ---       #412
      0100C51FH   LINE      CODE     ---       #413
      0100C522H   LINE      CODE     ---       #414
      0100C525H   LINE      CODE     ---       #415
      ---         BLOCKEND  ---      ---       LVL=0

      0100CDA2H   BLOCK     CODE     ---       LVL=0
      0100CDA2H   BLOCK     CODE     NEAR LAB  LVL=1
      00000002H   SYMBOL    DATA     CHAR      i
      00000003H   SYMBOL    DATA     BYTE      dat
      ---         BLOCKEND  ---      ---       LVL=1
      0100CDA2H   LINE      CODE     ---       #419
      0100CDA2H   LINE      CODE     ---       #420
      0100CDA2H   LINE      CODE     ---       #423
      0100CDA5H   LINE      CODE     ---       #424
      0100CDACH   LINE      CODE     ---       #425
      0100CDACH   LINE      CODE     ---       #426
      0100CDACH   LINE      CODE     ---       #427
      0100CDACH   LINE      CODE     ---       #428
      0100CDAFH   LINE      CODE     ---       #429
      0100CDB3H   LINE      CODE     ---       #430
      0100CDB6H   LINE      CODE     ---       #431
      0100CDB6H   LINE      CODE     ---       #432
      0100CDB9H   LINE      CODE     ---       #433
      0100CDBBH   LINE      CODE     ---       #435
      0100CDBBH   LINE      CODE     ---       #436
      0100CDBFH   LINE      CODE     ---       #437
      0100CDBFH   LINE      CODE     ---       #439
      0100CDBFH   LINE      CODE     ---       #440
      0100CDC2H   LINE      CODE     ---       #441
      0100CDC5H   LINE      CODE     ---       #442
LX51 LINKER/LOCATER V4.66.97.0                                                        09/27/2023  17:05:17  PAGE 69


      0100CDC7H   LINE      CODE     ---       #443
      ---         BLOCKEND  ---      ---       LVL=0

      0100A27EH   BLOCK     CODE     ---       LVL=0
      0100A27EH   BLOCK     CODE     NEAR LAB  LVL=1
      0200C853H   SYMBOL    XDATA    BYTE      dat1
      00000001H   SYMBOL    DATA     BYTE      dat2
      ---         BLOCKEND  ---      ---       LVL=1
      0100A27EH   LINE      CODE     ---       #446
      0100A27EH   LINE      CODE     ---       #447
      0100A27EH   LINE      CODE     ---       #450
      0100A27EH   LINE      CODE     ---       #451
      0100A281H   LINE      CODE     ---       #452
      0100A281H   LINE      CODE     ---       #453
      0100A281H   LINE      CODE     ---       #454
      0100A284H   LINE      CODE     ---       #455
      0100A289H   LINE      CODE     ---       #456
      0100A28CH   LINE      CODE     ---       #457
      0100A292H   LINE      CODE     ---       #458
      0100A292H   LINE      CODE     ---       #459
      0100A295H   LINE      CODE     ---       #460
      0100A299H   LINE      CODE     ---       #461
      0100A299H   LINE      CODE     ---       #462
      0100A29DH   LINE      CODE     ---       #463
      0100A29DH   LINE      CODE     ---       #464
      0100A2A1H   LINE      CODE     ---       #465
      0100A2A1H   LINE      CODE     ---       #466
      0100A2A4H   LINE      CODE     ---       #467
      0100A2A4H   LINE      CODE     ---       #468
      0100A2A4H   LINE      CODE     ---       #469
      0100A2A7H   LINE      CODE     ---       #470
      0100A2A7H   LINE      CODE     ---       #471
      0100A2ABH   LINE      CODE     ---       #473
      0100A2B2H   LINE      CODE     ---       #474
      0100A2B2H   LINE      CODE     ---       #475
      0100A2B5H   LINE      CODE     ---       #476
      0100A2B5H   LINE      CODE     ---       #477
      0100A2B8H   LINE      CODE     ---       #478
      0100A2B8H   LINE      CODE     ---       #479
      0100A2B8H   LINE      CODE     ---       #480
      0100A2BBH   LINE      CODE     ---       #481
      0100A2BBH   LINE      CODE     ---       #484
      0100A2C2H   LINE      CODE     ---       #485
      0100A2C2H   LINE      CODE     ---       #486
      0100A2C5H   LINE      CODE     ---       #487
      0100A2C5H   LINE      CODE     ---       #488
      0100A2C5H   LINE      CODE     ---       #489
      0100A2C8H   LINE      CODE     ---       #490
      0100A2CCH   LINE      CODE     ---       #491
      0100A2CCH   LINE      CODE     ---       #492
      0100A2CFH   LINE      CODE     ---       #493
      0100A2D4H   LINE      CODE     ---       #494
      0100A2D6H   LINE      CODE     ---       #495
      0100A2D6H   LINE      CODE     ---       #498
      0100A2D6H   LINE      CODE     ---       #499
      0100A2D9H   LINE      CODE     ---       #500
      0100A2DEH   LINE      CODE     ---       #501
      0100A2E3H   LINE      CODE     ---       #502
      0100A2E8H   LINE      CODE     ---       #503
      0100A2EDH   LINE      CODE     ---       #504
      0100A2F2H   LINE      CODE     ---       #505
      0100A2F7H   LINE      CODE     ---       #506
      0100A2FCH   LINE      CODE     ---       #507
      0100A2FEH   LINE      CODE     ---       #508
      0100A301H   LINE      CODE     ---       #509
LX51 LINKER/LOCATER V4.66.97.0                                                        09/27/2023  17:05:17  PAGE 70


      0100A305H   LINE      CODE     ---       #510
      0100A305H   LINE      CODE     ---       #511
      0100A305H   LINE      CODE     ---       #512
      0100A305H   LINE      CODE     ---       #513
      0100A305H   LINE      CODE     ---       #514
      0100A305H   LINE      CODE     ---       #515
      0100A305H   LINE      CODE     ---       #516
      0100A305H   LINE      CODE     ---       #517
      0100A308H   LINE      CODE     ---       #518
      0100A308H   LINE      CODE     ---       #519
      0100A308H   LINE      CODE     ---       #520
      0100A30BH   LINE      CODE     ---       #521
      0100A30BH   LINE      CODE     ---       #522
      ---         BLOCKEND  ---      ---       LVL=0

      0100A7D0H   BLOCK     CODE     ---       LVL=0
      0200C863H   SYMBOL    XDATA    ---       prtc_set
      0100A7D6H   BLOCK     CODE     NEAR LAB  LVL=1
      0200C866H   SYMBOL    XDATA    BYTE      dat
      0200C867H   SYMBOL    XDATA    BYTE      dat1
      ---         BLOCKEND  ---      ---       LVL=1
      0100A7D0H   LINE      CODE     ---       #524
      0100A7D6H   LINE      CODE     ---       #525
      0100A7D6H   LINE      CODE     ---       #527
      0100A7D6H   LINE      CODE     ---       #528
      0100A7D9H   LINE      CODE     ---       #529
      0100A7D9H   LINE      CODE     ---       #530
      0100A7D9H   LINE      CODE     ---       #531
      0100A7DCH   LINE      CODE     ---       #532
      0100A7E4H   LINE      CODE     ---       #533
      0100A7E7H   LINE      CODE     ---       #534
      0100A7EBH   LINE      CODE     ---       #535
      0100A7EBH   LINE      CODE     ---       #536
      0100A7EEH   LINE      CODE     ---       #537
      0100A7F2H   LINE      CODE     ---       #538
      0100A7F2H   LINE      CODE     ---       #539
      0100A7F5H   LINE      CODE     ---       #540
      0100A7F5H   LINE      CODE     ---       #541
      0100A7F5H   LINE      CODE     ---       #542
      0100A7F8H   LINE      CODE     ---       #543
      0100A7FFH   LINE      CODE     ---       #544
      0100A7FFH   LINE      CODE     ---       #545
      0100A802H   LINE      CODE     ---       #546
      0100A804H   LINE      CODE     ---       #547
      0100A804H   LINE      CODE     ---       #548
      0100A804H   LINE      CODE     ---       #550
      0100A804H   LINE      CODE     ---       #551
      0100A807H   LINE      CODE     ---       #552
      0100A808H   LINE      CODE     ---       #553
      0100A80EH   LINE      CODE     ---       #554
      0100A814H   LINE      CODE     ---       #555
      0100A81AH   LINE      CODE     ---       #556
      0100A820H   LINE      CODE     ---       #557
      0100A826H   LINE      CODE     ---       #558
      0100A82CH   LINE      CODE     ---       #559
      0100A832H   LINE      CODE     ---       #560
      0100A835H   LINE      CODE     ---       #561
      0100A83CH   LINE      CODE     ---       #562
      0100A83DH   LINE      CODE     ---       #563
      0100A83DH   LINE      CODE     ---       #564
      0100A83DH   LINE      CODE     ---       #565
      0100A83DH   LINE      CODE     ---       #566
      0100A83DH   LINE      CODE     ---       #567
      0100A83DH   LINE      CODE     ---       #568
      0100A83DH   LINE      CODE     ---       #569
LX51 LINKER/LOCATER V4.66.97.0                                                        09/27/2023  17:05:17  PAGE 71


      0100A840H   LINE      CODE     ---       #570
      0100A845H   LINE      CODE     ---       #571
      0100A84DH   LINE      CODE     ---       #572
      ---         BLOCKEND  ---      ---       LVL=0

      0100A4AFH   BLOCK     CODE     ---       LVL=0
      0100A4AFH   BLOCK     CODE     NEAR LAB  LVL=1
      0200C853H   SYMBOL    XDATA    ---       rtcdata
      00000001H   SYMBOL    DATA     BYTE      i
      0200C85BH   SYMBOL    XDATA    BYTE      n
      0200C85CH   SYMBOL    XDATA    BYTE      m
      ---         BLOCKEND  ---      ---       LVL=1
      0100A4AFH   LINE      CODE     ---       #576
      0100A4AFH   LINE      CODE     ---       #577
      0100A4AFH   LINE      CODE     ---       #580
      0100A4AFH   LINE      CODE     ---       #581
      0100A4B2H   LINE      CODE     ---       #582
      0100A4B4H   LINE      CODE     ---       #583
      0100A4B4H   LINE      CODE     ---       #584
      0100A4B7H   LINE      CODE     ---       #585
      0100A4C3H   LINE      CODE     ---       #586
      0100A4C3H   LINE      CODE     ---       #587
      0100A4CBH   LINE      CODE     ---       #588
      0100A4CEH   LINE      CODE     ---       #589
      0100A4D1H   LINE      CODE     ---       #590
      0100A4D7H   LINE      CODE     ---       #591
      0100A4D7H   LINE      CODE     ---       #592
      0100A4DAH   LINE      CODE     ---       #593
      0100A4E1H   LINE      CODE     ---       #594
      0100A4E9H   LINE      CODE     ---       #595
      0100A4E9H   LINE      CODE     ---       #596
      0100A4F0H   LINE      CODE     ---       #597
      0100A4F0H   LINE      CODE     ---       #598
      0100A4F8H   LINE      CODE     ---       #599
      0100A4FBH   LINE      CODE     ---       #600
      0100A507H   LINE      CODE     ---       #601
      0100A507H   LINE      CODE     ---       #602
      0100A513H   LINE      CODE     ---       #603
      0100A513H   LINE      CODE     ---       #604
      0100A51BH   LINE      CODE     ---       #605
      0100A51EH   LINE      CODE     ---       #607
      0100A523H   LINE      CODE     ---       #608
      ---         BLOCKEND  ---      ---       LVL=0

      0100D3BCH   BLOCK     CODE     ---       LVL=0
      00000007H   SYMBOL    DATA     BYTE      dat
      0100D3BCH   LINE      CODE     ---       #621
      0100D3BCH   LINE      CODE     ---       #622
      0100D3BCH   LINE      CODE     ---       #623
      0100D3C4H   LINE      CODE     ---       #624
      ---         BLOCKEND  ---      ---       LVL=0

      0100A0CAH   BLOCK     CODE     ---       LVL=0
      00000004H   SYMBOL    DATA     BYTE      year
      00000005H   SYMBOL    DATA     BYTE      month
      0200C863H   SYMBOL    XDATA    BYTE      day
      0100A0D1H   BLOCK     CODE     NEAR LAB  LVL=1
      00000006H   SYMBOL    DATA     WORD      tmp
      0200C864H   SYMBOL    XDATA    WORD      mon
      0200C866H   SYMBOL    XDATA    WORD      y
      00000007H   SYMBOL    DATA     BYTE      week
      ---         BLOCKEND  ---      ---       LVL=1
      0100A0CAH   LINE      CODE     ---       #631
      0100A0D1H   LINE      CODE     ---       #632
      0100A0D1H   LINE      CODE     ---       #635
LX51 LINKER/LOCATER V4.66.97.0                                                        09/27/2023  17:05:17  PAGE 72


      0100A0DEH   LINE      CODE     ---       #636
      0100A0DEH   LINE      CODE     ---       #637
      0100A0EBH   LINE      CODE     ---       #638
      0100A0F7H   LINE      CODE     ---       #639
      0100A0F9H   LINE      CODE     ---       #641
      0100A0F9H   LINE      CODE     ---       #642
      0100A103H   LINE      CODE     ---       #643
      0100A10BH   LINE      CODE     ---       #644
      0100A10BH   LINE      CODE     ---       #645
      0100A156H   LINE      CODE     ---       #646
      0100A15DH   LINE      CODE     ---       #647
      0100A15DH   LINE      CODE     ---       #648
      ---         BLOCKEND  ---      ---       LVL=0

      01009467H   BLOCK     CODE     ---       LVL=0
      01009467H   BLOCK     CODE     NEAR LAB  LVL=1
      0200C853H   SYMBOL    XDATA    ---       rtc_parm
      0200C85BH   SYMBOL    XDATA    ---       rtc_set
      ---         BLOCKEND  ---      ---       LVL=1
      01009467H   LINE      CODE     ---       #650
      01009467H   LINE      CODE     ---       #651
      01009467H   LINE      CODE     ---       #653
      0100947DH   LINE      CODE     ---       #654
      01009491H   LINE      CODE     ---       #655
      01009491H   LINE      CODE     ---       #656
      0100949CH   LINE      CODE     ---       #657
      010094A9H   LINE      CODE     ---       #658
      010094B6H   LINE      CODE     ---       #659
      010094C9H   LINE      CODE     ---       #660
      010094D6H   LINE      CODE     ---       #661
      010094D9H   LINE      CODE     ---       #662
      010094E6H   LINE      CODE     ---       #663
      010094F3H   LINE      CODE     ---       #664
      010094FCH   LINE      CODE     ---       #665
      01009501H   LINE      CODE     ---       #666
      01009503H   LINE      CODE     ---       #667
      01009518H   LINE      CODE     ---       #668
      01009518H   LINE      CODE     ---       #669
      ---         BLOCKEND  ---      ---       LVL=0

      0100D133H   BLOCK     CODE     ---       LVL=0
      0100D133H   LINE      CODE     ---       #671
      0100D133H   LINE      CODE     ---       #672
      0100D133H   LINE      CODE     ---       #674
      0100D136H   LINE      CODE     ---       #675
      0100D136H   LINE      CODE     ---       #676
      0100D138H   LINE      CODE     ---       #677
      0100D13BH   LINE      CODE     ---       #678
      0100D13BH   LINE      CODE     ---       #679
      0100D140H   LINE      CODE     ---       #680
      0100D140H   LINE      CODE     ---       #681
      0100D143H   LINE      CODE     ---       #682
      0100D14AH   LINE      CODE     ---       #683
      0100D14AH   LINE      CODE     ---       #684
      ---         BLOCKEND  ---      ---       LVL=0

      0100CB16H   BLOCK     CODE     ---       LVL=0
      0100CB16H   BLOCK     CODE     NEAR LAB  LVL=1
      00000020H.0 SYMBOL    BIT      BIT       k
      ---         BLOCKEND  ---      ---       LVL=1
      0100CB16H   LINE      CODE     ---       #690
      0100CB16H   LINE      CODE     ---       #691
      0100CB16H   LINE      CODE     ---       #692
      0100CB18H   LINE      CODE     ---       #693
      0100CB1AH   LINE      CODE     ---       #695
LX51 LINKER/LOCATER V4.66.97.0                                                        09/27/2023  17:05:17  PAGE 73


      0100CB22H   LINE      CODE     ---       #696
      0100CB22H   LINE      CODE     ---       #697
      0100CB25H   LINE      CODE     ---       #698
      0100CB25H   LINE      CODE     ---       #699
      0100CB27H   LINE      CODE     ---       #700
      0100CB2AH   LINE      CODE     ---       #701
      0100CB2AH   LINE      CODE     ---       #702
      0100CB2FH   LINE      CODE     ---       #703
      0100CB2FH   LINE      CODE     ---       #704
      0100CB32H   LINE      CODE     ---       #705
      0100CB39H   LINE      CODE     ---       #706
      0100CB39H   LINE      CODE     ---       #707
      0100CB3CH   LINE      CODE     ---       #708
      0100CB3CH   LINE      CODE     ---       #709
      0100CB44H   LINE      CODE     ---       #710
      0100CB44H   LINE      CODE     ---       #711
      0100CB47H   LINE      CODE     ---       #712
      0100CB47H   LINE      CODE     ---       #714
      ---         BLOCKEND  ---      ---       LVL=0

      ---         MODULE    ---      ---       UART
      0200940FH   PUBLIC    XDATA    BYTE      R_OD5
      0200940EH   PUBLIC    XDATA    BYTE      R_OD4
      0200940DH   PUBLIC    XDATA    BYTE      R_OD3
      0200940BH   PUBLIC    XDATA    WORD      R_CN5
      0200940AH   PUBLIC    XDATA    BYTE      R_OD2
      02009408H   PUBLIC    XDATA    WORD      R_CN4
      02009406H   PUBLIC    XDATA    WORD      R_CN3
      02009404H   PUBLIC    XDATA    WORD      R_CN2
      00000021H.7 PUBLIC    BIT      BIT       Response_flog
      02008C04H   PUBLIC    XDATA    ---       R_u5
      02008BF0H   PUBLIC    XDATA    ---       R_u3
      00000021H.6 PUBLIC    BIT      BIT       Busy5
      00000021H.5 PUBLIC    BIT      BIT       Busy4
      020083F0H   PUBLIC    XDATA    ---       R_u2
      00000021H.4 PUBLIC    BIT      BIT       Busy3
      00000021H.3 PUBLIC    BIT      BIT       Busy2
      020083EFH   PUBLIC    XDATA    BYTE      T_O5
      020083EEH   PUBLIC    XDATA    BYTE      T_O4
      020083EDH   PUBLIC    XDATA    BYTE      T_O3
      020083ECH   PUBLIC    XDATA    BYTE      T_O2
      020083E9H   PUBLIC    XDATA    ---       base64char
      02008001H   PUBLIC    XDATA    ---       HR
      02008000H   PUBLIC    XDATA    BYTE      i_test
      00000021H.2 PUBLIC    BIT      BIT       Crc_check_flog
      00000021H.1 PUBLIC    BIT      BIT       Auto_data_upload
      0100D379H   PUBLIC    CODE     ---       _putchar
      0100BBF9H   PUBLIC    CODE     ---       uart2_Risr
      0100B3DDH   PUBLIC    CODE     ---       uart3_Risr
      0100D44DH   PUBLIC    CODE     ---       uart5_Tisr
      0100C03FH   PUBLIC    CODE     ---       uart5_Risr
      0100D447H   PUBLIC    CODE     ---       uart4_Tisr
      0100BA31H   PUBLIC    CODE     ---       uart4_Risr
      0100A30CH   PUBLIC    CODE     ---       uart_frame_deal
      00000020H.0 PUBLIC    BIT      BIT       ?_deal_uart_data?BIT
      0200C853H   PUBLIC    XDATA    BYTE      ?_deal_uart_data?BYTE
      0100867EH   PUBLIC    CODE     ---       _deal_uart_data
      0200C95BH   PUBLIC    XDATA    BYTE      ?_deal_83_cmd?BYTE
      01006906H   PUBLIC    CODE     ---       _deal_83_cmd
      01006DAEH   PUBLIC    CODE     ---       _deal_82_cmd
      0100BCBDH   PUBLIC    CODE     ---       _uart_send_byte
      0100CF90H   PUBLIC    CODE     ---       uart_init
      0100CF6FH   PUBLIC    CODE     ---       _Uart5_Init
      0100CF4EH   PUBLIC    CODE     ---       _Uart4_Init
      0100C905H   PUBLIC    CODE     ---       _Uart2_Init
LX51 LINKER/LOCATER V4.66.97.0                                                        09/27/2023  17:05:17  PAGE 74


      000000F1H   SFRSYM    DATA     BYTE      ADR_H
      00000080H   SFRSYM    DATA     BYTE      P0
      00000090H   SFRSYM    DATA     BYTE      P1
      000000A0H   SFRSYM    DATA     BYTE      P2
      000000B0H   SFRSYM    DATA     BYTE      P3
      000000F3H   SFRSYM    DATA     BYTE      ADR_L
      000000D0H.6 SFRSYM    DATA     BIT       AC
      000000A0H.6 SFRSYM    DATA     BIT       Red_LED1
      00000094H   SFRSYM    DATA     BYTE      PAGESEL
      000000F2H   SFRSYM    DATA     BYTE      ADR_M
      000000A8H.7 SFRSYM    DATA     BIT       EA
      000000F8H   SFRSYM    DATA     BYTE      RAMMODE
      000000B7H   SFRSYM    DATA     BYTE      P0MDOUT
      000000BCH   SFRSYM    DATA     BYTE      P1MDOUT
      000000A8H   SFRSYM    DATA     BYTE      IEN0
      000000BDH   SFRSYM    DATA     BYTE      P2MDOUT
      000000B8H   SFRSYM    DATA     BYTE      IEN1
      000000BEH   SFRSYM    DATA     BYTE      P3MDOUT
      0000009AH   SFRSYM    DATA     BYTE      IEN2
      000000F8H.4 SFRSYM    DATA     BIT       APP_ACK
      000000F4H   SFRSYM    DATA     BYTE      ADR_INC
      000000B8H.1 SFRSYM    DATA     BIT       ECAN
      000000D0H.7 SFRSYM    DATA     BIT       CY
      000000B8H.3 SFRSYM    DATA     BIT       ES4R
      000000B8H.5 SFRSYM    DATA     BIT       ES5R
      000000B8H.2 SFRSYM    DATA     BIT       ES4T
      000000B8H.4 SFRSYM    DATA     BIT       ES5T
      000000B0H.3 SFRSYM    DATA     BIT       RTC_SDA
      00000081H   SFRSYM    DATA     BYTE      SP
      000000D0H.2 SFRSYM    DATA     BIT       OV
      00000095H   SFRSYM    DATA     BYTE      D_PAGESEL
      000000F8H.7 SFRSYM    DATA     BIT       APP_REQ
      000000B0H.2 SFRSYM    DATA     BIT       RTC_SCL
      000000BFH   SFRSYM    DATA     BYTE      IRCON2
      00000087H   SFRSYM    DATA     BYTE      PCON
      000000BAH   SFRSYM    DATA     BYTE      SREL2H
      000000BBH   SFRSYM    DATA     BYTE      SREL3H
      000000F9H   SFRSYM    DATA     BYTE      PORTDRV
      00000089H   SFRSYM    DATA     BYTE      TMOD
      00000088H   SFRSYM    DATA     BYTE      TCON
      000000AAH   SFRSYM    DATA     BYTE      SREL2L
      0000009DH   SFRSYM    DATA     BYTE      SREL3L
      000000FFH   SFRSYM    DATA     BYTE      EXDATA
      00000097H   SFRSYM    DATA     BYTE      SCON4R
      000000ABH   SFRSYM    DATA     BYTE      SCON5R
      000000D9H   SFRSYM    DATA     BYTE      BODE4_DIV_H
      000000AEH   SFRSYM    DATA     BYTE      BODE5_DIV_H
      00000096H   SFRSYM    DATA     BYTE      SCON4T
      000000A7H   SFRSYM    DATA     BYTE      SCON5T
      00000088H.1 SFRSYM    DATA     BIT       IE0
      00000088H.3 SFRSYM    DATA     BIT       IE1
      000000C9H   SFRSYM    DATA     BYTE      MUX_SEL
      000000E7H   SFRSYM    DATA     BYTE      BODE4_DIV_L
      000000AFH   SFRSYM    DATA     BYTE      BODE5_DIV_L
      000000F0H   SFRSYM    DATA     BYTE      B
      000000E0H   SFRSYM    DATA     BYTE      ACC
      0000008FH   SFRSYM    DATA     BYTE      CAN_CR
      000000A9H   SFRSYM    DATA     BYTE      IP0
      000000A8H.1 SFRSYM    DATA     BIT       ET0
      000000B9H   SFRSYM    DATA     BYTE      IP1
      000000A8H.3 SFRSYM    DATA     BIT       ET1
      000000A8H.4 SFRSYM    DATA     BIT       ES2
      00000088H.5 SFRSYM    DATA     BIT       TF0
      000000FDH   SFRSYM    DATA     BYTE      DATA0
      000000A8H.5 SFRSYM    DATA     BIT       ET2
LX51 LINKER/LOCATER V4.66.97.0                                                        09/27/2023  17:05:17  PAGE 75


      00000088H.7 SFRSYM    DATA     BIT       TF1
      000000E8H   SFRSYM    DATA     BYTE      CAN_ET
      000000FCH   SFRSYM    DATA     BYTE      DATA1
      000000C0H.6 SFRSYM    DATA     BIT       TF2
      0000008CH   SFRSYM    DATA     BYTE      TH0
      000000FBH   SFRSYM    DATA     BYTE      DATA2
      000000A8H.0 SFRSYM    DATA     BIT       EX0
      00000098H.0 SFRSYM    DATA     BIT       RI2
      0000008DH   SFRSYM    DATA     BYTE      TH1
      00000088H.0 SFRSYM    DATA     BIT       IT0
      00000091H   SFRSYM    DATA     BYTE      CAN_IR
      000000FAH   SFRSYM    DATA     BYTE      DATA3
      000000CDH   SFRSYM    DATA     BYTE      TH2
      000000A8H.2 SFRSYM    DATA     BIT       EX1
      00000088H.2 SFRSYM    DATA     BIT       IT1
      000000D0H.0 SFRSYM    DATA     BIT       P
      00000098H.1 SFRSYM    DATA     BIT       TI2
      0000008AH   SFRSYM    DATA     BYTE      TL0
      0000008BH   SFRSYM    DATA     BYTE      TL1
      000000CCH   SFRSYM    DATA     BYTE      TL2
      000000F8H.6 SFRSYM    DATA     BIT       APP_EN
      000000D0H.3 SFRSYM    DATA     BIT       RS0
      000000D0H.4 SFRSYM    DATA     BIT       RS1
      00000088H.4 SFRSYM    DATA     BIT       TR0
      00000093H   SFRSYM    DATA     BYTE      DPC
      00000088H.6 SFRSYM    DATA     BIT       TR1
      000000E5H   SFRSYM    DATA     BYTE      MAC_MODE
      000000C8H.0 SFRSYM    DATA     BIT       TR2
      00000080H.0 SFRSYM    DATA     BIT       TR4
      00000080H.1 SFRSYM    DATA     BIT       TR5
      000000A0H.7 SFRSYM    DATA     BIT       Green_LED2
      00000083H   SFRSYM    DATA     BYTE      DPH
      00000082H   SFRSYM    DATA     BYTE      DPL
      00000099H   SFRSYM    DATA     BYTE      SBUF2
      0000009CH   SFRSYM    DATA     BYTE      SBUF3
      000000D8H   SFRSYM    DATA     BYTE      ADCON
      00000098H   SFRSYM    DATA     BYTE      SCON2
      000000C8H   SFRSYM    DATA     BYTE      T2CON
      0000009BH   SFRSYM    DATA     BYTE      SCON3
      000000E6H   SFRSYM    DATA     BYTE      DIV_MODE
      000000F8H.5 SFRSYM    DATA     BIT       APP_RW
      000000CBH   SFRSYM    DATA     BYTE      TRL2H
      0000008EH   SFRSYM    DATA     BYTE      CKCON
      0000009FH   SFRSYM    DATA     BYTE      SBUF4_RX
      000000ADH   SFRSYM    DATA     BYTE      SBUF5_RX
      000000CAH   SFRSYM    DATA     BYTE      TRL2L
      0000009EH   SFRSYM    DATA     BYTE      SBUF4_TX
      000000ACH   SFRSYM    DATA     BYTE      SBUF5_TX
      000000FEH   SFRSYM    DATA     BYTE      EXADR
      000000D0H.5 SFRSYM    DATA     BIT       F0
      000000D0H.1 SFRSYM    DATA     BIT       F1
      000000D0H   SFRSYM    DATA     BYTE      PSW
      000000C0H   SFRSYM    DATA     BYTE      IRCON
      0100EA0EH   SYMBOL    CONST    ---       _?ix1000
      0100EA16H   SYMBOL    CONST    ---       _?ix1001
      0100EA7AH   SYMBOL    CONST    ---       _?ix1002
      0100EA80H   SYMBOL    CONST    ---       _?ix1003
      0100EA88H   SYMBOL    CONST    ---       _?ix1004

      01006AADH   BLOCK     CODE     ---       LVL=0
      ---         BLOCKEND  ---      ---       LVL=0
      00000005H   SYMBOL    DATA     CHAR      c

      0100C905H   BLOCK     CODE     ---       LVL=0
      0200C853H   SYMBOL    XDATA    DWORD     baud_rate
LX51 LINKER/LOCATER V4.66.97.0                                                        09/27/2023  17:05:17  PAGE 76


      0100C90BH   BLOCK     CODE     NEAR LAB  LVL=1
      00000004H   SYMBOL    DATA     WORD      i
      ---         BLOCKEND  ---      ---       LVL=1
      0100C905H   LINE      CODE     ---       #136
      0100C90BH   LINE      CODE     ---       #137
      0100C90BH   LINE      CODE     ---       #138
      0100C90EH   LINE      CODE     ---       #139
      0100C924H   LINE      CODE     ---       #140
      0100C926H   LINE      CODE     ---       #141
      0100C92AH   LINE      CODE     ---       #142
      0100C92DH   LINE      CODE     ---       #143
      0100C930H   LINE      CODE     ---       #144
      0100C933H   LINE      CODE     ---       #145
      0100C936H   LINE      CODE     ---       #146
      0100C939H   LINE      CODE     ---       #147
      0100C93BH   LINE      CODE     ---       #148
      ---         BLOCKEND  ---      ---       LVL=0

      0100CF4EH   BLOCK     CODE     ---       LVL=0
      0200C853H   SYMBOL    XDATA    DWORD     baud_rate
      0100CF54H   BLOCK     CODE     NEAR LAB  LVL=1
      00000004H   SYMBOL    DATA     WORD      i
      ---         BLOCKEND  ---      ---       LVL=1
      0100CF4EH   LINE      CODE     ---       #167
      0100CF54H   LINE      CODE     ---       #168
      0100CF54H   LINE      CODE     ---       #169
      0100CF54H   LINE      CODE     ---       #170
      0100CF57H   LINE      CODE     ---       #171
      0100CF5CH   LINE      CODE     ---       #172
      0100CF60H   LINE      CODE     ---       #173
      0100CF63H   LINE      CODE     ---       #174
      0100CF66H   LINE      CODE     ---       #175
      0100CF68H   LINE      CODE     ---       #176
      0100CF6AH   LINE      CODE     ---       #177
      0100CF6CH   LINE      CODE     ---       #178
      0100CF6EH   LINE      CODE     ---       #179
      ---         BLOCKEND  ---      ---       LVL=0

      0100CF6FH   BLOCK     CODE     ---       LVL=0
      0200C853H   SYMBOL    XDATA    DWORD     baud_rate
      0100CF75H   BLOCK     CODE     NEAR LAB  LVL=1
      00000004H   SYMBOL    DATA     WORD      i
      ---         BLOCKEND  ---      ---       LVL=1
      0100CF6FH   LINE      CODE     ---       #183
      0100CF75H   LINE      CODE     ---       #184
      0100CF75H   LINE      CODE     ---       #185
      0100CF75H   LINE      CODE     ---       #186
      0100CF78H   LINE      CODE     ---       #187
      0100CF7DH   LINE      CODE     ---       #188
      0100CF81H   LINE      CODE     ---       #189
      0100CF84H   LINE      CODE     ---       #191
      0100CF87H   LINE      CODE     ---       #192
      0100CF89H   LINE      CODE     ---       #193
      0100CF8BH   LINE      CODE     ---       #194
      0100CF8DH   LINE      CODE     ---       #195
      0100CF8FH   LINE      CODE     ---       #196
      ---         BLOCKEND  ---      ---       LVL=0

      0100CF90H   BLOCK     CODE     ---       LVL=0
      0100CF90H   LINE      CODE     ---       #199
      0100CF90H   LINE      CODE     ---       #200
      0100CF90H   LINE      CODE     ---       #202
      0100CF9BH   LINE      CODE     ---       #208
      0100CFA6H   LINE      CODE     ---       #211
      ---         BLOCKEND  ---      ---       LVL=0
LX51 LINKER/LOCATER V4.66.97.0                                                        09/27/2023  17:05:17  PAGE 77



      0100BCABH   BLOCK     CODE     VOID      LVL=0
      ---         BLOCKEND  ---      ---       LVL=0

      0100BCBDH   BLOCK     CODE     ---       LVL=0
      00000007H   SYMBOL    DATA     BYTE      Uart_number
      00000005H   SYMBOL    DATA     BYTE      Dat
      0100BCBDH   LINE      CODE     ---       #227
      0100BCBDH   LINE      CODE     ---       #228
      0100BCBDH   LINE      CODE     ---       #229
      0100BCC5H   LINE      CODE     ---       #230
      0100BCC5H   LINE      CODE     ---       #231
      0100BCC8H   LINE      CODE     ---       #233
      0100BCCAH   LINE      CODE     ---       #234
      0100BCCCH   LINE      CODE     ---       #235
      0100BCCDH   LINE      CODE     ---       #236
      0100BCD3H   LINE      CODE     ---       #237
      0100BCD3H   LINE      CODE     ---       #238
      0100BCD6H   LINE      CODE     ---       #240
      0100BCD8H   LINE      CODE     ---       #241
      0100BCDAH   LINE      CODE     ---       #242
      0100BCDBH   LINE      CODE     ---       #243
      0100BCE3H   LINE      CODE     ---       #244
      0100BCE3H   LINE      CODE     ---       #245
      0100BCE5H   LINE      CODE     ---       #246
      0100BCE8H   LINE      CODE     ---       #248
      0100BCEAH   LINE      CODE     ---       #249
      0100BCECH   LINE      CODE     ---       #250
      0100BCEFH   LINE      CODE     ---       #252
      0100BCF1H   LINE      CODE     ---       #253
      0100BCF2H   LINE      CODE     ---       #254
      0100BCF8H   LINE      CODE     ---       #255
      0100BCF8H   LINE      CODE     ---       #256
      0100BCFBH   LINE      CODE     ---       #258
      0100BCFDH   LINE      CODE     ---       #259
      0100BD01H   LINE      CODE     ---       #260
      0100BD01H   LINE      CODE     ---       #261
      ---         BLOCKEND  ---      ---       LVL=0

      01006DAEH   BLOCK     CODE     ---       LVL=0
      0200C95BH   SYMBOL    XDATA    BYTE      Uart
      0200C95CH   SYMBOL    XDATA    ---       arr
      01006DB7H   BLOCK     CODE     NEAR LAB  LVL=1
      0200C95FH   SYMBOL    XDATA    BYTE      i
      01006DF0H   BLOCK     CODE     NEAR LAB  LVL=2
      0200C960H   SYMBOL    XDATA    ---       Temp_arr
      ---         BLOCKEND  ---      ---       LVL=2
      01006E4AH   BLOCK     CODE     NEAR LAB  LVL=2
      0200C960H   SYMBOL    XDATA    WORD      Crc
      0200C962H   SYMBOL    XDATA    WORD      Crc_check
      01006EC6H   BLOCK     CODE     NEAR LAB  LVL=3
      0200C964H   SYMBOL    XDATA    ---       Temp_arr
      ---         BLOCKEND  ---      ---       LVL=3
      ---         BLOCKEND  ---      ---       LVL=2
      ---         BLOCKEND  ---      ---       LVL=1
      01006DAEH   LINE      CODE     ---       #362
      01006DB7H   LINE      CODE     ---       #363
      01006DB7H   LINE      CODE     ---       #364
      01006DBCH   LINE      CODE     ---       #365
      01006DC2H   LINE      CODE     ---       #366
      01006DC2H   LINE      CODE     ---       #367
      01006DEAH   LINE      CODE     ---       #368
      01006DF0H   LINE      CODE     ---       #369
      01006DF0H   LINE      CODE     ---       #370
      01006DFAH   LINE      CODE     ---       #371
LX51 LINKER/LOCATER V4.66.97.0                                                        09/27/2023  17:05:17  PAGE 78


      01006DFFH   LINE      CODE     ---       #372
      01006E03H   LINE      CODE     ---       #373
      01006E09H   LINE      CODE     ---       #374
      01006E0BH   LINE      CODE     ---       #375
      01006E1EH   LINE      CODE     ---       #376
      01006E30H   LINE      CODE     ---       #377
      01006E35H   LINE      CODE     ---       #378
      01006E35H   LINE      CODE     ---       #379
      01006E38H   LINE      CODE     ---       #381
      01006E3AH   LINE      CODE     ---       #382
      01006E3BH   LINE      CODE     ---       #383
      01006E44H   LINE      CODE     ---       #384
      01006E44H   LINE      CODE     ---       #385
      01006E47H   LINE      CODE     ---       #387
      01006E49H   LINE      CODE     ---       #388
      01006E49H   LINE      CODE     ---       #389
      01006E49H   LINE      CODE     ---       #390
      01006E4AH   LINE      CODE     ---       #392
      01006E4AH   LINE      CODE     ---       #393
      01006E50H   LINE      CODE     ---       #394
      01006E79H   LINE      CODE     ---       #395
      01006E8CH   LINE      CODE     ---       #396
      01006E9BH   LINE      CODE     ---       #397
      01006E9BH   LINE      CODE     ---       #398
      01006EC3H   LINE      CODE     ---       #399
      01006EC6H   LINE      CODE     ---       #400
      01006EC6H   LINE      CODE     ---       #401
      01006ED0H   LINE      CODE     ---       #402
      01006ED5H   LINE      CODE     ---       #403
      01006ED9H   LINE      CODE     ---       #404
      01006EDFH   LINE      CODE     ---       #405
      01006EE1H   LINE      CODE     ---       #406
      01006EF4H   LINE      CODE     ---       #407
      01006F06H   LINE      CODE     ---       #408
      01006F0BH   LINE      CODE     ---       #409
      01006F0BH   LINE      CODE     ---       #410
      01006F0EH   LINE      CODE     ---       #412
      01006F10H   LINE      CODE     ---       #413
      01006F11H   LINE      CODE     ---       #414
      01006F17H   LINE      CODE     ---       #415
      01006F17H   LINE      CODE     ---       #416
      01006F1AH   LINE      CODE     ---       #418
      01006F1CH   LINE      CODE     ---       #419
      01006F1CH   LINE      CODE     ---       #420
      01006F1CH   LINE      CODE     ---       #421
      01006F1CH   LINE      CODE     ---       #422
      01006F1CH   LINE      CODE     ---       #423
      ---         BLOCKEND  ---      ---       LVL=0

      01006906H   BLOCK     CODE     ---       LVL=0
      0200C95BH   SYMBOL    XDATA    BYTE      Uart
      0200C95CH   SYMBOL    XDATA    ---       arr
      0200C95FH   SYMBOL    XDATA    ---       arr1
      0100690FH   BLOCK     CODE     NEAR LAB  LVL=1
      0200C962H   SYMBOL    XDATA    BYTE      i
      0100699FH   BLOCK     CODE     NEAR LAB  LVL=2
      0200C963H   SYMBOL    XDATA    WORD      Crc
      0200C965H   SYMBOL    XDATA    WORD      Crc_check
      ---         BLOCKEND  ---      ---       LVL=2
      ---         BLOCKEND  ---      ---       LVL=1
      01006906H   LINE      CODE     ---       #425
      0100690FH   LINE      CODE     ---       #426
      0100690FH   LINE      CODE     ---       #427
      01006914H   LINE      CODE     ---       #428
      0100691AH   LINE      CODE     ---       #429
LX51 LINKER/LOCATER V4.66.97.0                                                        09/27/2023  17:05:17  PAGE 79


      0100691AH   LINE      CODE     ---       #430
      01006928H   LINE      CODE     ---       #431
      0100692DH   LINE      CODE     ---       #432
      01006949H   LINE      CODE     ---       #433
      01006956H   LINE      CODE     ---       #434
      0100695EH   LINE      CODE     ---       #435
      01006962H   LINE      CODE     ---       #436
      01006968H   LINE      CODE     ---       #437
      0100696AH   LINE      CODE     ---       #438
      0100697AH   LINE      CODE     ---       #439
      01006982H   LINE      CODE     ---       #440
      0100698AH   LINE      CODE     ---       #441
      0100698AH   LINE      CODE     ---       #442
      0100698DH   LINE      CODE     ---       #444
      0100698FH   LINE      CODE     ---       #445
      01006990H   LINE      CODE     ---       #446
      01006999H   LINE      CODE     ---       #447
      01006999H   LINE      CODE     ---       #448
      0100699CH   LINE      CODE     ---       #450
      0100699EH   LINE      CODE     ---       #451
      0100699EH   LINE      CODE     ---       #452
      0100699FH   LINE      CODE     ---       #454
      0100699FH   LINE      CODE     ---       #455
      010069A6H   LINE      CODE     ---       #456
      010069B7H   LINE      CODE     ---       #457
      010069BCH   LINE      CODE     ---       #458
      010069DAH   LINE      CODE     ---       #459
      010069EAH   LINE      CODE     ---       #460
      010069F9H   LINE      CODE     ---       #461
      010069F9H   LINE      CODE     ---       #462
      01006A15H   LINE      CODE     ---       #463
      01006A1FH   LINE      CODE     ---       #464
      01006A37H   LINE      CODE     ---       #465
      01006A41H   LINE      CODE     ---       #466
      01006A51H   LINE      CODE     ---       #467
      01006A59H   LINE      CODE     ---       #468
      01006A5DH   LINE      CODE     ---       #469
      01006A63H   LINE      CODE     ---       #470
      01006A65H   LINE      CODE     ---       #471
      01006A7BH   LINE      CODE     ---       #472
      01006A83H   LINE      CODE     ---       #473
      01006A8BH   LINE      CODE     ---       #474
      01006A8BH   LINE      CODE     ---       #475
      01006A8EH   LINE      CODE     ---       #477
      01006A90H   LINE      CODE     ---       #478
      01006A91H   LINE      CODE     ---       #479
      01006A97H   LINE      CODE     ---       #480
      01006A97H   LINE      CODE     ---       #481
      01006A9AH   LINE      CODE     ---       #483
      01006A9CH   LINE      CODE     ---       #484
      01006A9CH   LINE      CODE     ---       #485
      01006A9CH   LINE      CODE     ---       #486
      01006A9CH   LINE      CODE     ---       #487
      ---         BLOCKEND  ---      ---       LVL=0

      0100867EH   BLOCK     CODE     ---       LVL=0
      0200C853H   SYMBOL    XDATA    ---       Arr_rece
      0200C856H   SYMBOL    XDATA    ---       Data_len
      0200C859H   SYMBOL    XDATA    BYTE      Uart_num
      00000020H.0 SYMBOL    BIT      BIT       Response
      00000020H.1 SYMBOL    BIT      BIT       Crc_ck
      01008684H   BLOCK     CODE     NEAR LAB  LVL=1
      0200C85AH   SYMBOL    XDATA    WORD      N
      00000020H.2 SYMBOL    BIT      BIT       Flog
      010086DCH   BLOCK     CODE     NEAR LAB  LVL=2
LX51 LINKER/LOCATER V4.66.97.0                                                        09/27/2023  17:05:17  PAGE 80


      0200C85CH   SYMBOL    XDATA    ---       Val
      ---         BLOCKEND  ---      ---       LVL=2
      ---         BLOCKEND  ---      ---       LVL=1
      0100867EH   LINE      CODE     ---       #494
      01008684H   LINE      CODE     ---       #495
      01008684H   LINE      CODE     ---       #496
      0100868BH   LINE      CODE     ---       #497
      0100868DH   LINE      CODE     ---       #498
      01008693H   LINE      CODE     ---       #499
      01008693H   LINE      CODE     ---       #500
      010086BAH   LINE      CODE     ---       #501
      010086BAH   LINE      CODE     ---       #502
      010086C1H   LINE      CODE     ---       #503
      010086C1H   LINE      CODE     ---       #504
      010086C5H   LINE      CODE     ---       #505
      010086C5H   LINE      CODE     ---       #506
      010086D3H   LINE      CODE     ---       #507
      010086D3H   LINE      CODE     ---       #508
      010086D5H   LINE      CODE     ---       #509
      010086DCH   LINE      CODE     ---       #510
      010086DCH   LINE      CODE     ---       #512
      010086EEH   LINE      CODE     ---       #513
      010086EEH   LINE      CODE     ---       #514
      01008708H   LINE      CODE     ---       #515
      0100872DH   LINE      CODE     ---       #516
      0100872FH   LINE      CODE     ---       #518
      01008735H   LINE      CODE     ---       #519
      01008735H   LINE      CODE     ---       #520
      01008753H   LINE      CODE     ---       #521
      01008759H   LINE      CODE     ---       #523
      0100875BH   LINE      CODE     ---       #524
      0100875EH   LINE      CODE     ---       #525
      ---         BLOCKEND  ---      ---       LVL=0

      0100A30CH   BLOCK     CODE     ---       LVL=0
      0100A30CH   LINE      CODE     ---       #527
      0100A30CH   LINE      CODE     ---       #528
      0100A30CH   LINE      CODE     ---       #541
      0100A31AH   LINE      CODE     ---       #542
      0100A31AH   LINE      CODE     ---       #543
      0100A32FH   LINE      CODE     ---       #545
      0100A334H   LINE      CODE     ---       #546
      0100A33AH   LINE      CODE     ---       #547
      0100A33AH   LINE      CODE     ---       #548
      0100A348H   LINE      CODE     ---       #549
      0100A348H   LINE      CODE     ---       #550
      0100A35DH   LINE      CODE     ---       #551
      0100A362H   LINE      CODE     ---       #552
      0100A368H   LINE      CODE     ---       #553
      0100A368H   LINE      CODE     ---       #558
      0100A376H   LINE      CODE     ---       #559
      0100A376H   LINE      CODE     ---       #560
      0100A38DH   LINE      CODE     ---       #561
      0100A392H   LINE      CODE     ---       #562
      0100A398H   LINE      CODE     ---       #564
      0100A398H   LINE      CODE     ---       #565
      ---         BLOCKEND  ---      ---       LVL=0

      0100BA31H   BLOCK     CODE     ---       LVL=0
      0100BA31H   LINE      CODE     ---       #571
      0100BA4EH   LINE      CODE     ---       #574
      0100BA51H   LINE      CODE     ---       #575
      0100BA54H   LINE      CODE     ---       #576
      0100BA5AH   LINE      CODE     ---       #577
      0100BA69H   LINE      CODE     ---       #578
LX51 LINKER/LOCATER V4.66.97.0                                                        09/27/2023  17:05:17  PAGE 81


      0100BA6CH   LINE      CODE     ---       #579
      0100BA72H   LINE      CODE     ---       #580
      ---         BLOCKEND  ---      ---       LVL=0

      0100D447H   BLOCK     CODE     ---       LVL=0
      0100D447H   LINE      CODE     ---       #582
      0100D447H   LINE      CODE     ---       #585
      0100D44AH   LINE      CODE     ---       #586
      0100D44CH   LINE      CODE     ---       #587
      ---         BLOCKEND  ---      ---       LVL=0

      0100C03FH   BLOCK     CODE     ---       LVL=0
      0100C03FH   LINE      CODE     ---       #589
      0100C052H   LINE      CODE     ---       #591
      0100C066H   LINE      CODE     ---       #592
      0100C069H   LINE      CODE     ---       #593
      0100C06CH   LINE      CODE     ---       #594
      0100C071H   LINE      CODE     ---       #595
      0100C077H   LINE      CODE     ---       #596
      0100C07DH   LINE      CODE     ---       #597
      ---         BLOCKEND  ---      ---       LVL=0

      0100D44DH   BLOCK     CODE     ---       LVL=0
      0100D44DH   LINE      CODE     ---       #599
      0100D44DH   LINE      CODE     ---       #601
      0100D450H   LINE      CODE     ---       #602
      0100D452H   LINE      CODE     ---       #603
      ---         BLOCKEND  ---      ---       LVL=0

      0100B3DDH   BLOCK     CODE     ---       LVL=0
      0100B3DDH   LINE      CODE     ---       #606
      0100B3F0H   LINE      CODE     ---       #608
      0100B3F5H   LINE      CODE     ---       #609
      0100B3F5H   LINE      CODE     ---       #610
      0100B409H   LINE      CODE     ---       #611
      0100B40CH   LINE      CODE     ---       #613
      0100B40FH   LINE      CODE     ---       #614
      0100B414H   LINE      CODE     ---       #615
      0100B41AH   LINE      CODE     ---       #616
      0100B420H   LINE      CODE     ---       #617
      0100B420H   LINE      CODE     ---       #618
      0100B425H   LINE      CODE     ---       #619
      0100B425H   LINE      CODE     ---       #621
      0100B428H   LINE      CODE     ---       #622
      0100B42BH   LINE      CODE     ---       #623
      0100B42DH   LINE      CODE     ---       #624
      0100B42DH   LINE      CODE     ---       #625
      ---         BLOCKEND  ---      ---       LVL=0

      0100BBF9H   BLOCK     CODE     ---       LVL=0
      0100BBF9H   LINE      CODE     ---       #627
      0100BC0CH   LINE      CODE     ---       #629
      0100BC0FH   LINE      CODE     ---       #630
      0100BC0FH   LINE      CODE     ---       #631
      0100BC23H   LINE      CODE     ---       #632
      0100BC26H   LINE      CODE     ---       #633
      0100BC29H   LINE      CODE     ---       #634
      0100BC2EH   LINE      CODE     ---       #635
      0100BC34H   LINE      CODE     ---       #636
      0100BC3AH   LINE      CODE     ---       #637
      0100BC3AH   LINE      CODE     ---       #638
      0100BC3DH   LINE      CODE     ---       #639
      0100BC3DH   LINE      CODE     ---       #640
      0100BC40H   LINE      CODE     ---       #641
      0100BC42H   LINE      CODE     ---       #642
LX51 LINKER/LOCATER V4.66.97.0                                                        09/27/2023  17:05:17  PAGE 82


      0100BC42H   LINE      CODE     ---       #643
      ---         BLOCKEND  ---      ---       LVL=0
      00000007H   SYMBOL    DATA     CHAR      c

      0100D379H   BLOCK     CODE     ---       LVL=0
      00000006H   SYMBOL    DATA     CHAR      c
      0100D379H   LINE      CODE     ---       #657
      0100D37BH   LINE      CODE     ---       #658
      0100D37BH   LINE      CODE     ---       #659
      0100D382H   LINE      CODE     ---       #660
      0100D384H   LINE      CODE     ---       #661
      ---         BLOCKEND  ---      ---       LVL=0

      ---         MODULE    ---      ---       T5LLIB
      0200CB8DH   PUBLIC    XDATA    BYTE      ?_write_dgusii_vp?BYTE
      0100A850H   PUBLIC    CODE     ---       _write_dgusii_vp
      0200CB8DH   PUBLIC    XDATA    BYTE      ?_read_dgusii_vp?BYTE
      0100BEAAH   PUBLIC    CODE     ---       _read_dgusii_vp
      0200C869H   PUBLIC    XDATA    BYTE      ?_T5L_Flash?BYTE
      0100B682H   PUBLIC    CODE     ---       _T5L_Flash
      0100CA7CH   PUBLIC    CODE     ---       _wait_ok
      000000F1H   SFRSYM    DATA     BYTE      ADR_H
      00000080H   SFRSYM    DATA     BYTE      P0
      00000090H   SFRSYM    DATA     BYTE      P1
      000000A0H   SFRSYM    DATA     BYTE      P2
      000000B0H   SFRSYM    DATA     BYTE      P3
      000000F3H   SFRSYM    DATA     BYTE      ADR_L
      000000D0H.6 SFRSYM    DATA     BIT       AC
      000000A0H.6 SFRSYM    DATA     BIT       Red_LED1
      00000094H   SFRSYM    DATA     BYTE      PAGESEL
      000000F2H   SFRSYM    DATA     BYTE      ADR_M
      000000A8H.7 SFRSYM    DATA     BIT       EA
      000000F8H   SFRSYM    DATA     BYTE      RAMMODE
      000000B7H   SFRSYM    DATA     BYTE      P0MDOUT
      000000BCH   SFRSYM    DATA     BYTE      P1MDOUT
      000000A8H   SFRSYM    DATA     BYTE      IEN0
      000000BDH   SFRSYM    DATA     BYTE      P2MDOUT
      000000B8H   SFRSYM    DATA     BYTE      IEN1
      000000BEH   SFRSYM    DATA     BYTE      P3MDOUT
      0000009AH   SFRSYM    DATA     BYTE      IEN2
      000000F8H.4 SFRSYM    DATA     BIT       APP_ACK
      000000F4H   SFRSYM    DATA     BYTE      ADR_INC
      000000B8H.1 SFRSYM    DATA     BIT       ECAN
      000000D0H.7 SFRSYM    DATA     BIT       CY
      000000B8H.3 SFRSYM    DATA     BIT       ES4R
      000000B8H.5 SFRSYM    DATA     BIT       ES5R
      000000B8H.2 SFRSYM    DATA     BIT       ES4T
      000000B8H.4 SFRSYM    DATA     BIT       ES5T
      000000B0H.3 SFRSYM    DATA     BIT       RTC_SDA
      00000081H   SFRSYM    DATA     BYTE      SP
      000000D0H.2 SFRSYM    DATA     BIT       OV
      00000095H   SFRSYM    DATA     BYTE      D_PAGESEL
      000000F8H.7 SFRSYM    DATA     BIT       APP_REQ
      000000B0H.2 SFRSYM    DATA     BIT       RTC_SCL
      000000BFH   SFRSYM    DATA     BYTE      IRCON2
      00000087H   SFRSYM    DATA     BYTE      PCON
      000000BAH   SFRSYM    DATA     BYTE      SREL2H
      000000BBH   SFRSYM    DATA     BYTE      SREL3H
      000000F9H   SFRSYM    DATA     BYTE      PORTDRV
      00000089H   SFRSYM    DATA     BYTE      TMOD
      00000088H   SFRSYM    DATA     BYTE      TCON
      000000AAH   SFRSYM    DATA     BYTE      SREL2L
      0000009DH   SFRSYM    DATA     BYTE      SREL3L
      000000FFH   SFRSYM    DATA     BYTE      EXDATA
      00000097H   SFRSYM    DATA     BYTE      SCON4R
LX51 LINKER/LOCATER V4.66.97.0                                                        09/27/2023  17:05:17  PAGE 83


      000000ABH   SFRSYM    DATA     BYTE      SCON5R
      000000D9H   SFRSYM    DATA     BYTE      BODE4_DIV_H
      000000AEH   SFRSYM    DATA     BYTE      BODE5_DIV_H
      00000096H   SFRSYM    DATA     BYTE      SCON4T
      000000A7H   SFRSYM    DATA     BYTE      SCON5T
      00000088H.1 SFRSYM    DATA     BIT       IE0
      00000088H.3 SFRSYM    DATA     BIT       IE1
      000000C9H   SFRSYM    DATA     BYTE      MUX_SEL
      000000E7H   SFRSYM    DATA     BYTE      BODE4_DIV_L
      000000AFH   SFRSYM    DATA     BYTE      BODE5_DIV_L
      000000F0H   SFRSYM    DATA     BYTE      B
      000000E0H   SFRSYM    DATA     BYTE      ACC
      0000008FH   SFRSYM    DATA     BYTE      CAN_CR
      000000A9H   SFRSYM    DATA     BYTE      IP0
      000000A8H.1 SFRSYM    DATA     BIT       ET0
      000000B9H   SFRSYM    DATA     BYTE      IP1
      000000A8H.3 SFRSYM    DATA     BIT       ET1
      000000A8H.4 SFRSYM    DATA     BIT       ES2
      00000088H.5 SFRSYM    DATA     BIT       TF0
      000000FDH   SFRSYM    DATA     BYTE      DATA0
      000000A8H.5 SFRSYM    DATA     BIT       ET2
      00000088H.7 SFRSYM    DATA     BIT       TF1
      000000E8H   SFRSYM    DATA     BYTE      CAN_ET
      000000FCH   SFRSYM    DATA     BYTE      DATA1
      000000C0H.6 SFRSYM    DATA     BIT       TF2
      0000008CH   SFRSYM    DATA     BYTE      TH0
      000000FBH   SFRSYM    DATA     BYTE      DATA2
      000000A8H.0 SFRSYM    DATA     BIT       EX0
      00000098H.0 SFRSYM    DATA     BIT       RI2
      0000008DH   SFRSYM    DATA     BYTE      TH1
      00000088H.0 SFRSYM    DATA     BIT       IT0
      00000091H   SFRSYM    DATA     BYTE      CAN_IR
      000000FAH   SFRSYM    DATA     BYTE      DATA3
      000000CDH   SFRSYM    DATA     BYTE      TH2
      000000A8H.2 SFRSYM    DATA     BIT       EX1
      00000088H.2 SFRSYM    DATA     BIT       IT1
      000000D0H.0 SFRSYM    DATA     BIT       P
      00000098H.1 SFRSYM    DATA     BIT       TI2
      0000008AH   SFRSYM    DATA     BYTE      TL0
      0000008BH   SFRSYM    DATA     BYTE      TL1
      000000CCH   SFRSYM    DATA     BYTE      TL2
      000000F8H.6 SFRSYM    DATA     BIT       APP_EN
      000000D0H.3 SFRSYM    DATA     BIT       RS0
      000000D0H.4 SFRSYM    DATA     BIT       RS1
      00000088H.4 SFRSYM    DATA     BIT       TR0
      00000093H   SFRSYM    DATA     BYTE      DPC
      00000088H.6 SFRSYM    DATA     BIT       TR1
      000000E5H   SFRSYM    DATA     BYTE      MAC_MODE
      000000C8H.0 SFRSYM    DATA     BIT       TR2
      00000080H.0 SFRSYM    DATA     BIT       TR4
      00000080H.1 SFRSYM    DATA     BIT       TR5
      000000A0H.7 SFRSYM    DATA     BIT       Green_LED2
      00000083H   SFRSYM    DATA     BYTE      DPH
      00000082H   SFRSYM    DATA     BYTE      DPL
      00000099H   SFRSYM    DATA     BYTE      SBUF2
      0000009CH   SFRSYM    DATA     BYTE      SBUF3
      000000D8H   SFRSYM    DATA     BYTE      ADCON
      00000098H   SFRSYM    DATA     BYTE      SCON2
      000000C8H   SFRSYM    DATA     BYTE      T2CON
      0000009BH   SFRSYM    DATA     BYTE      SCON3
      000000E6H   SFRSYM    DATA     BYTE      DIV_MODE
      000000F8H.5 SFRSYM    DATA     BIT       APP_RW
      000000CBH   SFRSYM    DATA     BYTE      TRL2H
      0000008EH   SFRSYM    DATA     BYTE      CKCON
      0000009FH   SFRSYM    DATA     BYTE      SBUF4_RX
LX51 LINKER/LOCATER V4.66.97.0                                                        09/27/2023  17:05:17  PAGE 84


      000000ADH   SFRSYM    DATA     BYTE      SBUF5_RX
      000000CAH   SFRSYM    DATA     BYTE      TRL2L
      0000009EH   SFRSYM    DATA     BYTE      SBUF4_TX
      000000ACH   SFRSYM    DATA     BYTE      SBUF5_TX
      000000FEH   SFRSYM    DATA     BYTE      EXADR
      000000D0H.5 SFRSYM    DATA     BIT       F0
      000000D0H.1 SFRSYM    DATA     BIT       F1
      000000D0H   SFRSYM    DATA     BYTE      PSW
      000000C0H   SFRSYM    DATA     BYTE      IRCON

      0100AFF4H   BLOCK     CODE     ---       LVL=0
      ---         BLOCKEND  ---      ---       LVL=0

      0100CA7CH   BLOCK     CODE     ---       LVL=0
      00000004H   SYMBOL    DATA     WORD      addr
      0100CA7CH   LINE      CODE     ---       #5
      0100CA80H   LINE      CODE     ---       #6
      0100CA80H   LINE      CODE     ---       #7
      0100CA83H   LINE      CODE     ---       #8
      0100CA86H   LINE      CODE     ---       #9
      0100CA88H   LINE      CODE     ---       #10
      0100CA8BH   LINE      CODE     ---       #12
      0100CA8BH   LINE      CODE     ---       #13
      0100CA8EH   LINE      CODE     ---       #14
      0100CA8EH   LINE      CODE     ---       #15
      0100CA91H   LINE      CODE     ---       #16
      0100CA9CH   LINE      CODE     ---       #17
      0100CA9FH   LINE      CODE     ---       #18
      0100CAA2H   LINE      CODE     ---       #20
      0100CAA4H   LINE      CODE     ---       #21
      0100CAA7H   LINE      CODE     ---       #23
      0100CAAAH   LINE      CODE     ---       #24
      0100CAAFH   LINE      CODE     ---       #25
      ---         BLOCKEND  ---      ---       LVL=0

      0100B682H   BLOCK     CODE     ---       LVL=0
      00000007H   SYMBOL    DATA     BYTE      mod
      00000002H   SYMBOL    DATA     WORD      addr
      0200C86CH   SYMBOL    XDATA    LONG      addr_flash
      0200C870H   SYMBOL    XDATA    WORD      len
      0100B682H   LINE      CODE     ---       #29
      0100B686H   LINE      CODE     ---       #30
      0100B686H   LINE      CODE     ---       #31
      0100B689H   LINE      CODE     ---       #32
      0100B68BH   LINE      CODE     ---       #33
      0100B68EH   LINE      CODE     ---       #34
      0100B691H   LINE      CODE     ---       #35
      0100B694H   LINE      CODE     ---       #36
      0100B697H   LINE      CODE     ---       #38
      0100B699H   LINE      CODE     ---       #39
      0100B6A3H   LINE      CODE     ---       #40
      0100B6ADH   LINE      CODE     ---       #41
      0100B6B6H   LINE      CODE     ---       #42
      0100B6B8H   LINE      CODE     ---       #43
      0100B6BBH   LINE      CODE     ---       #45
      0100B6BEH   LINE      CODE     ---       #46
      0100B6C3H   LINE      CODE     ---       #47
      0100B6CEH   LINE      CODE     ---       #48
      0100B6D3H   LINE      CODE     ---       #49
      0100B6D5H   LINE      CODE     ---       #50
      0100B6D8H   LINE      CODE     ---       #52
      0100B6DBH   LINE      CODE     ---       #53
      ---         BLOCKEND  ---      ---       LVL=0

      0100BEAAH   BLOCK     CODE     ---       LVL=0
LX51 LINKER/LOCATER V4.66.97.0                                                        09/27/2023  17:05:17  PAGE 85


      00000004H   SYMBOL    DATA     WORD      addr
      0200CB8FH   SYMBOL    XDATA    ---       buf
      0200CB92H   SYMBOL    XDATA    WORD      len
      0100BEADH   BLOCK     CODE     NEAR LAB  LVL=1
      00000003H   SYMBOL    DATA     BYTE      i
      ---         BLOCKEND  ---      ---       LVL=1
      0100BEAAH   LINE      CODE     ---       #57
      0100BEADH   LINE      CODE     ---       #58
      0100BEADH   LINE      CODE     ---       #60
      0100BEADH   LINE      CODE     ---       #61
      0100BEADH   LINE      CODE     ---       #62
      0100BEADH   LINE      CODE     ---       #63
      0100BEADH   LINE      CODE     ---       #64
      0100BEADH   LINE      CODE     ---       #65
      0100BEB0H   LINE      CODE     ---       #66
      0100BEB3H   LINE      CODE     ---       #67
      0100BEB6H   LINE      CODE     ---       #69
      0100BEBBH   LINE      CODE     ---       #70
      0100BEBBH   LINE      CODE     ---       #71
      0100BEBDH   LINE      CODE     ---       #72
      0100BEC0H   LINE      CODE     ---       #74
      0100BEC8H   LINE      CODE     ---       #75
      0100BEC8H   LINE      CODE     ---       #76
      0100BECDH   LINE      CODE     ---       #77
      0100BED5H   LINE      CODE     ---       #78
      0100BED7H   LINE      CODE     ---       #79
      0100BEDAH   LINE      CODE     ---       #80
      0100BEDAH   LINE      CODE     ---       #81
      0100BEE4H   LINE      CODE     ---       #82
      0100BEE4H   LINE      CODE     ---       #83
      0100BEE9H   LINE      CODE     ---       #84
      0100BEF1H   LINE      CODE     ---       #85
      0100BEF3H   LINE      CODE     ---       #86
      0100BEF6H   LINE      CODE     ---       #87
      0100BEF6H   LINE      CODE     ---       #88
      0100BEF8H   LINE      CODE     ---       #89
      0100BEFBH   LINE      CODE     ---       #90
      ---         BLOCKEND  ---      ---       LVL=0

      0100A850H   BLOCK     CODE     ---       LVL=0
      00000004H   SYMBOL    DATA     WORD      addr
      0200CB8FH   SYMBOL    XDATA    ---       buf
      0200CB92H   SYMBOL    XDATA    WORD      len
      0100A853H   BLOCK     CODE     NEAR LAB  LVL=1
      00000003H   SYMBOL    DATA     BYTE      i
      ---         BLOCKEND  ---      ---       LVL=1
      0100A850H   LINE      CODE     ---       #93
      0100A853H   LINE      CODE     ---       #94
      0100A853H   LINE      CODE     ---       #96
      0100A853H   LINE      CODE     ---       #97
      0100A853H   LINE      CODE     ---       #98
      0100A853H   LINE      CODE     ---       #99
      0100A853H   LINE      CODE     ---       #100
      0100A853H   LINE      CODE     ---       #101
      0100A856H   LINE      CODE     ---       #102
      0100A859H   LINE      CODE     ---       #103
      0100A85CH   LINE      CODE     ---       #105
      0100A86EH   LINE      CODE     ---       #106
      0100A86EH   LINE      CODE     ---       #107
      0100A871H   LINE      CODE     ---       #108
      0100A871H   LINE      CODE     ---       #109
      0100A876H   LINE      CODE     ---       #110
      0100A878H   LINE      CODE     ---       #111
      0100A87BH   LINE      CODE     ---       #113
      0100A881H   LINE      CODE     ---       #114
LX51 LINKER/LOCATER V4.66.97.0                                                        09/27/2023  17:05:17  PAGE 86


      0100A881H   LINE      CODE     ---       #115
      0100A884H   LINE      CODE     ---       #116
      0100A894H   LINE      CODE     ---       #117
      0100A894H   LINE      CODE     ---       #118
      0100A899H   LINE      CODE     ---       #119
      0100A89EH   LINE      CODE     ---       #120
      0100A89EH   LINE      CODE     ---       #121
      0100A8A3H   LINE      CODE     ---       #122
      0100A8A5H   LINE      CODE     ---       #123
      0100A8A8H   LINE      CODE     ---       #125
      0100A8B3H   LINE      CODE     ---       #126
      0100A8B5H   LINE      CODE     ---       #127
      0100A8B9H   LINE      CODE     ---       #128
      0100A8B9H   LINE      CODE     ---       #129
      0100A8BCH   LINE      CODE     ---       #130
      0100A8C1H   LINE      CODE     ---       #131
      0100A8C6H   LINE      CODE     ---       #132
      0100A8C8H   LINE      CODE     ---       #133
      0100A8CBH   LINE      CODE     ---       #135
      0100A8CBH   LINE      CODE     ---       #136
      0100A8CEH   LINE      CODE     ---       #137
      ---         BLOCKEND  ---      ---       LVL=0

      ---         MODULE    ---      ---       MODULE
      0200AE8CH   PUBLIC    XDATA    ---       g_var_module
      0200AE8BH   PUBLIC    XDATA    BYTE      modfity_index
      0200AD73H   PUBLIC    XDATA    ---       timing_module
      0200AD71H   PUBLIC    XDATA    WORD      module_key_nb_bak
      0200AD6FH   PUBLIC    XDATA    WORD      init_pwd
      0200AD4FH   PUBLIC    XDATA    ---       led_sta
      0200AD4DH   PUBLIC    XDATA    WORD      channel
      0200AD3CH   PUBLIC    XDATA    ---       module_default_name
      0200AD3AH   PUBLIC    XDATA    WORD      num_return
      0200AC22H   PUBLIC    XDATA    ---       st_module
      0200AC21H   PUBLIC    XDATA    BYTE      channel_number
      0200AC1FH   PUBLIC    XDATA    WORD      key
      0200AC1DH   PUBLIC    XDATA    WORD      module_type_bak
      0200AC1BH   PUBLIC    XDATA    WORD      adr
      0200AC19H   PUBLIC    XDATA    WORD      module_type
      0200AC18H   PUBLIC    XDATA    BYTE      var_previous_page
      0200AC17H   PUBLIC    XDATA    BYTE      module_select_sta_bak
      0200ABC9H   PUBLIC    XDATA    ---       module_name_tab
      0200AAB1H   PUBLIC    XDATA    ---       auto_module
      0200A999H   PUBLIC    XDATA    ---       temp_module
      0200A98FH   PUBLIC    XDATA    ---       module_tab
      0200A88EH   PUBLIC    XDATA    ---       default_module_channel_name
      0200A776H   PUBLIC    XDATA    ---       module
      0200A774H   PUBLIC    XDATA    WORD      num4
      0100CD03H   PUBLIC    CODE     ---       init_flash_parameters
      01009938H   PUBLIC    CODE     ---       module_modify
      0100C335H   PUBLIC    CODE     ---       return_page
      01006753H   PUBLIC    CODE     ---       module_all_ctrl
      010089E2H   PUBLIC    CODE     ---       auto_add_module
      01000086H   PUBLIC    CODE     ---       automatically_retrieve
      0100D2FAH   PUBLIC    CODE     ---       _read_device_information
      0100CC86H   PUBLIC    CODE     ---       automatically_retrieve_cmd
      0100967AH   PUBLIC    CODE     ---       batch_set_time_parameters
      0100A1EEH   PUBLIC    CODE     ---       timing_module_parameter_batch_send
      0200C853H   PUBLIC    XDATA    BYTE      ?_run_timing_module_parameter_set?BYTE
      0100C3C7H   PUBLIC    CODE     ---       _run_timing_module_parameter_set
      0100CDC8H   PUBLIC    CODE     ---       clear_batch_set_var
      0100C5AEH   PUBLIC    CODE     ---       black_screen_switches_to_home_page
      0100B1F0H   PUBLIC    CODE     ---       back_light_set
      0100B49FH   PUBLIC    CODE     ---       lock_screen_enable_ctrl
      0100CB48H   PUBLIC    CODE     ---       _check_or_not_frame
LX51 LINKER/LOCATER V4.66.97.0                                                        09/27/2023  17:05:17  PAGE 87


      0100B977H   PUBLIC    CODE     ---       save_back_light_parameters
      01009243H   PUBLIC    CODE     ---       init_back_light_parameters
      0100B43EH   PUBLIC    CODE     ---       _starup_page_pwd
      0100CE13H   PUBLIC    CODE     ---       _check_whether_the_passwords_are_consistent
      0100D439H   PUBLIC    CODE     ---       _clear_pwd
      0100A646H   PUBLIC    CODE     ---       select_beep_enable
      0100A9CBH   PUBLIC    CODE     ---       init_beep_enable
      0100BA8DH   PUBLIC    CODE     ---       select_password_enable
      01009FA0H   PUBLIC    CODE     ---       _change_pwd
      0100AB36H   PUBLIC    CODE     ---       init_pwd_f
      01008C3EH   PUBLIC    CODE     ---       clear_all_module_information
      010082BDH   PUBLIC    CODE     ---       clear_select_module_information
      0100A15EH   PUBLIC    CODE     ---       _modifying_module_information
      01006C32H   PUBLIC    CODE     ---       _display_edit_interface
      0100ABACH   PUBLIC    CODE     ---       factory_data_reset
      0100CC2EH   PUBLIC    CODE     ---       module_touch_ctrl
      0100D19BH   PUBLIC    CODE     ---       _module_touch
      0100BE03H   PUBLIC    CODE     ---       _display_interface
      0100D1CCH   PUBLIC    CODE     ---       _dim_ctrl
      0100C528H   PUBLIC    CODE     ---       _dim_refesh
      01007C83H   PUBLIC    CODE     ---       all_dim_on_off
      010077EDH   PUBLIC    CODE     ---       _dim_all_ctrl
      01005F8EH   PUBLIC    CODE     ---       _dim_single_ctrl
      0100D032H   PUBLIC    CODE     ---       _dim_read
      0100D1B4H   PUBLIC    CODE     ---       _relay_ctrl
      0100CAB0H   PUBLIC    CODE     ---       _relay_refesh
      01009006H   PUBLIC    CODE     ---       all_module_on_off
      01008AAEH   PUBLIC    CODE     ---       _relay_all_ctrl
      010063D1H   PUBLIC    CODE     ---       _relay_single_ctrl
      0100D2E8H   PUBLIC    CODE     ---       _relay_read
      01008F47H   PUBLIC    CODE     ---       _timing_module_parameter_key_ctrl
      010095CAH   PUBLIC    CODE     ---       _timing_module_parameter_time_send
      0100551EH   PUBLIC    CODE     ---       _timing_module_parameter_ongitude_latitude_send
      0100C37FH   PUBLIC    CODE     ---       select_either_or_all
      010092FFH   PUBLIC    CODE     ---       _select_either_or_single
      0200C85BH   PUBLIC    XDATA    BYTE      ?_timing_module_parameter_time_frame_channel_send?BYTE
      0100523AH   PUBLIC    CODE     ---       _timing_module_parameter_time_frame_channel_send
      0200C85BH   PUBLIC    XDATA    BYTE      ?_timing_module_parameter_solar_channel_send?BYTE
      01007A44H   PUBLIC    CODE     ---       _timing_module_parameter_solar_channel_send
      0200C85BH   PUBLIC    XDATA    BYTE      ?_timing_module_parameter_week_enable_channel_send?BYTE
      01008840H   PUBLIC    CODE     ---       _timing_module_parameter_week_enable_channel_send
      0200C876H   PUBLIC    XDATA    BYTE      ?_get_channel_set?BYTE
      0100BDAEH   PUBLIC    CODE     ---       _get_channel_set
      01007B6DH   PUBLIC    CODE     ---       _display_timing_module_parameter
      0100B6E1H   PUBLIC    CODE     ---       _display_time_frame_parameter
      0200C875H   PUBLIC    XDATA    BYTE      ?_display_solar_parameter?BYTE
      0100B0C1H   PUBLIC    CODE     ---       _display_solar_parameter
      0100B05BH   PUBLIC    CODE     ---       _display_week_parameter
      0100BF4EH   PUBLIC    CODE     ---       _timing_module_parameter_settings
      0100D3B2H   PUBLIC    CODE     ---       return_to_previous_page
      0100BEFCH   PUBLIC    CODE     ---       _display_dim_interface
      01008E88H   PUBLIC    CODE     ---       _display_relay_interface
      0200C85EH   PUBLIC    XDATA    BYTE      ?_relay_interface_trigger?BYTE
      0100C7E5H   PUBLIC    CODE     ---       _relay_interface_trigger
      0100A94EH   PUBLIC    CODE     ---       read_dgus_time
      0100D352H   PUBLIC    CODE     ---       _read_sys_time
      010076BEH   PUBLIC    CODE     ---       set_module_type
      0100C2EBH   PUBLIC    CODE     ---       set_channel_nb
      0100BC53H   PUBLIC    CODE     ---       _pic_set
      0100002EH   PUBLIC    CODE     ---       read_pic
      0100CF0BH   PUBLIC    CODE     ---       _delay_us
      0100C821H   PUBLIC    CODE     ---       _get_box_select_number
      0200C855H   PUBLIC    XDATA    BYTE      ?_set_box_select?BYTE
      01008914H   PUBLIC    CODE     ---       _set_box_select
      010061FAH   PUBLIC    CODE     ---       _save_module_information
LX51 LINKER/LOCATER V4.66.97.0                                                        09/27/2023  17:05:17  PAGE 88


      010084B6H   PUBLIC    CODE     ---       _display_module_information
      0200C85EH   PUBLIC    XDATA    BYTE      ?_set_module_information?BYTE
      0100A74EH   PUBLIC    CODE     ---       _set_module_information
      0100C2A1H   PUBLIC    CODE     ---       _find_index
      0100BE57H   PUBLIC    CODE     ---       _check_whether_data_exists
      0100D08EH   PUBLIC    CODE     ---       clear_touch_sta
      0100C175H   PUBLIC    CODE     ---       _clear_key_value
      0100D431H   PUBLIC    CODE     ---       _get_key_value
      000000F1H   SFRSYM    DATA     BYTE      ADR_H
      00000080H   SFRSYM    DATA     BYTE      P0
      00000090H   SFRSYM    DATA     BYTE      P1
      000000A0H   SFRSYM    DATA     BYTE      P2
      000000B0H   SFRSYM    DATA     BYTE      P3
      000000F3H   SFRSYM    DATA     BYTE      ADR_L
      000000D0H.6 SFRSYM    DATA     BIT       AC
      000000A0H.6 SFRSYM    DATA     BIT       Red_LED1
      00000094H   SFRSYM    DATA     BYTE      PAGESEL
      000000F2H   SFRSYM    DATA     BYTE      ADR_M
      000000A8H.7 SFRSYM    DATA     BIT       EA
      000000F8H   SFRSYM    DATA     BYTE      RAMMODE
      000000B7H   SFRSYM    DATA     BYTE      P0MDOUT
      000000BCH   SFRSYM    DATA     BYTE      P1MDOUT
      000000A8H   SFRSYM    DATA     BYTE      IEN0
      000000BDH   SFRSYM    DATA     BYTE      P2MDOUT
      000000B8H   SFRSYM    DATA     BYTE      IEN1
      000000BEH   SFRSYM    DATA     BYTE      P3MDOUT
      0000009AH   SFRSYM    DATA     BYTE      IEN2
      000000F8H.4 SFRSYM    DATA     BIT       APP_ACK
      000000F4H   SFRSYM    DATA     BYTE      ADR_INC
      000000B8H.1 SFRSYM    DATA     BIT       ECAN
      000000D0H.7 SFRSYM    DATA     BIT       CY
      000000B8H.3 SFRSYM    DATA     BIT       ES4R
      000000B8H.5 SFRSYM    DATA     BIT       ES5R
      000000B8H.2 SFRSYM    DATA     BIT       ES4T
      000000B8H.4 SFRSYM    DATA     BIT       ES5T
      000000B0H.3 SFRSYM    DATA     BIT       RTC_SDA
      00000081H   SFRSYM    DATA     BYTE      SP
      000000D0H.2 SFRSYM    DATA     BIT       OV
      00000095H   SFRSYM    DATA     BYTE      D_PAGESEL
      000000F8H.7 SFRSYM    DATA     BIT       APP_REQ
      000000B0H.2 SFRSYM    DATA     BIT       RTC_SCL
      000000BFH   SFRSYM    DATA     BYTE      IRCON2
      00000087H   SFRSYM    DATA     BYTE      PCON
      000000BAH   SFRSYM    DATA     BYTE      SREL2H
      000000BBH   SFRSYM    DATA     BYTE      SREL3H
      000000F9H   SFRSYM    DATA     BYTE      PORTDRV
      00000089H   SFRSYM    DATA     BYTE      TMOD
      00000088H   SFRSYM    DATA     BYTE      TCON
      000000AAH   SFRSYM    DATA     BYTE      SREL2L
      0000009DH   SFRSYM    DATA     BYTE      SREL3L
      000000FFH   SFRSYM    DATA     BYTE      EXDATA
      00000097H   SFRSYM    DATA     BYTE      SCON4R
      000000ABH   SFRSYM    DATA     BYTE      SCON5R
      000000D9H   SFRSYM    DATA     BYTE      BODE4_DIV_H
      000000AEH   SFRSYM    DATA     BYTE      BODE5_DIV_H
      00000096H   SFRSYM    DATA     BYTE      SCON4T
      000000A7H   SFRSYM    DATA     BYTE      SCON5T
      00000088H.1 SFRSYM    DATA     BIT       IE0
      00000088H.3 SFRSYM    DATA     BIT       IE1
      000000C9H   SFRSYM    DATA     BYTE      MUX_SEL
      000000E7H   SFRSYM    DATA     BYTE      BODE4_DIV_L
      000000AFH   SFRSYM    DATA     BYTE      BODE5_DIV_L
      000000F0H   SFRSYM    DATA     BYTE      B
      000000E0H   SFRSYM    DATA     BYTE      ACC
      0000008FH   SFRSYM    DATA     BYTE      CAN_CR
LX51 LINKER/LOCATER V4.66.97.0                                                        09/27/2023  17:05:17  PAGE 89


      000000A9H   SFRSYM    DATA     BYTE      IP0
      000000A8H.1 SFRSYM    DATA     BIT       ET0
      000000B9H   SFRSYM    DATA     BYTE      IP1
      000000A8H.3 SFRSYM    DATA     BIT       ET1
      000000A8H.4 SFRSYM    DATA     BIT       ES2
      00000088H.5 SFRSYM    DATA     BIT       TF0
      000000FDH   SFRSYM    DATA     BYTE      DATA0
      000000A8H.5 SFRSYM    DATA     BIT       ET2
      00000088H.7 SFRSYM    DATA     BIT       TF1
      000000E8H   SFRSYM    DATA     BYTE      CAN_ET
      000000FCH   SFRSYM    DATA     BYTE      DATA1
      000000C0H.6 SFRSYM    DATA     BIT       TF2
      0000008CH   SFRSYM    DATA     BYTE      TH0
      000000FBH   SFRSYM    DATA     BYTE      DATA2
      000000A8H.0 SFRSYM    DATA     BIT       EX0
      00000098H.0 SFRSYM    DATA     BIT       RI2
      0000008DH   SFRSYM    DATA     BYTE      TH1
      00000088H.0 SFRSYM    DATA     BIT       IT0
      00000091H   SFRSYM    DATA     BYTE      CAN_IR
      000000FAH   SFRSYM    DATA     BYTE      DATA3
      000000CDH   SFRSYM    DATA     BYTE      TH2
      000000A8H.2 SFRSYM    DATA     BIT       EX1
      00000088H.2 SFRSYM    DATA     BIT       IT1
      000000D0H.0 SFRSYM    DATA     BIT       P
      00000098H.1 SFRSYM    DATA     BIT       TI2
      0000008AH   SFRSYM    DATA     BYTE      TL0
      0000008BH   SFRSYM    DATA     BYTE      TL1
      000000CCH   SFRSYM    DATA     BYTE      TL2
      000000F8H.6 SFRSYM    DATA     BIT       APP_EN
      000000D0H.3 SFRSYM    DATA     BIT       RS0
      000000D0H.4 SFRSYM    DATA     BIT       RS1
      00000088H.4 SFRSYM    DATA     BIT       TR0
      00000093H   SFRSYM    DATA     BYTE      DPC
      00000088H.6 SFRSYM    DATA     BIT       TR1
      000000E5H   SFRSYM    DATA     BYTE      MAC_MODE
      000000C8H.0 SFRSYM    DATA     BIT       TR2
      00000080H.0 SFRSYM    DATA     BIT       TR4
      00000080H.1 SFRSYM    DATA     BIT       TR5
      000000A0H.7 SFRSYM    DATA     BIT       Green_LED2
      00000083H   SFRSYM    DATA     BYTE      DPH
      00000082H   SFRSYM    DATA     BYTE      DPL
      00000099H   SFRSYM    DATA     BYTE      SBUF2
      0000009CH   SFRSYM    DATA     BYTE      SBUF3
      000000D8H   SFRSYM    DATA     BYTE      ADCON
      00000098H   SFRSYM    DATA     BYTE      SCON2
      000000C8H   SFRSYM    DATA     BYTE      T2CON
      0000009BH   SFRSYM    DATA     BYTE      SCON3
      000000E6H   SFRSYM    DATA     BYTE      DIV_MODE
      000000F8H.5 SFRSYM    DATA     BIT       APP_RW
      000000CBH   SFRSYM    DATA     BYTE      TRL2H
      0000008EH   SFRSYM    DATA     BYTE      CKCON
      0000009FH   SFRSYM    DATA     BYTE      SBUF4_RX
      000000ADH   SFRSYM    DATA     BYTE      SBUF5_RX
      000000CAH   SFRSYM    DATA     BYTE      TRL2L
      0000009EH   SFRSYM    DATA     BYTE      SBUF4_TX
      000000ACH   SFRSYM    DATA     BYTE      SBUF5_TX
      000000FEH   SFRSYM    DATA     BYTE      EXADR
      000000D0H.5 SFRSYM    DATA     BIT       F0
      000000D0H.1 SFRSYM    DATA     BIT       F1
      000000D0H   SFRSYM    DATA     BYTE      PSW
      000000C0H   SFRSYM    DATA     BYTE      IRCON
      0100E8C6H   SYMBOL    CONST    ---       _?ix1000
      0100E99BH   SYMBOL    CONST    ---       _?ix1010
      0100E8CEH   SYMBOL    CONST    ---       _?ix1001
      0100E9A3H   SYMBOL    CONST    ---       _?ix1011
LX51 LINKER/LOCATER V4.66.97.0                                                        09/27/2023  17:05:17  PAGE 90


      0100E8D2H   SYMBOL    CONST    ---       _?ix1002
      0100E9A7H   SYMBOL    CONST    ---       _?ix1012
      0100E912H   SYMBOL    CONST    ---       _?ix1003
      0100E9ABH   SYMBOL    CONST    ---       _?ix1013
      0100E91FH   SYMBOL    CONST    ---       _?ix1004
      0100E9AFH   SYMBOL    CONST    ---       _?ix1014
      0100E927H   SYMBOL    CONST    ---       _?ix1005
      0100E9B3H   SYMBOL    CONST    ---       _?ix1015
      0100E937H   SYMBOL    CONST    ---       _?ix1006
      0100E9B7H   SYMBOL    CONST    ---       _?ix1016
      0100E947H   SYMBOL    CONST    ---       _?ix1007
      0100E9BBH   SYMBOL    CONST    ---       _?ix1017
      0100E983H   SYMBOL    CONST    ---       _?ix1008
      0100E9BFH   SYMBOL    CONST    ---       _?ix1018
      0100E993H   SYMBOL    CONST    ---       _?ix1009

      01003D0BH   BLOCK     CODE     ---       LVL=0
      ---         BLOCKEND  ---      ---       LVL=0

      0100D431H   BLOCK     CODE     ---       LVL=0
      00000006H   SYMBOL    DATA     WORD      adr
      00000001H   SYMBOL    DATA     ---       key_value
      0100D431H   LINE      CODE     ---       #127
      0100D431H   LINE      CODE     ---       #128
      0100D431H   LINE      CODE     ---       #129
      ---         BLOCKEND  ---      ---       LVL=0

      0100C175H   BLOCK     CODE     ---       LVL=0
      0200C8A8H   SYMBOL    XDATA    WORD      adr
      0200C8AAH   SYMBOL    XDATA    ---       key_value
      0100C183H   BLOCK     CODE     NEAR LAB  LVL=1
      0200C8ADH   SYMBOL    XDATA    WORD      key_zero
      ---         BLOCKEND  ---      ---       LVL=1
      0100C175H   LINE      CODE     ---       #132
      0100C183H   LINE      CODE     ---       #133
      0100C183H   LINE      CODE     ---       #134
      0100C18AH   LINE      CODE     ---       #135
      0100C1AEH   LINE      CODE     ---       #136
      ---         BLOCKEND  ---      ---       LVL=0

      0100D08EH   BLOCK     CODE     ---       LVL=0
      0100D08EH   BLOCK     CODE     NEAR LAB  LVL=1
      0200C85BH   SYMBOL    XDATA    ---       tab_zero
      ---         BLOCKEND  ---      ---       LVL=1
      0100D08EH   LINE      CODE     ---       #140
      0100D08EH   LINE      CODE     ---       #141
      0100D08EH   LINE      CODE     ---       #142
      0100D09BH   LINE      CODE     ---       #143
      ---         BLOCKEND  ---      ---       LVL=0

      0100BE57H   BLOCK     CODE     ---       LVL=0
      0200C865H   SYMBOL    XDATA    WORD      adr_start
      0200C867H   SYMBOL    XDATA    BYTE      index
      0200C868H   SYMBOL    XDATA    BYTE      flash_block
      0100BE60H   BLOCK     CODE     NEAR LAB  LVL=1
      0200C869H   SYMBOL    XDATA    BYTE      ch_data
      0200C86AH   SYMBOL    XDATA    ---       tab_data
      ---         BLOCKEND  ---      ---       LVL=1
      0100BE57H   LINE      CODE     ---       #147
      0100BE60H   LINE      CODE     ---       #148
      0100BE60H   LINE      CODE     ---       #149
      0100BE63H   LINE      CODE     ---       #150
      0100BE6EH   LINE      CODE     ---       #151
      0100BE95H   LINE      CODE     ---       #153
      0100BE9EH   LINE      CODE     ---       #154
LX51 LINKER/LOCATER V4.66.97.0                                                        09/27/2023  17:05:17  PAGE 91


      0100BE9EH   LINE      CODE     ---       #155
      0100BE9FH   LINE      CODE     ---       #157
      0100BEA1H   LINE      CODE     ---       #159
      0100BEA4H   LINE      CODE     ---       #161
      0100BEA9H   LINE      CODE     ---       #162
      ---         BLOCKEND  ---      ---       LVL=0

      0100C2A1H   BLOCK     CODE     ---       LVL=0
      0200C85EH   SYMBOL    XDATA    WORD      adr_start
      0200C860H   SYMBOL    XDATA    BYTE      flash_size
      0200C861H   SYMBOL    XDATA    WORD      quantity
      0100C2ABH   BLOCK     CODE     NEAR LAB  LVL=1
      0200C863H   SYMBOL    XDATA    WORD      index
      ---         BLOCKEND  ---      ---       LVL=1
      0100C2A1H   LINE      CODE     ---       #165
      0100C2ABH   LINE      CODE     ---       #166
      0100C2ABH   LINE      CODE     ---       #167
      0100C2AEH   LINE      CODE     ---       #168
      0100C2C4H   LINE      CODE     ---       #169
      0100C2C4H   LINE      CODE     ---       #170
      0100C2D1H   LINE      CODE     ---       #171
      0100C2D1H   LINE      CODE     ---       #172
      0100C2DAH   LINE      CODE     ---       #173
      0100C2DAH   LINE      CODE     ---       #174
      0100C2E6H   LINE      CODE     ---       #175
      0100C2EAH   LINE      CODE     ---       #176
      ---         BLOCKEND  ---      ---       LVL=0

      0100A74EH   BLOCK     CODE     ---       LVL=0
      0200C85EH   SYMBOL    XDATA    ---       p
      00000005H   SYMBOL    DATA     BYTE      index
      0200C862H   SYMBOL    XDATA    WORD      module_type
      0100A754H   BLOCK     CODE     NEAR LAB  LVL=1
      0200C864H   SYMBOL    XDATA    WORD      temp
      ---         BLOCKEND  ---      ---       LVL=1
      0100A74EH   LINE      CODE     ---       #182
      0100A754H   LINE      CODE     ---       #183
      0100A754H   LINE      CODE     ---       #184
      0100A75BH   LINE      CODE     ---       #201
      0100A762H   LINE      CODE     ---       #202
      0100A76BH   LINE      CODE     ---       #203
      0100A772H   LINE      CODE     ---       #204
      0100A77BH   LINE      CODE     ---       #205
      0100A785H   LINE      CODE     ---       #207
      0100A795H   LINE      CODE     ---       #213
      0100A7A8H   LINE      CODE     ---       #214
      0100A7B0H   LINE      CODE     ---       #215
      0100A7C0H   LINE      CODE     ---       #220
      ---         BLOCKEND  ---      ---       LVL=0

      010084B6H   BLOCK     CODE     ---       LVL=0
      0200C85EH   SYMBOL    XDATA    ---       p
      0200C861H   SYMBOL    XDATA    BYTE      index
      010084C1H   BLOCK     CODE     NEAR LAB  LVL=1
      0200C862H   SYMBOL    XDATA    ---       mod_infom_tab
      0200C8A2H   SYMBOL    XDATA    ---       module_name_1
      ---         BLOCKEND  ---      ---       LVL=1
      010084B6H   LINE      CODE     ---       #222
      010084C1H   LINE      CODE     ---       #223
      010084C1H   LINE      CODE     ---       #224
      010084CEH   LINE      CODE     ---       #225
      010084DBH   LINE      CODE     ---       #227
      010084EBH   LINE      CODE     ---       #228
      010084EBH   LINE      CODE     ---       #229
      010084F0H   LINE      CODE     ---       #230
LX51 LINKER/LOCATER V4.66.97.0                                                        09/27/2023  17:05:17  PAGE 92


      010084F2H   LINE      CODE     ---       #231
      010084FDH   LINE      CODE     ---       #232
      010084FDH   LINE      CODE     ---       #233
      01008502H   LINE      CODE     ---       #234
      01008504H   LINE      CODE     ---       #236
      01008504H   LINE      CODE     ---       #237
      01008517H   LINE      CODE     ---       #238
      01008517H   LINE      CODE     ---       #240
      01008542H   LINE      CODE     ---       #244
      0100857BH   LINE      CODE     ---       #247
      ---         BLOCKEND  ---      ---       LVL=0

      010061FAH   BLOCK     CODE     ---       LVL=0
      0200C855H   SYMBOL    XDATA    ---       p
      01006200H   BLOCK     CODE     NEAR LAB  LVL=1
      0200C858H   SYMBOL    XDATA    WORD      key_nb1
      0200C85AH   SYMBOL    XDATA    WORD      key_nb2
      0200C85CH   SYMBOL    XDATA    WORD      temp_adr
      ---         BLOCKEND  ---      ---       LVL=1
      010061FAH   LINE      CODE     ---       #278
      01006200H   LINE      CODE     ---       #279
      01006200H   LINE      CODE     ---       #280
      01006204H   LINE      CODE     ---       #281
      01006204H   LINE      CODE     ---       #282
      01006207H   LINE      CODE     ---       #284
      01006216H   LINE      CODE     ---       #285
      01006222H   LINE      CODE     ---       #286
      01006222H   LINE      CODE     ---       #287
      01006228H   LINE      CODE     ---       #288
      01006237H   LINE      CODE     ---       #289
      01006240H   LINE      CODE     ---       #290
      0100624BH   LINE      CODE     ---       #292
      0100625AH   LINE      CODE     ---       #293
      01006265H   LINE      CODE     ---       #294
      01006265H   LINE      CODE     ---       #295
      0100626CH   LINE      CODE     ---       #296
      01006279H   LINE      CODE     ---       #301
      010062B9H   LINE      CODE     ---       #302
      010062B9H   LINE      CODE     ---       #303
      010062BAH   LINE      CODE     ---       #304
      010062BAH   LINE      CODE     ---       #305
      010062C6H   LINE      CODE     ---       #306
      010062D0H   LINE      CODE     ---       #307
      010062E2H   LINE      CODE     ---       #308
      010062F1H   LINE      CODE     ---       #309
      010062F1H   LINE      CODE     ---       #310
      010062F6H   LINE      CODE     ---       #311
      010062FFH   LINE      CODE     ---       #312
      01006308H   LINE      CODE     ---       #314
      01006308H   LINE      CODE     ---       #315
      01006319H   LINE      CODE     ---       #318
      0100632EH   LINE      CODE     ---       #320
      0100634BH   LINE      CODE     ---       #321
      01006360H   LINE      CODE     ---       #322
      01006366H   LINE      CODE     ---       #323
      0100636FH   LINE      CODE     ---       #324
      01006379H   LINE      CODE     ---       #325
      01006379H   LINE      CODE     ---       #326
      01006385H   LINE      CODE     ---       #327
      01006385H   LINE      CODE     ---       #329
      01006387H   LINE      CODE     ---       #331
      01006387H   LINE      CODE     ---       #332
      0100638DH   LINE      CODE     ---       #333
      01006394H   LINE      CODE     ---       #334
      01006394H   LINE      CODE     ---       #335
LX51 LINKER/LOCATER V4.66.97.0                                                        09/27/2023  17:05:17  PAGE 93


      0100639BH   LINE      CODE     ---       #336
      0100639CH   LINE      CODE     ---       #337
      010063A7H   LINE      CODE     ---       #338
      010063A7H   LINE      CODE     ---       #339
      010063A7H   LINE      CODE     ---       #340
      010063A7H   LINE      CODE     ---       #341
      010063B3H   LINE      CODE     ---       #342
      010063BDH   LINE      CODE     ---       #351
      010063BDH   LINE      CODE     ---       #354
      ---         BLOCKEND  ---      ---       LVL=0
      0200A759H   SYMBOL    XDATA    BYTE      select_sta
      0200A75AH   SYMBOL    XDATA    BYTE      page

      01008914H   BLOCK     CODE     ---       LVL=0
      0200C855H   SYMBOL    XDATA    WORD      touch_key_adr
      0200C857H   SYMBOL    XDATA    WORD      select_key_adr
      0200C859H   SYMBOL    XDATA    BYTE      nb
      0200C85AH   SYMBOL    XDATA    ---       p_key_nb_bak
      0200C85DH   SYMBOL    XDATA    ---       p_select_sta
      01008924H   BLOCK     CODE     NEAR LAB  LVL=1
      0200C860H   SYMBOL    XDATA    WORD      key_nb
      0200C862H   SYMBOL    XDATA    BYTE      i
      ---         BLOCKEND  ---      ---       LVL=1
      01008914H   LINE      CODE     ---       #389
      01008924H   LINE      CODE     ---       #390
      01008924H   LINE      CODE     ---       #391
      01008927H   LINE      CODE     ---       #394
      01008927H   LINE      CODE     ---       #395
      01008931H   LINE      CODE     ---       #397
      0100893EH   LINE      CODE     ---       #398
      0100893EH   LINE      CODE     ---       #399
      01008951H   LINE      CODE     ---       #400
      01008951H   LINE      CODE     ---       #401
      01008967H   LINE      CODE     ---       #402
      01008967H   LINE      CODE     ---       #403
      01008967H   LINE      CODE     ---       #404
      01008967H   LINE      CODE     ---       #405
      01008977H   LINE      CODE     ---       #406
      0100897FH   LINE      CODE     ---       #407
      01008999H   LINE      CODE     ---       #408
      01008999H   LINE      CODE     ---       #409
      0100899FH   LINE      CODE     ---       #410
      010089A9H   LINE      CODE     ---       #412
      010089A9H   LINE      CODE     ---       #414
      010089B1H   LINE      CODE     ---       #416
      010089D4H   LINE      CODE     ---       #417
      010089E1H   LINE      CODE     ---       #418
      010089E1H   LINE      CODE     ---       #419
      ---         BLOCKEND  ---      ---       LVL=0

      0100C821H   BLOCK     CODE     ---       LVL=0
      0200C863H   SYMBOL    XDATA    WORD      select_key_adr
      0200C865H   SYMBOL    XDATA    BYTE      nb
      0100C827H   BLOCK     CODE     NEAR LAB  LVL=1
      0200C866H   SYMBOL    XDATA    BYTE      i
      00000007H   SYMBOL    DATA     BYTE      seq_nb
      ---         BLOCKEND  ---      ---       LVL=1
      0100C821H   LINE      CODE     ---       #423
      0100C827H   LINE      CODE     ---       #424
      0100C827H   LINE      CODE     ---       #425
      0100C82AH   LINE      CODE     ---       #426
      0100C82AH   LINE      CODE     ---       #427
      0100C837H   LINE      CODE     ---       #428
      0100C837H   LINE      CODE     ---       #429
      0100C846H   LINE      CODE     ---       #430
LX51 LINKER/LOCATER V4.66.97.0                                                        09/27/2023  17:05:17  PAGE 94


      0100C849H   LINE      CODE     ---       #431
      0100C849H   LINE      CODE     ---       #432
      0100C84FH   LINE      CODE     ---       #434
      0100C850H   LINE      CODE     ---       #435
      0100C850H   LINE      CODE     ---       #436
      0100C858H   LINE      CODE     ---       #437
      0100C85AH   LINE      CODE     ---       #438
      ---         BLOCKEND  ---      ---       LVL=0
      00000007H   SYMBOL    DATA     BYTE      seq_nb

      0100CF0BH   BLOCK     CODE     ---       LVL=0
      00000006H   SYMBOL    DATA     WORD      t
      0100CF0BH   BLOCK     CODE     NEAR LAB  LVL=1
      00000005H   SYMBOL    DATA     CHAR      i
      ---         BLOCKEND  ---      ---       LVL=1
      0100CF0BH   LINE      CODE     ---       #455
      0100CF0BH   LINE      CODE     ---       #456
      0100CF0BH   LINE      CODE     ---       #458
      0100CF0FH   LINE      CODE     ---       #459
      0100CF0FH   LINE      CODE     ---       #460
      0100CF22H   LINE      CODE     ---       #461
      0100CF22H   LINE      CODE     ---       #462
      0100CF22H   LINE      CODE     ---       #463
      0100CF25H   LINE      CODE     ---       #464
      0100CF2AH   LINE      CODE     ---       #465
      0100CF2CH   LINE      CODE     ---       #466
      ---         BLOCKEND  ---      ---       LVL=0

      0100002EH   BLOCK     CODE     ---       LVL=0
      0100002EH   BLOCK     CODE     NEAR LAB  LVL=1
      0200C875H   SYMBOL    XDATA    WORD      pic
      ---         BLOCKEND  ---      ---       LVL=1
      0100002EH   LINE      CODE     ---       #468
      0100002EH   LINE      CODE     ---       #469
      0100002EH   LINE      CODE     ---       #470
      01000035H   LINE      CODE     ---       #471
      01000043H   LINE      CODE     ---       #472
      0100004AH   LINE      CODE     ---       #473
      01000052H   LINE      CODE     ---       #474
      ---         BLOCKEND  ---      ---       LVL=0

      0100BC53H   BLOCK     CODE     ---       LVL=0
      0200C874H   SYMBOL    XDATA    WORD      pic
      0100BC59H   BLOCK     CODE     NEAR LAB  LVL=1
      0200C876H   SYMBOL    XDATA    WORD      run_num
      ---         BLOCKEND  ---      ---       LVL=1
      0100BC53H   LINE      CODE     ---       #477
      0100BC59H   LINE      CODE     ---       #478
      0100BC59H   LINE      CODE     ---       #479
      0100BC5CH   LINE      CODE     ---       #480
      0100BC66H   LINE      CODE     ---       #481
      0100BC77H   LINE      CODE     ---       #482
      0100BC89H   LINE      CODE     ---       #483
      0100BC8FH   LINE      CODE     ---       #484
      0100BC8FH   LINE      CODE     ---       #485
      0100BCA1H   LINE      CODE     ---       #486
      0100BCA8H   LINE      CODE     ---       #487
      0100BCAAH   LINE      CODE     ---       #488
      ---         BLOCKEND  ---      ---       LVL=0

      0100C2EBH   BLOCK     CODE     ---       LVL=0
      0100C2EBH   LINE      CODE     ---       #490
      0100C2EBH   LINE      CODE     ---       #491
      0100C2EBH   LINE      CODE     ---       #492
      0100C2FAH   LINE      CODE     ---       #495
LX51 LINKER/LOCATER V4.66.97.0                                                        09/27/2023  17:05:17  PAGE 95


      0100C2FAH   LINE      CODE     ---       #496
      0100C322H   LINE      CODE     ---       #497
      0100C322H   LINE      CODE     ---       #498
      0100C322H   LINE      CODE     ---       #501
      0100C322H   LINE      CODE     ---       #502
      0100C322H   LINE      CODE     ---       #508
      0100C322H   LINE      CODE     ---       #514
      0100C322H   LINE      CODE     ---       #520
      0100C322H   LINE      CODE     ---       #526
      0100C322H   LINE      CODE     ---       #532
      0100C322H   LINE      CODE     ---       #534
      0100C322H   LINE      CODE     ---       #537
      0100C322H   LINE      CODE     ---       #538
      0100C334H   LINE      CODE     ---       #543
      0100C334H   LINE      CODE     ---       #544
      0100C334H   LINE      CODE     ---       #546
      0100C334H   LINE      CODE     ---       #547
      0100C334H   LINE      CODE     ---       #548
      0100C334H   LINE      CODE     ---       #549
      ---         BLOCKEND  ---      ---       LVL=0

      010076BEH   BLOCK     CODE     ---       LVL=0
      010076BEH   BLOCK     CODE     NEAR LAB  LVL=1
      0200C855H   SYMBOL    XDATA    WORD      default_channel
      ---         BLOCKEND  ---      ---       LVL=1
      010076BEH   LINE      CODE     ---       #552
      010076BEH   LINE      CODE     ---       #553
      010076BEH   LINE      CODE     ---       #563
      010076C7H   LINE      CODE     ---       #565
      010076D8H   LINE      CODE     ---       #568
      01007703H   LINE      CODE     ---       #569
      01007703H   LINE      CODE     ---       #570
      01007703H   LINE      CODE     ---       #571
      01007703H   LINE      CODE     ---       #572
      0100770CH   LINE      CODE     ---       #576
      0100770CH   LINE      CODE     ---       #577
      0100770CH   LINE      CODE     ---       #579
      0100770EH   LINE      CODE     ---       #580
      0100770EH   LINE      CODE     ---       #581
      0100770EH   LINE      CODE     ---       #582
      01007714H   LINE      CODE     ---       #584
      0100771DH   LINE      CODE     ---       #585
      0100771DH   LINE      CODE     ---       #586
      0100771DH   LINE      CODE     ---       #588
      0100771FH   LINE      CODE     ---       #589
      0100771FH   LINE      CODE     ---       #590
      01007726H   LINE      CODE     ---       #591
      01007729H   LINE      CODE     ---       #593
      01007732H   LINE      CODE     ---       #594
      01007732H   LINE      CODE     ---       #595
      01007732H   LINE      CODE     ---       #597
      01007734H   LINE      CODE     ---       #599
      01007734H   LINE      CODE     ---       #600
      0100773BH   LINE      CODE     ---       #601
      0100773BH   LINE      CODE     ---       #602
      0100773EH   LINE      CODE     ---       #603
      0100773EH   LINE      CODE     ---       #604
      0100773EH   LINE      CODE     ---       #607
      01007740H   LINE      CODE     ---       #608
      01007740H   LINE      CODE     ---       #609
      01007747H   LINE      CODE     ---       #610
      01007747H   LINE      CODE     ---       #611
      0100774AH   LINE      CODE     ---       #612
      0100774AH   LINE      CODE     ---       #613
      0100774AH   LINE      CODE     ---       #620
LX51 LINKER/LOCATER V4.66.97.0                                                        09/27/2023  17:05:17  PAGE 96


      0100774CH   LINE      CODE     ---       #621
      0100774CH   LINE      CODE     ---       #622
      01007753H   LINE      CODE     ---       #623
      01007759H   LINE      CODE     ---       #624
      01007762H   LINE      CODE     ---       #625
      01007762H   LINE      CODE     ---       #626
      01007762H   LINE      CODE     ---       #630
      01007764H   LINE      CODE     ---       #631
      01007764H   LINE      CODE     ---       #632
      0100776BH   LINE      CODE     ---       #633
      01007771H   LINE      CODE     ---       #634
      0100777DH   LINE      CODE     ---       #635
      0100777DH   LINE      CODE     ---       #636
      0100777DH   LINE      CODE     ---       #641
      0100777FH   LINE      CODE     ---       #642
      0100777FH   LINE      CODE     ---       #644
      01007782H   LINE      CODE     ---       #645
      01007786H   LINE      CODE     ---       #646
      01007798H   LINE      CODE     ---       #652
      01007798H   LINE      CODE     ---       #653
      01007798H   LINE      CODE     ---       #655
      ---         BLOCKEND  ---      ---       LVL=0

      0100D352H   BLOCK     CODE     ---       LVL=0
      00000001H   SYMBOL    DATA     ---       p
      0100D352H   LINE      CODE     ---       #657
      0100D352H   LINE      CODE     ---       #658
      0100D352H   LINE      CODE     ---       #659
      ---         BLOCKEND  ---      ---       LVL=0

      0100A94EH   BLOCK     CODE     ---       LVL=0
      0100A94EH   BLOCK     CODE     NEAR LAB  LVL=1
      0200C853H   SYMBOL    XDATA    WORD      key_nb
      0200C855H   SYMBOL    XDATA    ---       rtc_parm
      ---         BLOCKEND  ---      ---       LVL=1
      0100A94EH   LINE      CODE     ---       #662
      0100A94EH   LINE      CODE     ---       #663
      0100A94EH   LINE      CODE     ---       #664
      0100A955H   LINE      CODE     ---       #665
      0100A960H   LINE      CODE     ---       #669
      0100A966H   LINE      CODE     ---       #670
      0100A972H   LINE      CODE     ---       #671
      0100A972H   LINE      CODE     ---       #673
      0100A978H   LINE      CODE     ---       #676
      0100A980H   LINE      CODE     ---       #677
      0100A988H   LINE      CODE     ---       #678
      0100A990H   LINE      CODE     ---       #679
      0100A998H   LINE      CODE     ---       #680
      0100A99BH   LINE      CODE     ---       #681
      0100A9A4H   LINE      CODE     ---       #683
      0100A9ADH   LINE      CODE     ---       #684
      0100A9B4H   LINE      CODE     ---       #686
      0100A9BAH   LINE      CODE     ---       #687
      0100A9CAH   LINE      CODE     ---       #688
      0100A9CAH   LINE      CODE     ---       #689
      ---         BLOCKEND  ---      ---       LVL=0

      0100C7E5H   BLOCK     CODE     ---       LVL=0
      00000001H   SYMBOL    DATA     ---       p
      0200C861H   SYMBOL    XDATA    BYTE      relay_page
      0200C862H   SYMBOL    XDATA    BYTE      time_relay_page
      0200C863H   SYMBOL    XDATA    ---       p_var_page
      0100C7E5H   LINE      CODE     ---       #698
      0100C7EAH   LINE      CODE     ---       #699
      0100C7EAH   LINE      CODE     ---       #700
LX51 LINKER/LOCATER V4.66.97.0                                                        09/27/2023  17:05:17  PAGE 97


      0100C7F5H   LINE      CODE     ---       #701
      0100C7F5H   LINE      CODE     ---       #702
      0100C7FFH   LINE      CODE     ---       #703
      0100C807H   LINE      CODE     ---       #704
      0100C809H   LINE      CODE     ---       #706
      0100C809H   LINE      CODE     ---       #707
      0100C813H   LINE      CODE     ---       #708
      0100C820H   LINE      CODE     ---       #709
      0100C820H   LINE      CODE     ---       #710
      ---         BLOCKEND  ---      ---       LVL=0

      01008E88H   BLOCK     CODE     ---       LVL=0
      0200C85BH   SYMBOL    XDATA    ---       p
      01008E88H   LINE      CODE     ---       #712
      01008E8EH   LINE      CODE     ---       #713
      01008E8EH   LINE      CODE     ---       #714
      01008E9BH   LINE      CODE     ---       #716
      01008EAEH   LINE      CODE     ---       #717
      01008EC1H   LINE      CODE     ---       #718
      01008EE3H   LINE      CODE     ---       #719
      01008EE3H   LINE      CODE     ---       #720
      01008EE3H   LINE      CODE     ---       #721
      01008F01H   LINE      CODE     ---       #722
      01008F03H   LINE      CODE     ---       #723
      01008F03H   LINE      CODE     ---       #724
      01008F0AH   LINE      CODE     ---       #725
      01008F0CH   LINE      CODE     ---       #726
      01008F0CH   LINE      CODE     ---       #727
      01008F13H   LINE      CODE     ---       #729
      01008F15H   LINE      CODE     ---       #730
      01008F15H   LINE      CODE     ---       #731
      01008F1FH   LINE      CODE     ---       #732
      01008F21H   LINE      CODE     ---       #733
      01008F21H   LINE      CODE     ---       #734
      01008F2BH   LINE      CODE     ---       #735
      01008F2DH   LINE      CODE     ---       #736
      01008F2DH   LINE      CODE     ---       #737
      01008F37H   LINE      CODE     ---       #738
      01008F39H   LINE      CODE     ---       #739
      01008F39H   LINE      CODE     ---       #740
      01008F46H   LINE      CODE     ---       #741
      01008F46H   LINE      CODE     ---       #742
      01008F46H   LINE      CODE     ---       #743
      01008F46H   LINE      CODE     ---       #744
      01008F46H   LINE      CODE     ---       #745
      ---         BLOCKEND  ---      ---       LVL=0

      0100BEFCH   BLOCK     CODE     ---       LVL=0
      0200C85BH   SYMBOL    XDATA    ---       p
      0100BEFCH   LINE      CODE     ---       #747
      0100BF02H   LINE      CODE     ---       #748
      0100BF02H   LINE      CODE     ---       #749
      0100BF0FH   LINE      CODE     ---       #751
      0100BF22H   LINE      CODE     ---       #752
      0100BF35H   LINE      CODE     ---       #753
      0100BF42H   LINE      CODE     ---       #754
      0100BF42H   LINE      CODE     ---       #755
      0100BF42H   LINE      CODE     ---       #756
      0100BF44H   LINE      CODE     ---       #757
      0100BF46H   LINE      CODE     ---       #758
      0100BF46H   LINE      CODE     ---       #759
      0100BF4DH   LINE      CODE     ---       #760
      0100BF4DH   LINE      CODE     ---       #761
      0100BF4DH   LINE      CODE     ---       #762
      0100BF4DH   LINE      CODE     ---       #763
LX51 LINKER/LOCATER V4.66.97.0                                                        09/27/2023  17:05:17  PAGE 98


      0100BF4DH   LINE      CODE     ---       #764
      ---         BLOCKEND  ---      ---       LVL=0

      0100D3B2H   BLOCK     CODE     ---       LVL=0
      0100D3B2H   LINE      CODE     ---       #765
      0100D3B2H   LINE      CODE     ---       #766
      0100D3B2H   LINE      CODE     ---       #767
      ---         BLOCKEND  ---      ---       LVL=0

      0100BF4EH   BLOCK     CODE     ---       LVL=0
      0200C853H   SYMBOL    XDATA    ---       p
      0100BF54H   BLOCK     CODE     NEAR LAB  LVL=1
      0200C856H   SYMBOL    XDATA    WORD      key_nb
      ---         BLOCKEND  ---      ---       LVL=1
      0100BF4EH   LINE      CODE     ---       #773
      0100BF54H   LINE      CODE     ---       #774
      0100BF54H   LINE      CODE     ---       #775
      0100BF57H   LINE      CODE     ---       #776
      0100BF65H   LINE      CODE     ---       #777
      0100BF6FH   LINE      CODE     ---       #778
      0100BF6FH   LINE      CODE     ---       #779
      0100BF7AH   LINE      CODE     ---       #781
      0100BF7FH   LINE      CODE     ---       #782
      0100BF91H   LINE      CODE     ---       #783
      0100BF9EH   LINE      CODE     ---       #784
      0100BF9EH   LINE      CODE     ---       #785
      ---         BLOCKEND  ---      ---       LVL=0

      0100B05BH   BLOCK     CODE     ---       LVL=0
      0200C875H   SYMBOL    XDATA    WORD      week_enable_adr
      0200C877H   SYMBOL    XDATA    BYTE      week_enable
      0100B061H   BLOCK     CODE     NEAR LAB  LVL=1
      0200C878H   SYMBOL    XDATA    BYTE      i
      0200A75BH   SYMBOL    XDATA    BYTE      week_enable_bak
      ---         BLOCKEND  ---      ---       LVL=1
      0100B05BH   LINE      CODE     ---       #787
      0100B061H   LINE      CODE     ---       #788
      0100B061H   LINE      CODE     ---       #789
      0100B064H   LINE      CODE     ---       #791
      0100B06BH   LINE      CODE     ---       #792
      0100B06BH   LINE      CODE     ---       #793
      0100B073H   LINE      CODE     ---       #794
      0100B080H   LINE      CODE     ---       #795
      0100B092H   LINE      CODE     ---       #796
      0100B092H   LINE      CODE     ---       #797
      0100B0B8H   LINE      CODE     ---       #798
      0100B0C0H   LINE      CODE     ---       #799
      0100B0C0H   LINE      CODE     ---       #800
      ---         BLOCKEND  ---      ---       LVL=0

      0100B0C1H   BLOCK     CODE     ---       LVL=0
      0200C875H   SYMBOL    XDATA    WORD      solar_adr
      00000004H   SYMBOL    DATA     WORD      solar_en_adr
      00000003H   SYMBOL    DATA     BYTE      solar_enable
      0200C87AH   SYMBOL    XDATA    BYTE      solar_up
      0200C87BH   SYMBOL    XDATA    BYTE      solar_down
      0100B0C9H   BLOCK     CODE     NEAR LAB  LVL=1
      0200A75CH   SYMBOL    XDATA    BYTE      solar_down_bak
      0200A75DH   SYMBOL    XDATA    BYTE      solar_up_bak
      0200A75EH   SYMBOL    XDATA    BYTE      solar_en_bak
      ---         BLOCKEND  ---      ---       LVL=1
      0100B0C1H   LINE      CODE     ---       #802
      0100B0C9H   LINE      CODE     ---       #803
      0100B0C9H   LINE      CODE     ---       #805
      0100B0D0H   LINE      CODE     ---       #806
LX51 LINKER/LOCATER V4.66.97.0                                                        09/27/2023  17:05:17  PAGE 99


      0100B0D0H   LINE      CODE     ---       #807
      0100B0D2H   LINE      CODE     ---       #808
      0100B0DCH   LINE      CODE     ---       #809
      0100B0DCH   LINE      CODE     ---       #810
      0100B0E8H   LINE      CODE     ---       #811
      0100B0E8H   LINE      CODE     ---       #812
      0100B0F1H   LINE      CODE     ---       #813
      0100B104H   LINE      CODE     ---       #814
      0100B104H   LINE      CODE     ---       #815
      0100B110H   LINE      CODE     ---       #816
      0100B110H   LINE      CODE     ---       #817
      0100B119H   LINE      CODE     ---       #818
      0100B126H   LINE      CODE     ---       #819
      0100B126H   LINE      CODE     ---       #820
      ---         BLOCKEND  ---      ---       LVL=0

      0100B6E1H   BLOCK     CODE     ---       LVL=0
      0200C875H   SYMBOL    XDATA    WORD      time_frame_adr
      0200C877H   SYMBOL    XDATA    ---       p_data
      0100B6EDH   BLOCK     CODE     NEAR LAB  LVL=1
      0200A75FH   SYMBOL    XDATA    ---       time_frame_bak
      0200C87AH   SYMBOL    XDATA    BYTE      i
      ---         BLOCKEND  ---      ---       LVL=1
      0100B6E1H   LINE      CODE     ---       #823
      0100B6EDH   LINE      CODE     ---       #824
      0100B6EDH   LINE      CODE     ---       #826
      0100B6F2H   LINE      CODE     ---       #827
      0100B6FBH   LINE      CODE     ---       #828
      0100B6FBH   LINE      CODE     ---       #829
      0100B710H   LINE      CODE     ---       #830
      0100B710H   LINE      CODE     ---       #831
      0100B71EH   LINE      CODE     ---       #832
      0100B737H   LINE      CODE     ---       #833
      0100B737H   LINE      CODE     ---       #834
      0100B73FH   LINE      CODE     ---       #835
      ---         BLOCKEND  ---      ---       LVL=0

      01007B6DH   BLOCK     CODE     ---       LVL=0
      0200C855H   SYMBOL    XDATA    ---       p
      0200C858H   SYMBOL    XDATA    BYTE      channel
      01007B78H   BLOCK     CODE     NEAR LAB  LVL=1
      0200C859H   SYMBOL    XDATA    WORD      week_enable_adr
      0200C85BH   SYMBOL    XDATA    BYTE      week_enable
      0200C85CH   SYMBOL    XDATA    WORD      solar_adr
      0200C85EH   SYMBOL    XDATA    WORD      solar_en_adr
      0200C860H   SYMBOL    XDATA    BYTE      solar_enable
      0200C861H   SYMBOL    XDATA    BYTE      solar_up
      0200C862H   SYMBOL    XDATA    BYTE      solar_down
      0200C863H   SYMBOL    XDATA    WORD      time_frame_adr
      0200C865H   SYMBOL    XDATA    ---       p_data
      ---         BLOCKEND  ---      ---       LVL=1
      01007B6DH   LINE      CODE     ---       #837
      01007B78H   LINE      CODE     ---       #838
      01007B78H   LINE      CODE     ---       #839
      01007B7AH   LINE      CODE     ---       #840
      01007B7AH   LINE      CODE     ---       #841
      01007B7AH   LINE      CODE     ---       #842
      01007B7DH   LINE      CODE     ---       #843
      01007B7DH   LINE      CODE     ---       #844
      01007B7DH   LINE      CODE     ---       #845
      01007B7DH   LINE      CODE     ---       #846
      01007B80H   LINE      CODE     ---       #847
      01007B8BH   LINE      CODE     ---       #848
      01007B97H   LINE      CODE     ---       #851
      01007BA6H   LINE      CODE     ---       #852
LX51 LINKER/LOCATER V4.66.97.0                                                        09/27/2023  17:05:17  PAGE 100


      01007BA6H   LINE      CODE     ---       #853
      01007BB0H   LINE      CODE     ---       #854
      01007BB3H   LINE      CODE     ---       #855
      01007BBAH   LINE      CODE     ---       #856
      01007BC2H   LINE      CODE     ---       #857
      01007BC4H   LINE      CODE     ---       #858
      01007BD3H   LINE      CODE     ---       #859
      01007BD3H   LINE      CODE     ---       #861
      01007BDDH   LINE      CODE     ---       #862
      01007BE0H   LINE      CODE     ---       #863
      01007BE7H   LINE      CODE     ---       #864
      01007C01H   LINE      CODE     ---       #865
      01007C01H   LINE      CODE     ---       #867
      01007C01H   LINE      CODE     ---       #868
      01007C01H   LINE      CODE     ---       #869
      01007C1DH   LINE      CODE     ---       #870
      01007C27H   LINE      CODE     ---       #871
      01007C31H   LINE      CODE     ---       #872
      01007C3BH   LINE      CODE     ---       #873
      01007C44H   LINE      CODE     ---       #874
      01007C4DH   LINE      CODE     ---       #880
      01007C57H   LINE      CODE     ---       #881
      01007C75H   LINE      CODE     ---       #882
      01007C82H   LINE      CODE     ---       #883
      ---         BLOCKEND  ---      ---       LVL=0

      0100BDAEH   BLOCK     CODE     ---       LVL=0
      00000001H   SYMBOL    DATA     ---       p
      0200C879H   SYMBOL    XDATA    BYTE      channel
      0200C87AH   SYMBOL    XDATA    BYTE      state
      0100BDB3H   BLOCK     CODE     NEAR LAB  LVL=1
      00000006H   SYMBOL    DATA     WORD      channel_enable
      ---         BLOCKEND  ---      ---       LVL=1
      0100BDAEH   LINE      CODE     ---       #885
      0100BDB3H   LINE      CODE     ---       #886
      0100BDB3H   LINE      CODE     ---       #887
      0100BDB6H   LINE      CODE     ---       #888
      0100BDC5H   LINE      CODE     ---       #889
      0100BDC5H   LINE      CODE     ---       #890
      0100BDC5H   LINE      CODE     ---       #891
      0100BDC5H   LINE      CODE     ---       #892
      0100BDCCH   LINE      CODE     ---       #893
      0100BDCCH   LINE      CODE     ---       #894
      0100BDE2H   LINE      CODE     ---       #895
      0100BDE3H   LINE      CODE     ---       #897
      0100BDE3H   LINE      CODE     ---       #898
      0100BDFDH   LINE      CODE     ---       #899
      0100BDFDH   LINE      CODE     ---       #900
      0100BDFEH   LINE      CODE     ---       #901
      0100BDFEH   LINE      CODE     ---       #902
      0100BDFEH   LINE      CODE     ---       #903
      0100BE02H   LINE      CODE     ---       #904
      0100BE02H   LINE      CODE     ---       #905
      0100BE02H   LINE      CODE     ---       #906
      0100BE02H   LINE      CODE     ---       #907
      ---         BLOCKEND  ---      ---       LVL=0

      01008840H   BLOCK     CODE     ---       LVL=0
      0200C85BH   SYMBOL    XDATA    ---       p
      0200C85EH   SYMBOL    XDATA    BYTE      channel
      0200C85FH   SYMBOL    XDATA    BYTE      state
      0100884BH   BLOCK     CODE     NEAR LAB  LVL=1
      0200C860H   SYMBOL    XDATA    BYTE      week_adr_start
      0200C861H   SYMBOL    XDATA    BYTE      week_adr_end
      0200C862H   SYMBOL    XDATA    BYTE      data_len
LX51 LINKER/LOCATER V4.66.97.0                                                        09/27/2023  17:05:17  PAGE 101


      0200C863H   SYMBOL    XDATA    BYTE      week_enable
      0200C864H   SYMBOL    XDATA    BYTE      i
      ---         BLOCKEND  ---      ---       LVL=1
      01008840H   LINE      CODE     ---       #909
      0100884BH   LINE      CODE     ---       #910
      0100884BH   LINE      CODE     ---       #911
      0100884FH   LINE      CODE     ---       #912
      0100884FH   LINE      CODE     ---       #913
      0100884FH   LINE      CODE     ---       #914
      01008852H   LINE      CODE     ---       #915
      01008863H   LINE      CODE     ---       #916
      01008863H   LINE      CODE     ---       #917
      01008863H   LINE      CODE     ---       #918
      01008865H   LINE      CODE     ---       #919
      01008867H   LINE      CODE     ---       #920
      01008867H   LINE      CODE     ---       #921
      0100886BH   LINE      CODE     ---       #922
      0100886DH   LINE      CODE     ---       #923
      0100886DH   LINE      CODE     ---       #924
      0100886DH   LINE      CODE     ---       #925
      0100887AH   LINE      CODE     ---       #926
      0100887AH   LINE      CODE     ---       #927
      0100887AH   LINE      CODE     ---       #928
      0100887AH   LINE      CODE     ---       #929
      0100887AH   LINE      CODE     ---       #930
      01008887H   LINE      CODE     ---       #931
      01008887H   LINE      CODE     ---       #932
      0100888AH   LINE      CODE     ---       #933
      01008890H   LINE      CODE     ---       #934
      01008896H   LINE      CODE     ---       #935
      01008898H   LINE      CODE     ---       #937
      01008898H   LINE      CODE     ---       #938
      0100889BH   LINE      CODE     ---       #939
      010088A1H   LINE      CODE     ---       #940
      010088A7H   LINE      CODE     ---       #941
      010088A7H   LINE      CODE     ---       #945
      010088BDH   LINE      CODE     ---       #946
      010088D2H   LINE      CODE     ---       #947
      010088D2H   LINE      CODE     ---       #948
      010088E7H   LINE      CODE     ---       #949
      010088EFH   LINE      CODE     ---       #950
      010088FBH   LINE      CODE     ---       #951
      ---         BLOCKEND  ---      ---       LVL=0

      01007A44H   BLOCK     CODE     ---       LVL=0
      0200C85BH   SYMBOL    XDATA    ---       p
      0200C85EH   SYMBOL    XDATA    BYTE      channel
      0200C85FH   SYMBOL    XDATA    BYTE      state
      01007A4FH   BLOCK     CODE     NEAR LAB  LVL=1
      0200C860H   SYMBOL    XDATA    BYTE      solar_adr_start
      0200C861H   SYMBOL    XDATA    BYTE      solar_adr_end
      0200C862H   SYMBOL    XDATA    BYTE      data_len
      0200C863H   SYMBOL    XDATA    BYTE      solar_enable
      0200C864H   SYMBOL    XDATA    BYTE      i
      00000007H   SYMBOL    DATA     BYTE      solar_up
      0200C865H   SYMBOL    XDATA    BYTE      solar_down
      0200C866H   SYMBOL    XDATA    WORD      solar_parameter
      ---         BLOCKEND  ---      ---       LVL=1
      01007A44H   LINE      CODE     ---       #954
      01007A4FH   LINE      CODE     ---       #955
      01007A4FH   LINE      CODE     ---       #956
      01007A53H   LINE      CODE     ---       #957
      01007A53H   LINE      CODE     ---       #958
      01007A53H   LINE      CODE     ---       #960
      01007A56H   LINE      CODE     ---       #961
LX51 LINKER/LOCATER V4.66.97.0                                                        09/27/2023  17:05:17  PAGE 102


      01007A57H   LINE      CODE     ---       #962
      01007A5AH   LINE      CODE     ---       #963
      01007A6BH   LINE      CODE     ---       #964
      01007A6BH   LINE      CODE     ---       #965
      01007A6BH   LINE      CODE     ---       #966
      01007A70H   LINE      CODE     ---       #967
      01007A75H   LINE      CODE     ---       #968
      01007A77H   LINE      CODE     ---       #970
      01007A79H   LINE      CODE     ---       #971
      01007A79H   LINE      CODE     ---       #973
      01007A7EH   LINE      CODE     ---       #974
      01007A83H   LINE      CODE     ---       #975
      01007A87H   LINE      CODE     ---       #976
      01007A89H   LINE      CODE     ---       #977
      01007A89H   LINE      CODE     ---       #978
      01007A89H   LINE      CODE     ---       #979
      01007A95H   LINE      CODE     ---       #980
      01007AA1H   LINE      CODE     ---       #981
      01007AA8H   LINE      CODE     ---       #982
      01007AA8H   LINE      CODE     ---       #983
      01007AA8H   LINE      CODE     ---       #984
      01007AA8H   LINE      CODE     ---       #985
      01007AA8H   LINE      CODE     ---       #986
      01007AB5H   LINE      CODE     ---       #987
      01007AB5H   LINE      CODE     ---       #988
      01007AB8H   LINE      CODE     ---       #989
      01007ABEH   LINE      CODE     ---       #990
      01007AC4H   LINE      CODE     ---       #991
      01007AC6H   LINE      CODE     ---       #993
      01007AC6H   LINE      CODE     ---       #994
      01007AC9H   LINE      CODE     ---       #995
      01007ACFH   LINE      CODE     ---       #996
      01007AD5H   LINE      CODE     ---       #997
      01007AD5H   LINE      CODE     ---       #999
      01007AEDH   LINE      CODE     ---       #1000
      01007B03H   LINE      CODE     ---       #1001
      01007B18H   LINE      CODE     ---       #1002
      01007B18H   LINE      CODE     ---       #1003
      01007B2AH   LINE      CODE     ---       #1004
      01007B32H   LINE      CODE     ---       #1005
      01007B3EH   LINE      CODE     ---       #1006
      01007B57H   LINE      CODE     ---       #1007
      ---         BLOCKEND  ---      ---       LVL=0

      0100523AH   BLOCK     CODE     ---       LVL=0
      0200C85BH   SYMBOL    XDATA    ---       p
      0200C85EH   SYMBOL    XDATA    BYTE      channel
      0200C85FH   SYMBOL    XDATA    BYTE      state
      01005245H   BLOCK     CODE     NEAR LAB  LVL=1
      0200C860H   SYMBOL    XDATA    BYTE      time_frame_adr_start
      0200C861H   SYMBOL    XDATA    BYTE      time_frame_adr_end
      0200C862H   SYMBOL    XDATA    BYTE      data_len
      0200C863H   SYMBOL    XDATA    WORD      time_frame_set_adr
      0200C865H   SYMBOL    XDATA    BYTE      i
      0200C866H   SYMBOL    XDATA    ---       time_frame_parameter
      ---         BLOCKEND  ---      ---       LVL=1
      0100523AH   LINE      CODE     ---       #1009
      01005245H   LINE      CODE     ---       #1010
      01005245H   LINE      CODE     ---       #1011
      01005249H   LINE      CODE     ---       #1012
      01005249H   LINE      CODE     ---       #1013
      01005249H   LINE      CODE     ---       #1014
      01005249H   LINE      CODE     ---       #1016
      0100524CH   LINE      CODE     ---       #1017
      01005257H   LINE      CODE     ---       #1018
LX51 LINKER/LOCATER V4.66.97.0                                                        09/27/2023  17:05:17  PAGE 103


      01005268H   LINE      CODE     ---       #1019
      01005268H   LINE      CODE     ---       #1020
      01005268H   LINE      CODE     ---       #1021
      01005271H   LINE      CODE     ---       #1031
      01005273H   LINE      CODE     ---       #1032
      01005273H   LINE      CODE     ---       #1033
      0100527DH   LINE      CODE     ---       #1042
      0100527FH   LINE      CODE     ---       #1043
      0100527FH   LINE      CODE     ---       #1044
      0100527FH   LINE      CODE     ---       #1045
      01005289H   LINE      CODE     ---       #1047
      01005289H   LINE      CODE     ---       #1048
      01005289H   LINE      CODE     ---       #1049
      01005289H   LINE      CODE     ---       #1050
      01005289H   LINE      CODE     ---       #1051
      010052A8H   LINE      CODE     ---       #1052
      010052BFH   LINE      CODE     ---       #1053
      010052D6H   LINE      CODE     ---       #1054
      010052EDH   LINE      CODE     ---       #1055
      01005304H   LINE      CODE     ---       #1056
      0100531BH   LINE      CODE     ---       #1057
      01005335H   LINE      CODE     ---       #1058
      0100535CH   LINE      CODE     ---       #1059
      01005369H   LINE      CODE     ---       #1060
      01005369H   LINE      CODE     ---       #1061
      0100536CH   LINE      CODE     ---       #1062
      01005372H   LINE      CODE     ---       #1063
      01005378H   LINE      CODE     ---       #1064
      0100537AH   LINE      CODE     ---       #1066
      0100537AH   LINE      CODE     ---       #1067
      0100537DH   LINE      CODE     ---       #1068
      01005383H   LINE      CODE     ---       #1069
      01005389H   LINE      CODE     ---       #1070
      01005389H   LINE      CODE     ---       #1071
      0100539FH   LINE      CODE     ---       #1073
      010053B7H   LINE      CODE     ---       #1074
      010053B7H   LINE      CODE     ---       #1075
      010053CEH   LINE      CODE     ---       #1076
      010053DFH   LINE      CODE     ---       #1077
      010053F0H   LINE      CODE     ---       #1078
      01005401H   LINE      CODE     ---       #1079
      01005412H   LINE      CODE     ---       #1080
      01005423H   LINE      CODE     ---       #1081
      01005437H   LINE      CODE     ---       #1082
      0100544CH   LINE      CODE     ---       #1083
      01005455H   LINE      CODE     ---       #1084
      01005461H   LINE      CODE     ---       #1085
      0100547AH   LINE      CODE     ---       #1086
      ---         BLOCKEND  ---      ---       LVL=0

      010092FFH   BLOCK     CODE     ---       LVL=0
      0200C855H   SYMBOL    XDATA    WORD      key_adr
      0200C857H   SYMBOL    XDATA    WORD      adr1
      0200C859H   SYMBOL    XDATA    WORD      adr2
      01009312H   BLOCK     CODE     NEAR LAB  LVL=1
      0200C85BH   SYMBOL    XDATA    WORD      key_nb
      ---         BLOCKEND  ---      ---       LVL=1
      010092FFH   LINE      CODE     ---       #1088
      01009312H   LINE      CODE     ---       #1089
      01009312H   LINE      CODE     ---       #1090
      01009315H   LINE      CODE     ---       #1091
      0100931FH   LINE      CODE     ---       #1092
      01009327H   LINE      CODE     ---       #1093
      01009327H   LINE      CODE     ---       #1094
      01009332H   LINE      CODE     ---       #1095
LX51 LINKER/LOCATER V4.66.97.0                                                        09/27/2023  17:05:17  PAGE 104


      01009332H   LINE      CODE     ---       #1096
      01009332H   LINE      CODE     ---       #1097
      0100933AH   LINE      CODE     ---       #1098
      0100933AH   LINE      CODE     ---       #1099
      0100933AH   LINE      CODE     ---       #1100
      0100933AH   LINE      CODE     ---       #1101
      0100933CH   LINE      CODE     ---       #1102
      01009342H   LINE      CODE     ---       #1103
      01009342H   LINE      CODE     ---       #1104
      01009342H   LINE      CODE     ---       #1105
      01009342H   LINE      CODE     ---       #1106
      01009342H   LINE      CODE     ---       #1107
      01009344H   LINE      CODE     ---       #1108
      01009344H   LINE      CODE     ---       #1109
      0100934CH   LINE      CODE     ---       #1110
      0100934CH   LINE      CODE     ---       #1111
      01009358H   LINE      CODE     ---       #1112
      0100935EH   LINE      CODE     ---       #1113
      01009360H   LINE      CODE     ---       #1114
      01009366H   LINE      CODE     ---       #1115
      01009366H   LINE      CODE     ---       #1116
      01009371H   LINE      CODE     ---       #1117
      0100937BH   LINE      CODE     ---       #1118
      0100937BH   LINE      CODE     ---       #1119
      0100937BH   LINE      CODE     ---       #1120
      0100937BH   LINE      CODE     ---       #1121
      0100937BH   LINE      CODE     ---       #1122
      0100937BH   LINE      CODE     ---       #1123
      01009388H   LINE      CODE     ---       #1124
      0100938BH   LINE      CODE     ---       #1125
      0100938BH   LINE      CODE     ---       #1126
      0100938DH   LINE      CODE     ---       #1127
      ---         BLOCKEND  ---      ---       LVL=0

      0100C37FH   BLOCK     CODE     ---       LVL=0
      0100C37FH   LINE      CODE     ---       #1129
      0100C37FH   LINE      CODE     ---       #1130
      0100C37FH   LINE      CODE     ---       #1131
      0100C388H   LINE      CODE     ---       #1132
      0100C391H   LINE      CODE     ---       #1133
      0100C39FH   LINE      CODE     ---       #1134
      0100C3AEH   LINE      CODE     ---       #1135
      0100C3BDH   LINE      CODE     ---       #1136
      ---         BLOCKEND  ---      ---       LVL=0

      0100551EH   BLOCK     CODE     ---       LVL=0
      0200C85BH   SYMBOL    XDATA    ---       p
      0100551EH   LINE      CODE     ---       #1138
      01005524H   LINE      CODE     ---       #1139
      01005524H   LINE      CODE     ---       #1141
      01005586H   LINE      CODE     ---       #1142
      01005597H   LINE      CODE     ---       #1143
      010055A8H   LINE      CODE     ---       #1144
      010055B9H   LINE      CODE     ---       #1145
      010055CAH   LINE      CODE     ---       #1146
      010055D7H   LINE      CODE     ---       #1148
      01005631H   LINE      CODE     ---       #1150
      0100579CH   LINE      CODE     ---       #1152
      010057B4H   LINE      CODE     ---       #1153
      ---         BLOCKEND  ---      ---       LVL=0

      010095CAH   BLOCK     CODE     ---       LVL=0
      0200C85BH   SYMBOL    XDATA    ---       p
      010095CAH   LINE      CODE     ---       #1155
      010095D0H   LINE      CODE     ---       #1156
LX51 LINKER/LOCATER V4.66.97.0                                                        09/27/2023  17:05:17  PAGE 105


      010095D0H   LINE      CODE     ---       #1157
      010095E0H   LINE      CODE     ---       #1158
      010095F1H   LINE      CODE     ---       #1159
      01009602H   LINE      CODE     ---       #1160
      01009613H   LINE      CODE     ---       #1161
      01009624H   LINE      CODE     ---       #1162
      01009635H   LINE      CODE     ---       #1163
      01009646H   LINE      CODE     ---       #1164
      01009657H   LINE      CODE     ---       #1165
      01009664H   LINE      CODE     ---       #1167
      ---         BLOCKEND  ---      ---       LVL=0

      01008F47H   BLOCK     CODE     ---       LVL=0
      0200C855H   SYMBOL    XDATA    ---       p
      0200C858H   SYMBOL    XDATA    BYTE      channel
      01008F52H   BLOCK     CODE     NEAR LAB  LVL=1
      0200C859H   SYMBOL    XDATA    WORD      key_nb
      ---         BLOCKEND  ---      ---       LVL=1
      01008F47H   LINE      CODE     ---       #1170
      01008F52H   LINE      CODE     ---       #1171
      01008F52H   LINE      CODE     ---       #1172
      01008F53H   LINE      CODE     ---       #1173
      01008F61H   LINE      CODE     ---       #1174
      01008F6CH   LINE      CODE     ---       #1175
      01008F6CH   LINE      CODE     ---       #1176
      01008F98H   LINE      CODE     ---       #1177
      01008F98H   LINE      CODE     ---       #1178
      01008F98H   LINE      CODE     ---       #1179
      01008F9FH   LINE      CODE     ---       #1180
      01008FA1H   LINE      CODE     ---       #1181
      01008FA1H   LINE      CODE     ---       #1182
      01008FA8H   LINE      CODE     ---       #1183
      01008FAAH   LINE      CODE     ---       #1184
      01008FAAH   LINE      CODE     ---       #1185
      01008FB1H   LINE      CODE     ---       #1186
      01008FB3H   LINE      CODE     ---       #1187
      01008FB3H   LINE      CODE     ---       #1188
      01008FB3H   LINE      CODE     ---       #1189
      01008FB5H   LINE      CODE     ---       #1190
      01008FB5H   LINE      CODE     ---       #1191
      01008FBEH   LINE      CODE     ---       #1192
      01008FC0H   LINE      CODE     ---       #1193
      01008FC0H   LINE      CODE     ---       #1194
      01008FC9H   LINE      CODE     ---       #1195
      01008FCBH   LINE      CODE     ---       #1196
      01008FCBH   LINE      CODE     ---       #1197
      01008FD7H   LINE      CODE     ---       #1198
      01008FD9H   LINE      CODE     ---       #1199
      01008FD9H   LINE      CODE     ---       #1200
      01008FE5H   LINE      CODE     ---       #1201
      01008FE7H   LINE      CODE     ---       #1202
      01008FE7H   LINE      CODE     ---       #1203
      01008FF3H   LINE      CODE     ---       #1204
      01008FF5H   LINE      CODE     ---       #1205
      01008FF8H   LINE      CODE     ---       #1207
      01008FF8H   LINE      CODE     ---       #1208
      01008FF8H   LINE      CODE     ---       #1209
      01008FF8H   LINE      CODE     ---       #1210
      01008FF8H   LINE      CODE     ---       #1212
      01009005H   LINE      CODE     ---       #1213
      01009005H   LINE      CODE     ---       #1214
      ---         BLOCKEND  ---      ---       LVL=0
      00000007H   SYMBOL    DATA     BYTE      i

      0100D2E8H   BLOCK     CODE     ---       LVL=0
LX51 LINKER/LOCATER V4.66.97.0                                                        09/27/2023  17:05:17  PAGE 106


      0200C85BH   SYMBOL    XDATA    ---       p
      0100D2E8H   LINE      CODE     ---       #1226
      0100D2EEH   LINE      CODE     ---       #1227
      0100D2EEH   LINE      CODE     ---       #1228
      ---         BLOCKEND  ---      ---       LVL=0

      010063D1H   BLOCK     CODE     ---       LVL=0
      0200C856H   SYMBOL    XDATA    ---       p
      010063D7H   BLOCK     CODE     NEAR LAB  LVL=1
      0200C859H   SYMBOL    XDATA    WORD      key_nb
      0200C85BH   SYMBOL    XDATA    BYTE      i
      0200C85CH   SYMBOL    XDATA    ---       single_key_tab
      0200C898H   SYMBOL    XDATA    ---       double_key_tab
      ---         BLOCKEND  ---      ---       LVL=1
      010063D1H   LINE      CODE     ---       #1231
      010063D7H   LINE      CODE     ---       #1232
      010063D7H   LINE      CODE     ---       #1234
      010063DEH   LINE      CODE     ---       #1235
      010063E0H   LINE      CODE     ---       #1236
      010063F2H   LINE      CODE     ---       #1244
      010063FFH   LINE      CODE     ---       #1245
      01006405H   LINE      CODE     ---       #1246
      01006419H   LINE      CODE     ---       #1248
      01006419H   LINE      CODE     ---       #1249
      01006422H   LINE      CODE     ---       #1250
      0100642DH   LINE      CODE     ---       #1252
      0100643CH   LINE      CODE     ---       #1253
      0100643CH   LINE      CODE     ---       #1254
      0100645BH   LINE      CODE     ---       #1255
      0100646AH   LINE      CODE     ---       #1257
      01006472H   LINE      CODE     ---       #1258
      01006472H   LINE      CODE     ---       #1259
      0100647CH   LINE      CODE     ---       #1260
      0100647CH   LINE      CODE     ---       #1262
      01006491H   LINE      CODE     ---       #1263
      0100649EH   LINE      CODE     ---       #1264
      010064CAH   LINE      CODE     ---       #1265
      010064D6H   LINE      CODE     ---       #1266
      010064D6H   LINE      CODE     ---       #1267
      010064DDH   LINE      CODE     ---       #1268
      010064EBH   LINE      CODE     ---       #1269
      010064F2H   LINE      CODE     ---       #1270
      01006500H   LINE      CODE     ---       #1271
      01006507H   LINE      CODE     ---       #1272
      01006515H   LINE      CODE     ---       #1273
      0100651CH   LINE      CODE     ---       #1274
      0100652AH   LINE      CODE     ---       #1275
      01006531H   LINE      CODE     ---       #1276
      0100653DH   LINE      CODE     ---       #1277
      0100653FH   LINE      CODE     ---       #1278
      0100654FH   LINE      CODE     ---       #1279
      0100654FH   LINE      CODE     ---       #1280
      01006569H   LINE      CODE     ---       #1281
      01006569H   LINE      CODE     ---       #1282
      01006576H   LINE      CODE     ---       #1283
      0100658AH   LINE      CODE     ---       #1284
      01006595H   LINE      CODE     ---       #1285
      0100659BH   LINE      CODE     ---       #1286
      0100659BH   LINE      CODE     ---       #1287
      ---         BLOCKEND  ---      ---       LVL=0

      01008AAEH   BLOCK     CODE     ---       LVL=0
      0200C856H   SYMBOL    XDATA    ---       p
      01008AB4H   BLOCK     CODE     NEAR LAB  LVL=1
      0200C859H   SYMBOL    XDATA    BYTE      i
LX51 LINKER/LOCATER V4.66.97.0                                                        09/27/2023  17:05:17  PAGE 107


      0200C85AH   SYMBOL    XDATA    WORD      key_nb
      ---         BLOCKEND  ---      ---       LVL=1
      01008AAEH   LINE      CODE     ---       #1289
      01008AB4H   LINE      CODE     ---       #1290
      01008AB4H   LINE      CODE     ---       #1291
      01008AB8H   LINE      CODE     ---       #1292
      01008AB8H   LINE      CODE     ---       #1293
      01008AC1H   LINE      CODE     ---       #1294
      01008AD7H   LINE      CODE     ---       #1295
      01008AD7H   LINE      CODE     ---       #1296
      01008AE4H   LINE      CODE     ---       #1297
      01008AE4H   LINE      CODE     ---       #1298
      01008AFAH   LINE      CODE     ---       #1299
      01008B09H   LINE      CODE     ---       #1300
      01008B11H   LINE      CODE     ---       #1301
      01008B1EH   LINE      CODE     ---       #1302
      01008B40H   LINE      CODE     ---       #1303
      01008B4DH   LINE      CODE     ---       #1304
      01008B63H   LINE      CODE     ---       #1305
      01008B6BH   LINE      CODE     ---       #1306
      01008B76H   LINE      CODE     ---       #1307
      01008B76H   LINE      CODE     ---       #1308
      ---         BLOCKEND  ---      ---       LVL=0

      01009006H   BLOCK     CODE     ---       LVL=0
      01009006H   BLOCK     CODE     NEAR LAB  LVL=1
      0200C853H   SYMBOL    XDATA    WORD      key_nb
      ---         BLOCKEND  ---      ---       LVL=1
      01009006H   LINE      CODE     ---       #1310
      01009006H   LINE      CODE     ---       #1311
      01009006H   LINE      CODE     ---       #1312
      01009009H   LINE      CODE     ---       #1313
      0100900EH   LINE      CODE     ---       #1314
      01009019H   LINE      CODE     ---       #1315
      01009019H   LINE      CODE     ---       #1316
      01009026H   LINE      CODE     ---       #1317
      01009033H   LINE      CODE     ---       #1318
      01009040H   LINE      CODE     ---       #1319
      01009046H   LINE      CODE     ---       #1320
      01009050H   LINE      CODE     ---       #1321
      01009055H   LINE      CODE     ---       #1322
      01009055H   LINE      CODE     ---       #1323
      01009059H   LINE      CODE     ---       #1324
      01009064H   LINE      CODE     ---       #1325
      01009064H   LINE      CODE     ---       #1326
      01009071H   LINE      CODE     ---       #1327
      0100907EH   LINE      CODE     ---       #1328
      0100908BH   LINE      CODE     ---       #1329
      01009091H   LINE      CODE     ---       #1330
      0100909BH   LINE      CODE     ---       #1331
      0100909FH   LINE      CODE     ---       #1332
      0100909FH   LINE      CODE     ---       #1333
      ---         BLOCKEND  ---      ---       LVL=0

      0100CAB0H   BLOCK     CODE     ---       LVL=0
      0200C856H   SYMBOL    XDATA    ---       p
      0100CAB6H   BLOCK     CODE     NEAR LAB  LVL=1
      0200C859H   SYMBOL    XDATA    WORD      key_nb
      ---         BLOCKEND  ---      ---       LVL=1
      0100CAB0H   LINE      CODE     ---       #1335
      0100CAB6H   LINE      CODE     ---       #1336
      0100CAB6H   LINE      CODE     ---       #1337
      0100CAB9H   LINE      CODE     ---       #1338
      0100CAC2H   LINE      CODE     ---       #1339
      0100CACEH   LINE      CODE     ---       #1340
LX51 LINKER/LOCATER V4.66.97.0                                                        09/27/2023  17:05:17  PAGE 108


      0100CACEH   LINE      CODE     ---       #1341
      0100CADAH   LINE      CODE     ---       #1343
      0100CAE2H   LINE      CODE     ---       #1344
      0100CAE2H   LINE      CODE     ---       #1345
      ---         BLOCKEND  ---      ---       LVL=0

      0100D1B4H   BLOCK     CODE     ---       LVL=0
      0200C853H   SYMBOL    XDATA    ---       p
      0100D1B4H   LINE      CODE     ---       #1347
      0100D1BAH   LINE      CODE     ---       #1348
      0100D1BAH   LINE      CODE     ---       #1349
      0100D1C0H   LINE      CODE     ---       #1350
      0100D1C6H   LINE      CODE     ---       #1351
      ---         BLOCKEND  ---      ---       LVL=0

      0100D032H   BLOCK     CODE     ---       LVL=0
      0200C85BH   SYMBOL    XDATA    ---       p
      0100D032H   LINE      CODE     ---       #1354
      0100D038H   LINE      CODE     ---       #1355
      0100D038H   LINE      CODE     ---       #1356
      0100D03FH   LINE      CODE     ---       #1357
      ---         BLOCKEND  ---      ---       LVL=0

      01005F8EH   BLOCK     CODE     ---       LVL=0
      0200C856H   SYMBOL    XDATA    ---       p
      01005F94H   BLOCK     CODE     NEAR LAB  LVL=1
      0200C859H   SYMBOL    XDATA    BYTE      i
      0200A76FH   SYMBOL    XDATA    BYTE      dim_send_flag
      0200A770H   SYMBOL    XDATA    BYTE      key_down_flag
      0200A771H   SYMBOL    XDATA    BYTE      key_up_flag
      0200C85AH   SYMBOL    XDATA    WORD      key_nb
      0200C85CH   SYMBOL    XDATA    WORD      y_coordinate
      0200C85EH   SYMBOL    XDATA    WORD      x_coordinate
      0200C860H   SYMBOL    XDATA    ---       dim_gear
      0200C868H   SYMBOL    XDATA    ---       touch_sta
      ---         BLOCKEND  ---      ---       LVL=1
      01005F8EH   LINE      CODE     ---       #1360
      01005F94H   LINE      CODE     ---       #1361
      01005F94H   LINE      CODE     ---       #1362
      01005F98H   LINE      CODE     ---       #1364
      01005F98H   LINE      CODE     ---       #1365
      01005F98H   LINE      CODE     ---       #1366
      01005F9BH   LINE      CODE     ---       #1367
      01005FA6H   LINE      CODE     ---       #1368
      01005FB3H   LINE      CODE     ---       #1369
      01005FC9H   LINE      CODE     ---       #1370
      01005FC9H   LINE      CODE     ---       #1371
      01005FDFH   LINE      CODE     ---       #1372
      01005FDFH   LINE      CODE     ---       #1373
      01005FE8H   LINE      CODE     ---       #1374
      01005FF9H   LINE      CODE     ---       #1375
      01006006H   LINE      CODE     ---       #1376
      01006006H   LINE      CODE     ---       #1378
      0100600EH   LINE      CODE     ---       #1379
      01006010H   LINE      CODE     ---       #1381
      01006010H   LINE      CODE     ---       #1382
      01006023H   LINE      CODE     ---       #1383
      01006023H   LINE      CODE     ---       #1384
      01006023H   LINE      CODE     ---       #1386
      0100602BH   LINE      CODE     ---       #1387
      01006040H   LINE      CODE     ---       #1388
      01006040H   LINE      CODE     ---       #1391
      0100604CH   LINE      CODE     ---       #1392
      01006055H   LINE      CODE     ---       #1393
      01006055H   LINE      CODE     ---       #1394
LX51 LINKER/LOCATER V4.66.97.0                                                        09/27/2023  17:05:17  PAGE 109


      0100605FH   LINE      CODE     ---       #1396
      0100606EH   LINE      CODE     ---       #1397
      0100607BH   LINE      CODE     ---       #1398
      01006089H   LINE      CODE     ---       #1399
      01006089H   LINE      CODE     ---       #1400
      0100608BH   LINE      CODE     ---       #1401
      0100608EH   LINE      CODE     ---       #1402
      01006094H   LINE      CODE     ---       #1403
      01006096H   LINE      CODE     ---       #1404
      010060A6H   LINE      CODE     ---       #1405
      010060A6H   LINE      CODE     ---       #1406
      010060A9H   LINE      CODE     ---       #1407
      010060ACH   LINE      CODE     ---       #1408
      010060B2H   LINE      CODE     ---       #1409
      010060B4H   LINE      CODE     ---       #1410
      010060C6H   LINE      CODE     ---       #1411
      010060C6H   LINE      CODE     ---       #1412
      010060C8H   LINE      CODE     ---       #1413
      010060D1H   LINE      CODE     ---       #1414
      010060D1H   LINE      CODE     ---       #1415
      010060D5H   LINE      CODE     ---       #1416
      010060D5H   LINE      CODE     ---       #1417
      010060D5H   LINE      CODE     ---       #1418
      010060D5H   LINE      CODE     ---       #1419
      010060D5H   LINE      CODE     ---       #1420
      010060D8H   LINE      CODE     ---       #1421
      010060E6H   LINE      CODE     ---       #1422
      0100610DH   LINE      CODE     ---       #1423
      0100610DH   LINE      CODE     ---       #1425
      0100611AH   LINE      CODE     ---       #1426
      0100612DH   LINE      CODE     ---       #1427
      0100612DH   LINE      CODE     ---       #1428
      01006136H   LINE      CODE     ---       #1434
      01006138H   LINE      CODE     ---       #1436
      01006138H   LINE      CODE     ---       #1437
      01006145H   LINE      CODE     ---       #1438
      01006145H   LINE      CODE     ---       #1439
      01006152H   LINE      CODE     ---       #1440
      01006164H   LINE      CODE     ---       #1441
      01006176H   LINE      CODE     ---       #1442
      01006188H   LINE      CODE     ---       #1443
      0100619AH   LINE      CODE     ---       #1444
      0100619AH   LINE      CODE     ---       #1445
      0100619AH   LINE      CODE     ---       #1446
      0100619AH   LINE      CODE     ---       #1447
      0100619DH   LINE      CODE     ---       #1448
      010061C3H   LINE      CODE     ---       #1450
      010061C3H   LINE      CODE     ---       #1451
      010061CCH   LINE      CODE     ---       #1452
      010061D1H   LINE      CODE     ---       #1453
      010061D1H   LINE      CODE     ---       #1454
      010061D4H   LINE      CODE     ---       #1455
      010061D4H   LINE      CODE     ---       #1459
      010061DCH   LINE      CODE     ---       #1460
      010061DCH   LINE      CODE     ---       #1462
      010061DDH   LINE      CODE     ---       #1463
      010061E9H   LINE      CODE     ---       #1465
      010061F2H   LINE      CODE     ---       #1466
      010061F2H   LINE      CODE     ---       #1467
      010061F2H   LINE      CODE     ---       #1469
      010061F2H   LINE      CODE     ---       #1470
      010061F7H   LINE      CODE     ---       #1471
      010061F9H   LINE      CODE     ---       #1472
      010061F9H   LINE      CODE     ---       #1473
      ---         BLOCKEND  ---      ---       LVL=0
LX51 LINKER/LOCATER V4.66.97.0                                                        09/27/2023  17:05:17  PAGE 110



      010077EDH   BLOCK     CODE     ---       LVL=0
      0200C856H   SYMBOL    XDATA    ---       p
      010077F3H   BLOCK     CODE     NEAR LAB  LVL=1
      0200C859H   SYMBOL    XDATA    WORD      key_nb
      ---         BLOCKEND  ---      ---       LVL=1
      010077EDH   LINE      CODE     ---       #1475
      010077F3H   LINE      CODE     ---       #1476
      010077F3H   LINE      CODE     ---       #1478
      010077F6H   LINE      CODE     ---       #1480
      010077FFH   LINE      CODE     ---       #1481
      01007815H   LINE      CODE     ---       #1482
      01007815H   LINE      CODE     ---       #1484
      0100781DH   LINE      CODE     ---       #1485
      01007844H   LINE      CODE     ---       #1486
      0100786CH   LINE      CODE     ---       #1487
      01007894H   LINE      CODE     ---       #1488
      010078C1H   LINE      CODE     ---       #1489
      010078CEH   LINE      CODE     ---       #1490
      010078DAH   LINE      CODE     ---       #1491
      010078E2H   LINE      CODE     ---       #1492
      01007904H   LINE      CODE     ---       #1493
      01007904H   LINE      CODE     ---       #1494
      01007904H   LINE      CODE     ---       #1495
      01007904H   LINE      CODE     ---       #1496
      01007907H   LINE      CODE     ---       #1497
      01007907H   LINE      CODE     ---       #1498
      ---         BLOCKEND  ---      ---       LVL=0

      01007C83H   BLOCK     CODE     ---       LVL=0
      01007C83H   BLOCK     CODE     NEAR LAB  LVL=1
      0200C853H   SYMBOL    XDATA    WORD      key_nb
      ---         BLOCKEND  ---      ---       LVL=1
      01007C83H   LINE      CODE     ---       #1500
      01007C83H   LINE      CODE     ---       #1501
      01007C83H   LINE      CODE     ---       #1503
      01007C86H   LINE      CODE     ---       #1505
      01007C8AH   LINE      CODE     ---       #1506
      01007C95H   LINE      CODE     ---       #1507
      01007C95H   LINE      CODE     ---       #1509
      01007CA2H   LINE      CODE     ---       #1510
      01007CB2H   LINE      CODE     ---       #1511
      01007CC2H   LINE      CODE     ---       #1512
      01007CD2H   LINE      CODE     ---       #1513
      01007CE2H   LINE      CODE     ---       #1514
      01007CEFH   LINE      CODE     ---       #1515
      01007CF5H   LINE      CODE     ---       #1516
      01007CFFH   LINE      CODE     ---       #1517
      01007CFFH   LINE      CODE     ---       #1518
      01007CFFH   LINE      CODE     ---       #1519
      01007CFFH   LINE      CODE     ---       #1520
      01007D02H   LINE      CODE     ---       #1521
      01007D02H   LINE      CODE     ---       #1522
      01007D06H   LINE      CODE     ---       #1523
      01007D11H   LINE      CODE     ---       #1524
      01007D11H   LINE      CODE     ---       #1526
      01007D1EH   LINE      CODE     ---       #1527
      01007D2BH   LINE      CODE     ---       #1528
      01007D38H   LINE      CODE     ---       #1529
      01007D45H   LINE      CODE     ---       #1530
      01007D52H   LINE      CODE     ---       #1531
      01007D5FH   LINE      CODE     ---       #1532
      01007D65H   LINE      CODE     ---       #1533
      01007D6FH   LINE      CODE     ---       #1534
      01007D6FH   LINE      CODE     ---       #1535
LX51 LINKER/LOCATER V4.66.97.0                                                        09/27/2023  17:05:17  PAGE 111


      01007D6FH   LINE      CODE     ---       #1536
      01007D6FH   LINE      CODE     ---       #1537
      01007D72H   LINE      CODE     ---       #1538
      01007D72H   LINE      CODE     ---       #1539
      ---         BLOCKEND  ---      ---       LVL=0

      0100C528H   BLOCK     CODE     ---       LVL=0
      0200C856H   SYMBOL    XDATA    ---       p
      0100C52EH   BLOCK     CODE     NEAR LAB  LVL=1
      0200C859H   SYMBOL    XDATA    WORD      key_nb
      ---         BLOCKEND  ---      ---       LVL=1
      0100C528H   LINE      CODE     ---       #1541
      0100C52EH   LINE      CODE     ---       #1542
      0100C52EH   LINE      CODE     ---       #1543
      0100C531H   LINE      CODE     ---       #1544
      0100C53FH   LINE      CODE     ---       #1545
      0100C54BH   LINE      CODE     ---       #1546
      0100C54BH   LINE      CODE     ---       #1547
      0100C55DH   LINE      CODE     ---       #1549
      0100C56AH   LINE      CODE     ---       #1550
      0100C56AH   LINE      CODE     ---       #1551
      ---         BLOCKEND  ---      ---       LVL=0

      0100D1CCH   BLOCK     CODE     ---       LVL=0
      0200C853H   SYMBOL    XDATA    ---       p
      0100D1CCH   LINE      CODE     ---       #1553
      0100D1D2H   LINE      CODE     ---       #1554
      0100D1D2H   LINE      CODE     ---       #1555
      0100D1D8H   LINE      CODE     ---       #1556
      0100D1DEH   LINE      CODE     ---       #1557
      ---         BLOCKEND  ---      ---       LVL=0

      0100BE03H   BLOCK     CODE     ---       LVL=0
      0200C858H   SYMBOL    XDATA    ---       p
      0100BE03H   LINE      CODE     ---       #1560
      0100BE09H   LINE      CODE     ---       #1561
      0100BE09H   LINE      CODE     ---       #1562
      0100BE11H   LINE      CODE     ---       #1563
      0100BE11H   LINE      CODE     ---       #1565
      0100BE11H   LINE      CODE     ---       #1566
      0100BE27H   LINE      CODE     ---       #1567
      0100BE27H   LINE      CODE     ---       #1568
      0100BE27H   LINE      CODE     ---       #1569
      0100BE27H   LINE      CODE     ---       #1570
      0100BE27H   LINE      CODE     ---       #1571
      0100BE27H   LINE      CODE     ---       #1573
      0100BE2AH   LINE      CODE     ---       #1574
      0100BE2EH   LINE      CODE     ---       #1575
      0100BE34H   LINE      CODE     ---       #1576
      0100BE34H   LINE      CODE     ---       #1577
      0100BE34H   LINE      CODE     ---       #1578
      0100BE34H   LINE      CODE     ---       #1579
      0100BE37H   LINE      CODE     ---       #1580
      0100BE40H   LINE      CODE     ---       #1581
      0100BE44H   LINE      CODE     ---       #1582
      0100BE4AH   LINE      CODE     ---       #1583
      0100BE4AH   LINE      CODE     ---       #1584
      0100BE4AH   LINE      CODE     ---       #1586
      0100BE4AH   LINE      CODE     ---       #1587
      0100BE4AH   LINE      CODE     ---       #1588
      ---         BLOCKEND  ---      ---       LVL=0

      0100D19BH   BLOCK     CODE     ---       LVL=0
      0200C855H   SYMBOL    XDATA    ---       p
      00000005H   SYMBOL    DATA     BYTE      key
LX51 LINKER/LOCATER V4.66.97.0                                                        09/27/2023  17:05:17  PAGE 112


      0100D19BH   LINE      CODE     ---       #1591
      0100D1A1H   LINE      CODE     ---       #1592
      0100D1A1H   LINE      CODE     ---       #1593
      0100D1ABH   LINE      CODE     ---       #1594
      ---         BLOCKEND  ---      ---       LVL=0

      0100CC2EH   BLOCK     CODE     ---       LVL=0
      0100CC2EH   BLOCK     CODE     NEAR LAB  LVL=1
      0200C853H   SYMBOL    XDATA    WORD      key_nb
      ---         BLOCKEND  ---      ---       LVL=1
      0100CC2EH   LINE      CODE     ---       #1596
      0100CC2EH   LINE      CODE     ---       #1597
      0100CC2EH   LINE      CODE     ---       #1598
      0100CC31H   LINE      CODE     ---       #1599
      0100CC3AH   LINE      CODE     ---       #1600
      0100CC42H   LINE      CODE     ---       #1601
      0100CC42H   LINE      CODE     ---       #1603
      0100CC4AH   LINE      CODE     ---       #1604
      0100CC52H   LINE      CODE     ---       #1605
      0100CC59H   LINE      CODE     ---       #1606
      0100CC59H   LINE      CODE     ---       #1607
      ---         BLOCKEND  ---      ---       LVL=0

      0100ABACH   BLOCK     CODE     ---       LVL=0
      0100ABACH   BLOCK     CODE     NEAR LAB  LVL=1
      0200C853H   SYMBOL    XDATA    ---       ret_tab
      0200C857H   SYMBOL    XDATA    WORD      key_nb
      0200C859H   SYMBOL    XDATA    BYTE      i
      ---         BLOCKEND  ---      ---       LVL=1
      0100ABACH   LINE      CODE     ---       #1609
      0100ABACH   LINE      CODE     ---       #1610
      0100ABACH   LINE      CODE     ---       #1612
      0100ABB7H   LINE      CODE     ---       #1613
      0100ABBBH   LINE      CODE     ---       #1614
      0100ABBBH   LINE      CODE     ---       #1615
      0100ABC9H   LINE      CODE     ---       #1616
      0100ABD5H   LINE      CODE     ---       #1617
      0100ABD5H   LINE      CODE     ---       #1621
      0100ABE7H   LINE      CODE     ---       #1622
      0100ABE7H   LINE      CODE     ---       #1623
      0100ABEDH   LINE      CODE     ---       #1624
      0100ABF5H   LINE      CODE     ---       #1626
      0100AC02H   LINE      CODE     ---       #1627
      0100AC09H   LINE      CODE     ---       #1628
      0100AC1EH   LINE      CODE     ---       #1629
      0100AC1EH   LINE      CODE     ---       #1630
      ---         BLOCKEND  ---      ---       LVL=0

      01006C32H   BLOCK     CODE     ---       LVL=0
      0200C85BH   SYMBOL    XDATA    ---       p
      01006C32H   LINE      CODE     ---       #1637
      01006C38H   LINE      CODE     ---       #1638
      01006C38H   LINE      CODE     ---       #1640
      01006C41H   LINE      CODE     ---       #1642
      01006C51H   LINE      CODE     ---       #1643
      01006C5DH   LINE      CODE     ---       #1644
      01006C71H   LINE      CODE     ---       #1645
      01006C81H   LINE      CODE     ---       #1646
      01006C8FH   LINE      CODE     ---       #1650
      01006C9DH   LINE      CODE     ---       #1651
      01006CBFH   LINE      CODE     ---       #1652
      01006CBFH   LINE      CODE     ---       #1653
      01006CBFH   LINE      CODE     ---       #1654
      01006CCCH   LINE      CODE     ---       #1655
      01006CD0H   LINE      CODE     ---       #1656
LX51 LINKER/LOCATER V4.66.97.0                                                        09/27/2023  17:05:17  PAGE 113


      01006CD9H   LINE      CODE     ---       #1657
      01006CDDH   LINE      CODE     ---       #1658
      01006CE4H   LINE      CODE     ---       #1659
      01006CE8H   LINE      CODE     ---       #1660
      01006CF2H   LINE      CODE     ---       #1661
      01006CF5H   LINE      CODE     ---       #1662
      01006CF8H   LINE      CODE     ---       #1663
      01006CF8H   LINE      CODE     ---       #1664
      01006D05H   LINE      CODE     ---       #1665
      01006D0CH   LINE      CODE     ---       #1666
      01006D18H   LINE      CODE     ---       #1667
      01006D1CH   LINE      CODE     ---       #1669
      01006D1FH   LINE      CODE     ---       #1670
      01006D1FH   LINE      CODE     ---       #1671
      01006D2CH   LINE      CODE     ---       #1672
      01006D32H   LINE      CODE     ---       #1673
      01006D3BH   LINE      CODE     ---       #1674
      01006D3FH   LINE      CODE     ---       #1676
      01006D41H   LINE      CODE     ---       #1677
      01006D41H   LINE      CODE     ---       #1678
      01006D4EH   LINE      CODE     ---       #1679
      01006D55H   LINE      CODE     ---       #1680
      01006D55H   LINE      CODE     ---       #1681
      01006D59H   LINE      CODE     ---       #1683
      01006D5BH   LINE      CODE     ---       #1684
      01006D5BH   LINE      CODE     ---       #1685
      01006D68H   LINE      CODE     ---       #1686
      01006D6EH   LINE      CODE     ---       #1687
      01006D77H   LINE      CODE     ---       #1688
      01006D7BH   LINE      CODE     ---       #1690
      01006D7DH   LINE      CODE     ---       #1691
      01006D7DH   LINE      CODE     ---       #1692
      01006D8AH   LINE      CODE     ---       #1693
      01006D8EH   LINE      CODE     ---       #1695
      01006D90H   LINE      CODE     ---       #1696
      01006D90H   LINE      CODE     ---       #1697
      01006D9DH   LINE      CODE     ---       #1698
      01006DA4H   LINE      CODE     ---       #1699
      01006DA4H   LINE      CODE     ---       #1700
      01006DA4H   LINE      CODE     ---       #1701
      01006DA4H   LINE      CODE     ---       #1702
      01006DA4H   LINE      CODE     ---       #1704
      ---         BLOCKEND  ---      ---       LVL=0

      0100A15EH   BLOCK     CODE     ---       LVL=0
      0200C855H   SYMBOL    XDATA    ---       p
      0100A164H   BLOCK     CODE     NEAR LAB  LVL=1
      0200C858H   SYMBOL    XDATA    WORD      key_nb
      0200C85AH   SYMBOL    XDATA    BYTE      select_index
      ---         BLOCKEND  ---      ---       LVL=1
      0100A15EH   LINE      CODE     ---       #1707
      0100A164H   LINE      CODE     ---       #1709
      0100A164H   LINE      CODE     ---       #1710
      0100A168H   LINE      CODE     ---       #1711
      0100A168H   LINE      CODE     ---       #1712
      0100A176H   LINE      CODE     ---       #1713
      0100A182H   LINE      CODE     ---       #1714
      0100A182H   LINE      CODE     ---       #1715
      0100A18FH   LINE      CODE     ---       #1717
      0100A19DH   LINE      CODE     ---       #1719
      0100A1B6H   LINE      CODE     ---       #1720
      0100A1B6H   LINE      CODE     ---       #1721
      0100A1C0H   LINE      CODE     ---       #1722
      0100A1D0H   LINE      CODE     ---       #1724
      0100A1D9H   LINE      CODE     ---       #1725
LX51 LINKER/LOCATER V4.66.97.0                                                        09/27/2023  17:05:17  PAGE 114


      0100A1E2H   LINE      CODE     ---       #1726
      0100A1EDH   LINE      CODE     ---       #1728
      0100A1EDH   LINE      CODE     ---       #1729
      0100A1EDH   LINE      CODE     ---       #1730
      ---         BLOCKEND  ---      ---       LVL=0

      010082BDH   BLOCK     CODE     ---       LVL=0
      010082BDH   BLOCK     CODE     NEAR LAB  LVL=1
      0200C855H   SYMBOL    XDATA    WORD      key_nb
      0200C857H   SYMBOL    XDATA    BYTE      select_index
      ---         BLOCKEND  ---      ---       LVL=1
      010082BDH   LINE      CODE     ---       #1733
      010082BDH   LINE      CODE     ---       #1735
      010082BDH   LINE      CODE     ---       #1736
      010082C1H   LINE      CODE     ---       #1737
      010082C1H   LINE      CODE     ---       #1739
      010082CFH   LINE      CODE     ---       #1740
      010082DEH   LINE      CODE     ---       #1741
      010082DEH   LINE      CODE     ---       #1743
      010082EBH   LINE      CODE     ---       #1745
      010082F0H   LINE      CODE     ---       #1746
      010082F0H   LINE      CODE     ---       #1749
      0100830BH   LINE      CODE     ---       #1750
      01008336H   LINE      CODE     ---       #1752
      0100835EH   LINE      CODE     ---       #1753
      01008383H   LINE      CODE     ---       #1754
      0100838FH   LINE      CODE     ---       #1755
      01008399H   LINE      CODE     ---       #1757
      01008399H   LINE      CODE     ---       #1758
      010083A2H   LINE      CODE     ---       #1759
      010083AFH   LINE      CODE     ---       #1760
      010083AFH   LINE      CODE     ---       #1761
      ---         BLOCKEND  ---      ---       LVL=0

      01008C3EH   BLOCK     CODE     ---       LVL=0
      01008C3EH   BLOCK     CODE     NEAR LAB  LVL=1
      0200C855H   SYMBOL    XDATA    WORD      key_nb
      0200C857H   SYMBOL    XDATA    BYTE      i
      ---         BLOCKEND  ---      ---       LVL=1
      01008C3EH   LINE      CODE     ---       #1763
      01008C3EH   LINE      CODE     ---       #1765
      01008C3EH   LINE      CODE     ---       #1766
      01008C42H   LINE      CODE     ---       #1767
      01008C42H   LINE      CODE     ---       #1769
      01008C50H   LINE      CODE     ---       #1770
      01008C5FH   LINE      CODE     ---       #1771
      01008C5FH   LINE      CODE     ---       #1772
      01008C68H   LINE      CODE     ---       #1779
      01008C7BH   LINE      CODE     ---       #1780
      01008C7BH   LINE      CODE     ---       #1781
      01008C81H   LINE      CODE     ---       #1782
      01008C89H   LINE      CODE     ---       #1783
      01008C9BH   LINE      CODE     ---       #1784
      01008CB1H   LINE      CODE     ---       #1785
      01008CC7H   LINE      CODE     ---       #1786
      01008CDAH   LINE      CODE     ---       #1787
      01008CDAH   LINE      CODE     ---       #1788
      01008CEDH   LINE      CODE     ---       #1789
      01008CF5H   LINE      CODE     ---       #1791
      01008D02H   LINE      CODE     ---       #1792
      01008D02H   LINE      CODE     ---       #1793
      ---         BLOCKEND  ---      ---       LVL=0

      0100AB36H   BLOCK     CODE     ---       LVL=0
      0100AB36H   BLOCK     CODE     NEAR LAB  LVL=1
LX51 LINKER/LOCATER V4.66.97.0                                                        09/27/2023  17:05:17  PAGE 115


      0200C853H   SYMBOL    XDATA    ---       mask
      0200C857H   SYMBOL    XDATA    BYTE      pwd_enable
      ---         BLOCKEND  ---      ---       LVL=1
      0100AB36H   LINE      CODE     ---       #1795
      0100AB36H   LINE      CODE     ---       #1796
      0100AB36H   LINE      CODE     ---       #1797
      0100AB41H   LINE      CODE     ---       #1798
      0100AB46H   LINE      CODE     ---       #1799
      0100AB56H   LINE      CODE     ---       #1801
      0100AB62H   LINE      CODE     ---       #1802
      0100AB69H   LINE      CODE     ---       #1803
      0100AB69H   LINE      CODE     ---       #1804
      0100AB69H   LINE      CODE     ---       #1805
      0100AB6BH   LINE      CODE     ---       #1807
      0100AB6BH   LINE      CODE     ---       #1808
      0100AB83H   LINE      CODE     ---       #1809
      0100AB9CH   LINE      CODE     ---       #1810
      0100ABABH   LINE      CODE     ---       #1811
      0100ABABH   LINE      CODE     ---       #1815
      ---         BLOCKEND  ---      ---       LVL=0

      01009FA0H   BLOCK     CODE     ---       LVL=0
      0200C855H   SYMBOL    XDATA    ---       pwd_init
      01009FA6H   BLOCK     CODE     NEAR LAB  LVL=1
      0200C858H   SYMBOL    XDATA    WORD      key_nb
      0200C85AH   SYMBOL    XDATA    ---       mask
      ---         BLOCKEND  ---      ---       LVL=1
      01009FA0H   LINE      CODE     ---       #1817
      01009FA6H   LINE      CODE     ---       #1818
      01009FA6H   LINE      CODE     ---       #1819
      01009FADH   LINE      CODE     ---       #1820
      01009FB8H   LINE      CODE     ---       #1821
      01009FBEH   LINE      CODE     ---       #1822
      01009FCAH   LINE      CODE     ---       #1823
      01009FCAH   LINE      CODE     ---       #1824
      01009FD0H   LINE      CODE     ---       #1825
      01009FDEH   LINE      CODE     ---       #1826
      01009FDEH   LINE      CODE     ---       #1827
      01009FE7H   LINE      CODE     ---       #1828
      0100A000H   LINE      CODE     ---       #1829
      0100A010H   LINE      CODE     ---       #1830
      0100A019H   LINE      CODE     ---       #1831
      0100A026H   LINE      CODE     ---       #1832
      0100A026H   LINE      CODE     ---       #1833
      0100A026H   LINE      CODE     ---       #1834
      ---         BLOCKEND  ---      ---       LVL=0

      0100BA8DH   BLOCK     CODE     ---       LVL=0
      0100BA8DH   BLOCK     CODE     NEAR LAB  LVL=1
      0200C853H   SYMBOL    XDATA    WORD      key_nb
      0200C855H   SYMBOL    XDATA    BYTE      pwd_enable
      ---         BLOCKEND  ---      ---       LVL=1
      0100BA8DH   LINE      CODE     ---       #1836
      0100BA8DH   LINE      CODE     ---       #1837
      0100BA8DH   LINE      CODE     ---       #1839
      0100BA90H   LINE      CODE     ---       #1840
      0100BA90H   LINE      CODE     ---       #1841
      0100BA9EH   LINE      CODE     ---       #1842
      0100BAAAH   LINE      CODE     ---       #1843
      0100BAAAH   LINE      CODE     ---       #1845
      0100BAB4H   LINE      CODE     ---       #1846
      0100BAC3H   LINE      CODE     ---       #1847
      0100BAC3H   LINE      CODE     ---       #1848
      0100BADBH   LINE      CODE     ---       #1850
      0100BADBH   LINE      CODE     ---       #1852
LX51 LINKER/LOCATER V4.66.97.0                                                        09/27/2023  17:05:17  PAGE 116


      0100BAE8H   LINE      CODE     ---       #1853
      0100BAE8H   LINE      CODE     ---       #1854
      ---         BLOCKEND  ---      ---       LVL=0

      0100A9CBH   BLOCK     CODE     ---       LVL=0
      0100A9CBH   BLOCK     CODE     NEAR LAB  LVL=1
      0200C853H   SYMBOL    XDATA    ---       mask
      0200C857H   SYMBOL    XDATA    BYTE      beep_enable
      ---         BLOCKEND  ---      ---       LVL=1
      0100A9CBH   LINE      CODE     ---       #1856
      0100A9CBH   LINE      CODE     ---       #1857
      0100A9CBH   LINE      CODE     ---       #1858
      0100A9DAH   LINE      CODE     ---       #1859
      0100A9DFH   LINE      CODE     ---       #1860
      0100A9F2H   LINE      CODE     ---       #1862
      0100A9F9H   LINE      CODE     ---       #1863
      0100A9F9H   LINE      CODE     ---       #1865
      0100AA02H   LINE      CODE     ---       #1866
      0100AA04H   LINE      CODE     ---       #1868
      0100AA04H   LINE      CODE     ---       #1870
      0100AA1DH   LINE      CODE     ---       #1871
      0100AA1DH   LINE      CODE     ---       #1872
      0100AA27H   LINE      CODE     ---       #1873
      0100AA2DH   LINE      CODE     ---       #1874
      0100AA35H   LINE      CODE     ---       #1875
      ---         BLOCKEND  ---      ---       LVL=0

      0100A646H   BLOCK     CODE     ---       LVL=0
      0100A646H   BLOCK     CODE     NEAR LAB  LVL=1
      0200C855H   SYMBOL    XDATA    ---       mask
      0200C859H   SYMBOL    XDATA    WORD      key_nb
      0200C85BH   SYMBOL    XDATA    BYTE      beep_enable
      ---         BLOCKEND  ---      ---       LVL=1
      0100A646H   LINE      CODE     ---       #1878
      0100A646H   LINE      CODE     ---       #1879
      0100A646H   LINE      CODE     ---       #1880
      0100A655H   LINE      CODE     ---       #1881
      0100A658H   LINE      CODE     ---       #1882
      0100A658H   LINE      CODE     ---       #1883
      0100A666H   LINE      CODE     ---       #1884
      0100A672H   LINE      CODE     ---       #1885
      0100A672H   LINE      CODE     ---       #1886
      0100A67BH   LINE      CODE     ---       #1888
      0100A68AH   LINE      CODE     ---       #1889
      0100A68AH   LINE      CODE     ---       #1890
      0100A6A3H   LINE      CODE     ---       #1891
      0100A6B4H   LINE      CODE     ---       #1892
      0100A6BCH   LINE      CODE     ---       #1894
      0100A6BCH   LINE      CODE     ---       #1895
      0100A6C9H   LINE      CODE     ---       #1896
      0100A6C9H   LINE      CODE     ---       #1897
      ---         BLOCKEND  ---      ---       LVL=0

      0100D439H   BLOCK     CODE     ---       LVL=0
      00000006H   SYMBOL    DATA     WORD      adr
      0100D439H   LINE      CODE     ---       #1899
      0100D439H   LINE      CODE     ---       #1900
      0100D439H   LINE      CODE     ---       #1901
      ---         BLOCKEND  ---      ---       LVL=0

      0100CE13H   BLOCK     CODE     ---       LVL=0
      00000007H   SYMBOL    DATA     BYTE      password_enable
      00000004H   SYMBOL    DATA     WORD      pwd_input
      00000002H   SYMBOL    DATA     WORD      pwd_init
      0100CE13H   LINE      CODE     ---       #1904
LX51 LINKER/LOCATER V4.66.97.0                                                        09/27/2023  17:05:17  PAGE 117


      0100CE13H   LINE      CODE     ---       #1905
      0100CE13H   LINE      CODE     ---       #1906
      0100CE16H   LINE      CODE     ---       #1907
      0100CE16H   LINE      CODE     ---       #1908
      0100CE28H   LINE      CODE     ---       #1909
      0100CE28H   LINE      CODE     ---       #1910
      0100CE2FH   LINE      CODE     ---       #1911
      0100CE36H   LINE      CODE     ---       #1912
      0100CE36H   LINE      CODE     ---       #1914
      0100CE36H   LINE      CODE     ---       #1915
      0100CE36H   LINE      CODE     ---       #1916
      0100CE36H   LINE      CODE     ---       #1917
      ---         BLOCKEND  ---      ---       LVL=0

      0100B43EH   BLOCK     CODE     ---       LVL=0
      0200C855H   SYMBOL    XDATA    BYTE      password_enable
      0100B443H   BLOCK     CODE     NEAR LAB  LVL=1
      0200C856H   SYMBOL    XDATA    WORD      key_nb
      ---         BLOCKEND  ---      ---       LVL=1
      0100B43EH   LINE      CODE     ---       #1919
      0100B443H   LINE      CODE     ---       #1920
      0100B443H   LINE      CODE     ---       #1921
      0100B444H   LINE      CODE     ---       #1922
      0100B452H   LINE      CODE     ---       #1923
      0100B45EH   LINE      CODE     ---       #1924
      0100B45EH   LINE      CODE     ---       #1925
      0100B466H   LINE      CODE     ---       #1926
      0100B466H   LINE      CODE     ---       #1927
      0100B46BH   LINE      CODE     ---       #1928
      0100B46DH   LINE      CODE     ---       #1930
      0100B46DH   LINE      CODE     ---       #1931
      0100B474H   LINE      CODE     ---       #1932
      0100B47AH   LINE      CODE     ---       #1933
      0100B47AH   LINE      CODE     ---       #1934
      0100B487H   LINE      CODE     ---       #1935
      0100B487H   LINE      CODE     ---       #1936
      ---         BLOCKEND  ---      ---       LVL=0

      01009243H   BLOCK     CODE     ---       LVL=0
      01009243H   BLOCK     CODE     NEAR LAB  LVL=1
      0200C853H   SYMBOL    XDATA    ---       mask
      0200C857H   SYMBOL    XDATA    BYTE      backlight_enable
      0200C858H   SYMBOL    XDATA    BYTE      work_light
      0200C859H   SYMBOL    XDATA    WORD      sleep_time
      ---         BLOCKEND  ---      ---       LVL=1
      01009243H   LINE      CODE     ---       #1939
      01009243H   LINE      CODE     ---       #1940
      01009243H   LINE      CODE     ---       #1941
      01009252H   LINE      CODE     ---       #1942
      01009256H   LINE      CODE     ---       #1943
      01009256H   LINE      CODE     ---       #1944
      01009259H   LINE      CODE     ---       #1945
      0100926CH   LINE      CODE     ---       #1947
      01009273H   LINE      CODE     ---       #1948
      01009273H   LINE      CODE     ---       #1949
      01009273H   LINE      CODE     ---       #1951
      01009273H   LINE      CODE     ---       #1952
      0100927CH   LINE      CODE     ---       #1953
      01009295H   LINE      CODE     ---       #1954
      010092AEH   LINE      CODE     ---       #1955
      010092AEH   LINE      CODE     ---       #1957
      010092B8H   LINE      CODE     ---       #1959
      010092BEH   LINE      CODE     ---       #1960
      010092C8H   LINE      CODE     ---       #1962
      010092CEH   LINE      CODE     ---       #1963
LX51 LINKER/LOCATER V4.66.97.0                                                        09/27/2023  17:05:17  PAGE 118


      010092DFH   LINE      CODE     ---       #1965
      010092E5H   LINE      CODE     ---       #1966
      010092EDH   LINE      CODE     ---       #1967
      010092F4H   LINE      CODE     ---       #1968
      ---         BLOCKEND  ---      ---       LVL=0

      0100B977H   BLOCK     CODE     ---       LVL=0
      0100B977H   BLOCK     CODE     NEAR LAB  LVL=1
      0200C85BH   SYMBOL    XDATA    ---       mask
      ---         BLOCKEND  ---      ---       LVL=1
      0100B977H   LINE      CODE     ---       #1971
      0100B977H   LINE      CODE     ---       #1972
      0100B977H   LINE      CODE     ---       #1973
      0100B986H   LINE      CODE     ---       #1974
      0100B99FH   LINE      CODE     ---       #1975
      0100B9B8H   LINE      CODE     ---       #1976
      0100B9CBH   LINE      CODE     ---       #1977
      ---         BLOCKEND  ---      ---       LVL=0

      0100CB48H   BLOCK     CODE     ---       LVL=0
      0200C85CH   SYMBOL    XDATA    WORD      adr
      0100CB50H   BLOCK     CODE     NEAR LAB  LVL=1
      0200C85EH   SYMBOL    XDATA    BYTE      check_var
      ---         BLOCKEND  ---      ---       LVL=1
      0100CB48H   LINE      CODE     ---       #1984
      0100CB50H   LINE      CODE     ---       #1985
      0100CB50H   LINE      CODE     ---       #1986
      0100CB53H   LINE      CODE     ---       #1987
      0100CB5BH   LINE      CODE     ---       #1989
      0100CB5EH   LINE      CODE     ---       #1990
      0100CB65H   LINE      CODE     ---       #1991
      0100CB71H   LINE      CODE     ---       #1993
      0100CB76H   LINE      CODE     ---       #1994
      ---         BLOCKEND  ---      ---       LVL=0

      0100B49FH   BLOCK     CODE     ---       LVL=0
      0100B49FH   BLOCK     CODE     NEAR LAB  LVL=1
      0200C853H   SYMBOL    XDATA    BYTE      backlight_enable
      0200C854H   SYMBOL    XDATA    WORD      key_nb
      ---         BLOCKEND  ---      ---       LVL=1
      0100B49FH   LINE      CODE     ---       #1999
      0100B49FH   LINE      CODE     ---       #2000
      0100B49FH   LINE      CODE     ---       #2001
      0100B4A3H   LINE      CODE     ---       #2002
      0100B4A3H   LINE      CODE     ---       #2003
      0100B4B1H   LINE      CODE     ---       #2004
      0100B4BDH   LINE      CODE     ---       #2005
      0100B4BDH   LINE      CODE     ---       #2006
      0100B4C7H   LINE      CODE     ---       #2008
      0100B4D6H   LINE      CODE     ---       #2009
      0100B4D6H   LINE      CODE     ---       #2010
      0100B4DEH   LINE      CODE     ---       #2011
      0100B4EFH   LINE      CODE     ---       #2012
      0100B4F2H   LINE      CODE     ---       #2013
      0100B4F2H   LINE      CODE     ---       #2015
      0100B4FFH   LINE      CODE     ---       #2016
      0100B4FFH   LINE      CODE     ---       #2017
      ---         BLOCKEND  ---      ---       LVL=0

      0100B1F0H   BLOCK     CODE     ---       LVL=0
      0100B1F0H   BLOCK     CODE     NEAR LAB  LVL=1
      0200C855H   SYMBOL    XDATA    WORD      key_nb
      0200C857H   SYMBOL    XDATA    BYTE      back_enable
      0200C858H   SYMBOL    XDATA    BYTE      work_light
      0200C859H   SYMBOL    XDATA    WORD      sleep_time
LX51 LINKER/LOCATER V4.66.97.0                                                        09/27/2023  17:05:17  PAGE 119


      ---         BLOCKEND  ---      ---       LVL=1
      0100B1F0H   LINE      CODE     ---       #2019
      0100B1F0H   LINE      CODE     ---       #2020
      0100B1F0H   LINE      CODE     ---       #2021
      0100B1F4H   LINE      CODE     ---       #2022
      0100B1F4H   LINE      CODE     ---       #2023
      0100B1F4H   LINE      CODE     ---       #2024
      0100B1F7H   LINE      CODE     ---       #2025
      0100B1FDH   LINE      CODE     ---       #2026
      0100B209H   LINE      CODE     ---       #2027
      0100B209H   LINE      CODE     ---       #2030
      0100B213H   LINE      CODE     ---       #2031
      0100B219H   LINE      CODE     ---       #2032
      0100B22AH   LINE      CODE     ---       #2034
      0100B230H   LINE      CODE     ---       #2035
      0100B23BH   LINE      CODE     ---       #2039
      0100B241H   LINE      CODE     ---       #2040
      0100B24AH   LINE      CODE     ---       #2041
      0100B24DH   LINE      CODE     ---       #2042
      0100B252H   LINE      CODE     ---       #2043
      0100B252H   LINE      CODE     ---       #2044
      ---         BLOCKEND  ---      ---       LVL=0

      0100C5AEH   BLOCK     CODE     ---       LVL=0
      0100C5AEH   BLOCK     CODE     NEAR LAB  LVL=1
      0200A772H   SYMBOL    XDATA    BYTE      s_sta
      0200C855H   SYMBOL    XDATA    ---       read_data
      ---         BLOCKEND  ---      ---       LVL=1
      0100C5AEH   LINE      CODE     ---       #2046
      0100C5AEH   LINE      CODE     ---       #2047
      0100C5AEH   LINE      CODE     ---       #2049
      0100C5BBH   LINE      CODE     ---       #2050
      0100C5CDH   LINE      CODE     ---       #2051
      0100C5D3H   LINE      CODE     ---       #2052
      0100C5D3H   LINE      CODE     ---       #2054
      0100C5D9H   LINE      CODE     ---       #2055
      0100C5D9H   LINE      CODE     ---       #2056
      0100C5DEH   LINE      CODE     ---       #2057
      0100C5E4H   LINE      CODE     ---       #2058
      0100C5E4H   LINE      CODE     ---       #2059
      0100C5E4H   LINE      CODE     ---       #2060
      0100C5EAH   LINE      CODE     ---       #2061
      0100C5EAH   LINE      CODE     ---       #2062
      0100C5EFH   LINE      CODE     ---       #2063
      0100C5EFH   LINE      CODE     ---       #2065
      ---         BLOCKEND  ---      ---       LVL=0

      0100CDC8H   BLOCK     CODE     ---       LVL=0
      0100CDC8H   LINE      CODE     ---       #2067
      0100CDC8H   LINE      CODE     ---       #2068
      0100CDC8H   LINE      CODE     ---       #2069
      0100CDD5H   LINE      CODE     ---       #2070
      0100CDD5H   LINE      CODE     ---       #2071
      0100CDD7H   LINE      CODE     ---       #2072
      0100CDDBH   LINE      CODE     ---       #2073
      0100CDDFH   LINE      CODE     ---       #2074
      0100CDE4H   LINE      CODE     ---       #2076
      0100CDEDH   LINE      CODE     ---       #2077
      0100CDEDH   LINE      CODE     ---       #2078
      ---         BLOCKEND  ---      ---       LVL=0

      0100C3C7H   BLOCK     CODE     ---       LVL=0
      0200C853H   SYMBOL    XDATA    ---       p
      00000005H   SYMBOL    DATA     BYTE      fun_execute_nb
      0200C857H   SYMBOL    XDATA    BYTE      channel
LX51 LINKER/LOCATER V4.66.97.0                                                        09/27/2023  17:05:17  PAGE 120


      0200C858H   SYMBOL    XDATA    BYTE      parameter_set_sta
      0100C3C7H   LINE      CODE     ---       #2080
      0100C3CDH   LINE      CODE     ---       #2081
      0100C3CDH   LINE      CODE     ---       #2082
      0100C3DEH   LINE      CODE     ---       #2083
      0100C3DEH   LINE      CODE     ---       #2084
      0100C3DEH   LINE      CODE     ---       #2085
      0100C3E7H   LINE      CODE     ---       #2086
      0100C3E7H   LINE      CODE     ---       #2087
      0100C3E7H   LINE      CODE     ---       #2088
      0100C3F0H   LINE      CODE     ---       #2089
      0100C3F0H   LINE      CODE     ---       #2090
      0100C3F0H   LINE      CODE     ---       #2091
      0100C3FAH   LINE      CODE     ---       #2092
      0100C3FAH   LINE      CODE     ---       #2093
      0100C3FAH   LINE      CODE     ---       #2094
      0100C404H   LINE      CODE     ---       #2095
      0100C404H   LINE      CODE     ---       #2096
      0100C404H   LINE      CODE     ---       #2097
      0100C40EH   LINE      CODE     ---       #2098
      0100C40EH   LINE      CODE     ---       #2099
      0100C40EH   LINE      CODE     ---       #2100
      0100C40EH   LINE      CODE     ---       #2101
      0100C40EH   LINE      CODE     ---       #2102
      ---         BLOCKEND  ---      ---       LVL=0

      0100A1EEH   BLOCK     CODE     ---       LVL=0
      0100A1EEH   LINE      CODE     ---       #2104
      0100A1EEH   LINE      CODE     ---       #2105
      0100A1EEH   LINE      CODE     ---       #2108
      0100A217H   LINE      CODE     ---       #2109
      0100A217H   LINE      CODE     ---       #2111
      0100A223H   LINE      CODE     ---       #2112
      0100A223H   LINE      CODE     ---       #2113
      0100A229H   LINE      CODE     ---       #2114
      0100A23DH   LINE      CODE     ---       #2115
      0100A245H   LINE      CODE     ---       #2116
      0100A245H   LINE      CODE     ---       #2117
      0100A253H   LINE      CODE     ---       #2118
      0100A253H   LINE      CODE     ---       #2120
      0100A271H   LINE      CODE     ---       #2121
      0100A271H   LINE      CODE     ---       #2122
      0100A273H   LINE      CODE     ---       #2124
      0100A273H   LINE      CODE     ---       #2125
      0100A273H   LINE      CODE     ---       #2126
      0100A273H   LINE      CODE     ---       #2127
      0100A275H   LINE      CODE     ---       #2129
      0100A275H   LINE      CODE     ---       #2130
      0100A27BH   LINE      CODE     ---       #2131
      0100A27BH   LINE      CODE     ---       #2132
      0100A27BH   LINE      CODE     ---       #2133
      0100A27BH   LINE      CODE     ---       #2134
      ---         BLOCKEND  ---      ---       LVL=0

      0100967AH   BLOCK     CODE     ---       LVL=0
      0100967AH   BLOCK     CODE     NEAR LAB  LVL=1
      0200C855H   SYMBOL    XDATA    WORD      key_nb
      ---         BLOCKEND  ---      ---       LVL=1
      0100967AH   LINE      CODE     ---       #2140
      0100967AH   LINE      CODE     ---       #2141
      0100967AH   LINE      CODE     ---       #2142
      01009680H   LINE      CODE     ---       #2143
      01009686H   LINE      CODE     ---       #2144
      01009691H   LINE      CODE     ---       #2145
      01009691H   LINE      CODE     ---       #2146
LX51 LINKER/LOCATER V4.66.97.0                                                        09/27/2023  17:05:17  PAGE 121


      010096B7H   LINE      CODE     ---       #2147
      010096B7H   LINE      CODE     ---       #2148
      010096B7H   LINE      CODE     ---       #2149
      010096BCH   LINE      CODE     ---       #2150
      010096BCH   LINE      CODE     ---       #2151
      010096BCH   LINE      CODE     ---       #2152
      010096BEH   LINE      CODE     ---       #2153
      010096BEH   LINE      CODE     ---       #2154
      010096C4H   LINE      CODE     ---       #2155
      010096C9H   LINE      CODE     ---       #2156
      010096CBH   LINE      CODE     ---       #2157
      010096CDH   LINE      CODE     ---       #2158
      010096CDH   LINE      CODE     ---       #2159
      010096D3H   LINE      CODE     ---       #2160
      010096D5H   LINE      CODE     ---       #2161
      010096D5H   LINE      CODE     ---       #2162
      010096D7H   LINE      CODE     ---       #2163
      010096D7H   LINE      CODE     ---       #2164
      010096DDH   LINE      CODE     ---       #2165
      010096DFH   LINE      CODE     ---       #2166
      010096DFH   LINE      CODE     ---       #2167
      010096E1H   LINE      CODE     ---       #2168
      010096E1H   LINE      CODE     ---       #2169
      010096E7H   LINE      CODE     ---       #2170
      010096F3H   LINE      CODE     ---       #2171
      010096F7H   LINE      CODE     ---       #2172
      010096F9H   LINE      CODE     ---       #2173
      010096F9H   LINE      CODE     ---       #2174
      010096FEH   LINE      CODE     ---       #2175
      010096FEH   LINE      CODE     ---       #2176
      010096FEH   LINE      CODE     ---       #2177
      01009700H   LINE      CODE     ---       #2178
      01009700H   LINE      CODE     ---       #2179
      01009705H   LINE      CODE     ---       #2180
      01009705H   LINE      CODE     ---       #2181
      01009705H   LINE      CODE     ---       #2182
      01009707H   LINE      CODE     ---       #2183
      01009707H   LINE      CODE     ---       #2184
      0100970DH   LINE      CODE     ---       #2185
      01009712H   LINE      CODE     ---       #2186
      01009716H   LINE      CODE     ---       #2187
      01009716H   LINE      CODE     ---       #2188
      01009716H   LINE      CODE     ---       #2189
      01009716H   LINE      CODE     ---       #2190
      01009716H   LINE      CODE     ---       #2191
      0100971BH   LINE      CODE     ---       #2192
      01009723H   LINE      CODE     ---       #2194
      01009729H   LINE      CODE     ---       #2195
      01009729H   LINE      CODE     ---       #2196
      ---         BLOCKEND  ---      ---       LVL=0

      0100CC86H   BLOCK     CODE     ---       LVL=0
      0100CC86H   BLOCK     CODE     NEAR LAB  LVL=1
      0200C855H   SYMBOL    XDATA    WORD      key_nb
      ---         BLOCKEND  ---      ---       LVL=1
      0100CC86H   LINE      CODE     ---       #2198
      0100CC86H   LINE      CODE     ---       #2199
      0100CC86H   LINE      CODE     ---       #2201
      0100CC8DH   LINE      CODE     ---       #2202
      0100CC93H   LINE      CODE     ---       #2203
      0100CC9FH   LINE      CODE     ---       #2204
      0100CC9FH   LINE      CODE     ---       #2205
      0100CCA4H   LINE      CODE     ---       #2206
      0100CCA9H   LINE      CODE     ---       #2207
      0100CCAFH   LINE      CODE     ---       #2208
LX51 LINKER/LOCATER V4.66.97.0                                                        09/27/2023  17:05:17  PAGE 122


      0100CCAFH   LINE      CODE     ---       #2209
      ---         BLOCKEND  ---      ---       LVL=0

      0100D2FAH   BLOCK     CODE     ---       LVL=0
      00000007H   SYMBOL    DATA     BYTE      adr
      0100D2FAH   LINE      CODE     ---       #2211
      0100D2FAH   LINE      CODE     ---       #2212
      0100D2FAH   LINE      CODE     ---       #2213
      ---         BLOCKEND  ---      ---       LVL=0

      01000086H   BLOCK     CODE     ---       LVL=0
      01000086H   BLOCK     CODE     NEAR LAB  LVL=1
      0200A773H   SYMBOL    XDATA    BYTE      send_flag
      ---         BLOCKEND  ---      ---       LVL=1
      01000086H   LINE      CODE     ---       #2216
      01000086H   LINE      CODE     ---       #2217
      01000086H   LINE      CODE     ---       #2219
      0100008EH   LINE      CODE     ---       #2220
      0100008EH   LINE      CODE     ---       #2227
      0100009EH   LINE      CODE     ---       #2228
      0100009EH   LINE      CODE     ---       #2229
      010000A7H   LINE      CODE     ---       #2230
      010000AFH   LINE      CODE     ---       #2231
      010000B5H   LINE      CODE     ---       #2233
      010000B5H   LINE      CODE     ---       #2238
      010000B5H   LINE      CODE     ---       #2240
      010000C2H   LINE      CODE     ---       #2241
      010000C2H   LINE      CODE     ---       #2242
      010000C7H   LINE      CODE     ---       #2245
      010000CCH   LINE      CODE     ---       #2246
      010000CCH   LINE      CODE     ---       #2247
      010000DEH   LINE      CODE     ---       #2248
      010000DEH   LINE      CODE     ---       #2249
      010000E2H   LINE      CODE     ---       #2250
      010000E7H   LINE      CODE     ---       #2251
      010000ECH   LINE      CODE     ---       #2252
      010000F5H   LINE      CODE     ---       #2253
      010000F5H   LINE      CODE     ---       #2254
      ---         BLOCKEND  ---      ---       LVL=0

      010089E2H   BLOCK     CODE     ---       LVL=0
      010089E2H   BLOCK     CODE     NEAR LAB  LVL=1
      00000007H   SYMBOL    DATA     BYTE      device_channel
      ---         BLOCKEND  ---      ---       LVL=1
      010089E2H   LINE      CODE     ---       #2256
      010089E2H   LINE      CODE     ---       #2257
      010089E2H   LINE      CODE     ---       #2259
      010089E2H   LINE      CODE     ---       #2260
      010089EFH   LINE      CODE     ---       #2261
      010089EFH   LINE      CODE     ---       #2262
      010089FAH   LINE      CODE     ---       #2263
      01008A05H   LINE      CODE     ---       #2264
      01008A14H   LINE      CODE     ---       #2265
      01008A1CH   LINE      CODE     ---       #2266
      01008A1FH   LINE      CODE     ---       #2267
      01008A25H   LINE      CODE     ---       #2268
      01008A36H   LINE      CODE     ---       #2269
      01008A53H   LINE      CODE     ---       #2273
      01008A66H   LINE      CODE     ---       #2282
      01008A7AH   LINE      CODE     ---       #2283
      01008A8FH   LINE      CODE     ---       #2284
      01008A9DH   LINE      CODE     ---       #2285
      01008AA6H   LINE      CODE     ---       #2286
      01008AADH   LINE      CODE     ---       #2287
      01008AADH   LINE      CODE     ---       #2288
LX51 LINKER/LOCATER V4.66.97.0                                                        09/27/2023  17:05:17  PAGE 123


      ---         BLOCKEND  ---      ---       LVL=0

      01006753H   BLOCK     CODE     ---       LVL=0
      01006753H   BLOCK     CODE     NEAR LAB  LVL=1
      0200C855H   SYMBOL    XDATA    WORD      key_nb
      ---         BLOCKEND  ---      ---       LVL=1
      01006753H   LINE      CODE     ---       #2295
      01006753H   LINE      CODE     ---       #2296
      01006753H   LINE      CODE     ---       #2297
      0100675AH   LINE      CODE     ---       #2298
      0100675CH   LINE      CODE     ---       #2299
      0100676AH   LINE      CODE     ---       #2300
      0100676AH   LINE      CODE     ---       #2301
      01006777H   LINE      CODE     ---       #2302
      01006787H   LINE      CODE     ---       #2303
      01006797H   LINE      CODE     ---       #2304
      010067A7H   LINE      CODE     ---       #2305
      010067B7H   LINE      CODE     ---       #2306
      010067C4H   LINE      CODE     ---       #2307
      010067D1H   LINE      CODE     ---       #2308
      010067DEH   LINE      CODE     ---       #2309
      010067EBH   LINE      CODE     ---       #2310
      010067F8H   LINE      CODE     ---       #2311
      01006805H   LINE      CODE     ---       #2312
      01006812H   LINE      CODE     ---       #2313
      01006818H   LINE      CODE     ---       #2314
      01006822H   LINE      CODE     ---       #2315
      01006822H   LINE      CODE     ---       #2316
      01006824H   LINE      CODE     ---       #2317
      01006832H   LINE      CODE     ---       #2318
      01006832H   LINE      CODE     ---       #2319
      0100683FH   LINE      CODE     ---       #2320
      0100684CH   LINE      CODE     ---       #2321
      01006859H   LINE      CODE     ---       #2322
      01006866H   LINE      CODE     ---       #2323
      01006873H   LINE      CODE     ---       #2324
      01006880H   LINE      CODE     ---       #2325
      0100688DH   LINE      CODE     ---       #2326
      0100689AH   LINE      CODE     ---       #2327
      010068A7H   LINE      CODE     ---       #2328
      010068B4H   LINE      CODE     ---       #2329
      010068C1H   LINE      CODE     ---       #2330
      010068CEH   LINE      CODE     ---       #2331
      010068D4H   LINE      CODE     ---       #2332
      010068DEH   LINE      CODE     ---       #2334
      010068DEH   LINE      CODE     ---       #2335
      ---         BLOCKEND  ---      ---       LVL=0

      0100C335H   BLOCK     CODE     ---       LVL=0
      0100C335H   BLOCK     CODE     NEAR LAB  LVL=1
      0200C855H   SYMBOL    XDATA    WORD      key_nb
      ---         BLOCKEND  ---      ---       LVL=1
      0100C335H   LINE      CODE     ---       #2340
      0100C335H   LINE      CODE     ---       #2341
      0100C335H   LINE      CODE     ---       #2342
      0100C33BH   LINE      CODE     ---       #2343
      0100C341H   LINE      CODE     ---       #2344
      0100C349H   LINE      CODE     ---       #2345
      0100C349H   LINE      CODE     ---       #2346
      0100C34DH   LINE      CODE     ---       #2347
      0100C353H   LINE      CODE     ---       #2348
      0100C353H   LINE      CODE     ---       #2349
      0100C35BH   LINE      CODE     ---       #2350
      0100C367H   LINE      CODE     ---       #2351
      0100C367H   LINE      CODE     ---       #2352
LX51 LINKER/LOCATER V4.66.97.0                                                        09/27/2023  17:05:17  PAGE 124


      0100C371H   LINE      CODE     ---       #2353
      0100C37EH   LINE      CODE     ---       #2354
      0100C37EH   LINE      CODE     ---       #2357
      ---         BLOCKEND  ---      ---       LVL=0

      01009938H   BLOCK     CODE     ---       LVL=0
      01009938H   BLOCK     CODE     NEAR LAB  LVL=1
      00000006H   SYMBOL    DATA     WORD      page
      0200C853H   SYMBOL    XDATA    WORD      size_struct
      ---         BLOCKEND  ---      ---       LVL=1
      01009938H   LINE      CODE     ---       #2359
      01009938H   LINE      CODE     ---       #2360
      01009938H   LINE      CODE     ---       #2361
      0100993BH   LINE      CODE     ---       #2362
      01009941H   LINE      CODE     ---       #2363
      01009944H   LINE      CODE     ---       #2364
      0100994EH   LINE      CODE     ---       #2366
      0100996CH   LINE      CODE     ---       #2367
      0100996CH   LINE      CODE     ---       #2369
      0100996FH   LINE      CODE     ---       #2370
      01009975H   LINE      CODE     ---       #2371
      01009975H   LINE      CODE     ---       #2373
      01009998H   LINE      CODE     ---       #2374
      0100999EH   LINE      CODE     ---       #2375
      010099A1H   LINE      CODE     ---       #2376
      010099A4H   LINE      CODE     ---       #2377
      010099AFH   LINE      CODE     ---       #2378
      010099BAH   LINE      CODE     ---       #2379
      010099BDH   LINE      CODE     ---       #2380
      010099C7H   LINE      CODE     ---       #2381
      010099D0H   LINE      CODE     ---       #2382
      010099D3H   LINE      CODE     ---       #2383
      010099D6H   LINE      CODE     ---       #2385
      010099D9H   LINE      CODE     ---       #2386
      010099DCH   LINE      CODE     ---       #2387
      010099DFH   LINE      CODE     ---       #2388
      010099E2H   LINE      CODE     ---       #2389
      ---         BLOCKEND  ---      ---       LVL=0

      0100CD03H   BLOCK     CODE     ---       LVL=0
      0100CD03H   LINE      CODE     ---       #2393
      0100CD03H   LINE      CODE     ---       #2394
      0100CD03H   LINE      CODE     ---       #2395
      0100CD06H   LINE      CODE     ---       #2396
      0100CD09H   LINE      CODE     ---       #2397
      0100CD0CH   LINE      CODE     ---       #2398
      0100CD15H   LINE      CODE     ---       #2399
      0100CD1AH   LINE      CODE     ---       #2400
      0100CD1FH   LINE      CODE     ---       #2401
      0100CD25H   LINE      CODE     ---       #2402
      0100CD27H   LINE      CODE     ---       #2403
      0100CD2BH   LINE      CODE     ---       #2404
      ---         BLOCKEND  ---      ---       LVL=0

      ---         MODULE    ---      ---       MB_USER
      0200B3BAH   PUBLIC    XDATA    ---       master_send_hr
      0200B3B4H   PUBLIC    XDATA    ---       mb_master_func
      0200B39EH   PUBLIC    XDATA    ---       user_modbus
      0200AF9EH   PUBLIC    XDATA    ---       send_table
      0200C8BBH   PUBLIC    XDATA    BYTE      ?_pack_data_send?BYTE
      0100C93CH   PUBLIC    CODE     ---       _pack_data_send
      0100C40FH   PUBLIC    CODE     ---       _modbus_send_data
      0200C8BBH   PUBLIC    XDATA    BYTE      ?_set_master_send_hr?BYTE
      0100D0FEH   PUBLIC    CODE     ---       _set_master_send_hr
      0200C8C3H   PUBLIC    XDATA    BYTE      ?_modtify_mb_infom?BYTE
LX51 LINKER/LOCATER V4.66.97.0                                                        09/27/2023  17:05:17  PAGE 125


      0100C0DCH   PUBLIC    CODE     ---       _modtify_mb_infom
      0100C6B4H   PUBLIC    CODE     ---       _mb_data_init
      0100659CH   PUBLIC    CODE     ---       _modbus_master_send
      0200C8D9H   PUBLIC    XDATA    BYTE      ?_short_copy_xch?BYTE
      0100AABFH   PUBLIC    CODE     ---       _short_copy_xch
      000000F1H   SFRSYM    DATA     BYTE      ADR_H
      00000080H   SFRSYM    DATA     BYTE      P0
      00000090H   SFRSYM    DATA     BYTE      P1
      000000A0H   SFRSYM    DATA     BYTE      P2
      000000B0H   SFRSYM    DATA     BYTE      P3
      000000F3H   SFRSYM    DATA     BYTE      ADR_L
      000000D0H.6 SFRSYM    DATA     BIT       AC
      000000A0H.6 SFRSYM    DATA     BIT       Red_LED1
      00000094H   SFRSYM    DATA     BYTE      PAGESEL
      000000F2H   SFRSYM    DATA     BYTE      ADR_M
      000000A8H.7 SFRSYM    DATA     BIT       EA
      000000F8H   SFRSYM    DATA     BYTE      RAMMODE
      000000B7H   SFRSYM    DATA     BYTE      P0MDOUT
      000000BCH   SFRSYM    DATA     BYTE      P1MDOUT
      000000A8H   SFRSYM    DATA     BYTE      IEN0
      000000BDH   SFRSYM    DATA     BYTE      P2MDOUT
      000000B8H   SFRSYM    DATA     BYTE      IEN1
      000000BEH   SFRSYM    DATA     BYTE      P3MDOUT
      0000009AH   SFRSYM    DATA     BYTE      IEN2
      000000F8H.4 SFRSYM    DATA     BIT       APP_ACK
      000000F4H   SFRSYM    DATA     BYTE      ADR_INC
      000000B8H.1 SFRSYM    DATA     BIT       ECAN
      000000D0H.7 SFRSYM    DATA     BIT       CY
      000000B8H.3 SFRSYM    DATA     BIT       ES4R
      000000B8H.5 SFRSYM    DATA     BIT       ES5R
      000000B8H.2 SFRSYM    DATA     BIT       ES4T
      000000B8H.4 SFRSYM    DATA     BIT       ES5T
      000000B0H.3 SFRSYM    DATA     BIT       RTC_SDA
      00000081H   SFRSYM    DATA     BYTE      SP
      000000D0H.2 SFRSYM    DATA     BIT       OV
      00000095H   SFRSYM    DATA     BYTE      D_PAGESEL
      000000F8H.7 SFRSYM    DATA     BIT       APP_REQ
      000000B0H.2 SFRSYM    DATA     BIT       RTC_SCL
      000000BFH   SFRSYM    DATA     BYTE      IRCON2
      00000087H   SFRSYM    DATA     BYTE      PCON
      000000BAH   SFRSYM    DATA     BYTE      SREL2H
      000000BBH   SFRSYM    DATA     BYTE      SREL3H
      000000F9H   SFRSYM    DATA     BYTE      PORTDRV
      00000089H   SFRSYM    DATA     BYTE      TMOD
      00000088H   SFRSYM    DATA     BYTE      TCON
      000000AAH   SFRSYM    DATA     BYTE      SREL2L
      0000009DH   SFRSYM    DATA     BYTE      SREL3L
      000000FFH   SFRSYM    DATA     BYTE      EXDATA
      00000097H   SFRSYM    DATA     BYTE      SCON4R
      000000ABH   SFRSYM    DATA     BYTE      SCON5R
      000000D9H   SFRSYM    DATA     BYTE      BODE4_DIV_H
      000000AEH   SFRSYM    DATA     BYTE      BODE5_DIV_H
      00000096H   SFRSYM    DATA     BYTE      SCON4T
      000000A7H   SFRSYM    DATA     BYTE      SCON5T
      00000088H.1 SFRSYM    DATA     BIT       IE0
      00000088H.3 SFRSYM    DATA     BIT       IE1
      000000C9H   SFRSYM    DATA     BYTE      MUX_SEL
      000000E7H   SFRSYM    DATA     BYTE      BODE4_DIV_L
      000000AFH   SFRSYM    DATA     BYTE      BODE5_DIV_L
      000000F0H   SFRSYM    DATA     BYTE      B
      000000E0H   SFRSYM    DATA     BYTE      ACC
      0000008FH   SFRSYM    DATA     BYTE      CAN_CR
      000000A9H   SFRSYM    DATA     BYTE      IP0
      000000A8H.1 SFRSYM    DATA     BIT       ET0
      000000B9H   SFRSYM    DATA     BYTE      IP1
LX51 LINKER/LOCATER V4.66.97.0                                                        09/27/2023  17:05:17  PAGE 126


      000000A8H.3 SFRSYM    DATA     BIT       ET1
      000000A8H.4 SFRSYM    DATA     BIT       ES2
      00000088H.5 SFRSYM    DATA     BIT       TF0
      000000FDH   SFRSYM    DATA     BYTE      DATA0
      000000A8H.5 SFRSYM    DATA     BIT       ET2
      00000088H.7 SFRSYM    DATA     BIT       TF1
      000000E8H   SFRSYM    DATA     BYTE      CAN_ET
      000000FCH   SFRSYM    DATA     BYTE      DATA1
      000000C0H.6 SFRSYM    DATA     BIT       TF2
      0000008CH   SFRSYM    DATA     BYTE      TH0
      000000FBH   SFRSYM    DATA     BYTE      DATA2
      000000A8H.0 SFRSYM    DATA     BIT       EX0
      00000098H.0 SFRSYM    DATA     BIT       RI2
      0000008DH   SFRSYM    DATA     BYTE      TH1
      00000088H.0 SFRSYM    DATA     BIT       IT0
      00000091H   SFRSYM    DATA     BYTE      CAN_IR
      000000FAH   SFRSYM    DATA     BYTE      DATA3
      000000CDH   SFRSYM    DATA     BYTE      TH2
      000000A8H.2 SFRSYM    DATA     BIT       EX1
      00000088H.2 SFRSYM    DATA     BIT       IT1
      000000D0H.0 SFRSYM    DATA     BIT       P
      00000098H.1 SFRSYM    DATA     BIT       TI2
      0000008AH   SFRSYM    DATA     BYTE      TL0
      0000008BH   SFRSYM    DATA     BYTE      TL1
      000000CCH   SFRSYM    DATA     BYTE      TL2
      000000F8H.6 SFRSYM    DATA     BIT       APP_EN
      000000D0H.3 SFRSYM    DATA     BIT       RS0
      000000D0H.4 SFRSYM    DATA     BIT       RS1
      00000088H.4 SFRSYM    DATA     BIT       TR0
      00000093H   SFRSYM    DATA     BYTE      DPC
      00000088H.6 SFRSYM    DATA     BIT       TR1
      000000E5H   SFRSYM    DATA     BYTE      MAC_MODE
      000000C8H.0 SFRSYM    DATA     BIT       TR2
      00000080H.0 SFRSYM    DATA     BIT       TR4
      00000080H.1 SFRSYM    DATA     BIT       TR5
      000000A0H.7 SFRSYM    DATA     BIT       Green_LED2
      00000083H   SFRSYM    DATA     BYTE      DPH
      00000082H   SFRSYM    DATA     BYTE      DPL
      00000099H   SFRSYM    DATA     BYTE      SBUF2
      0000009CH   SFRSYM    DATA     BYTE      SBUF3
      000000D8H   SFRSYM    DATA     BYTE      ADCON
      00000098H   SFRSYM    DATA     BYTE      SCON2
      000000C8H   SFRSYM    DATA     BYTE      T2CON
      0000009BH   SFRSYM    DATA     BYTE      SCON3
      000000E6H   SFRSYM    DATA     BYTE      DIV_MODE
      000000F8H.5 SFRSYM    DATA     BIT       APP_RW
      000000CBH   SFRSYM    DATA     BYTE      TRL2H
      0000008EH   SFRSYM    DATA     BYTE      CKCON
      0000009FH   SFRSYM    DATA     BYTE      SBUF4_RX
      000000ADH   SFRSYM    DATA     BYTE      SBUF5_RX
      000000CAH   SFRSYM    DATA     BYTE      TRL2L
      0000009EH   SFRSYM    DATA     BYTE      SBUF4_TX
      000000ACH   SFRSYM    DATA     BYTE      SBUF5_TX
      000000FEH   SFRSYM    DATA     BYTE      EXADR
      000000D0H.5 SFRSYM    DATA     BIT       F0
      000000D0H.1 SFRSYM    DATA     BIT       F1
      000000D0H   SFRSYM    DATA     BYTE      PSW
      000000C0H   SFRSYM    DATA     BYTE      IRCON

      0100B5C2H   BLOCK     CODE     ---       LVL=0
      ---         BLOCKEND  ---      ---       LVL=0

      0100AABFH   BLOCK     CODE     ---       LVL=0
      00000001H   SYMBOL    DATA     ---       t
      0200C8DCH   SYMBOL    XDATA    ---       s
LX51 LINKER/LOCATER V4.66.97.0                                                        09/27/2023  17:05:17  PAGE 127


      0200C8DFH   SYMBOL    XDATA    INT       n
      0200C8E1H   SYMBOL    XDATA    BYTE      b_xch
      0100AABFH   BLOCK     CODE     NEAR LAB  LVL=1
      00000006H   SYMBOL    DATA     INT       i
      0200C8E2H   SYMBOL    XDATA    ---       pt
      0200C8E5H   SYMBOL    XDATA    ---       ps0
      00000005H   SYMBOL    DATA     BYTE      ch
      ---         BLOCKEND  ---      ---       LVL=1
      0100AABFH   LINE      CODE     ---       #18
      0100AABFH   LINE      CODE     ---       #19
      0100AABFH   LINE      CODE     ---       #24
      0100AAC5H   LINE      CODE     ---       #25
      0100AAD1H   LINE      CODE     ---       #27
      0100AAD7H   LINE      CODE     ---       #28
      0100AAD7H   LINE      CODE     ---       #29
      0100AADFH   LINE      CODE     ---       #30
      0100AADFH   LINE      CODE     ---       #31
      0100AAE6H   LINE      CODE     ---       #32
      0100AAF7H   LINE      CODE     ---       #33
      0100AB01H   LINE      CODE     ---       #34
      0100AB08H   LINE      CODE     ---       #35
      0100AB08H   LINE      CODE     ---       #37
      0100AB08H   LINE      CODE     ---       #38
      0100AB15H   LINE      CODE     ---       #39
      0100AB1DH   LINE      CODE     ---       #40
      0100AB1DH   LINE      CODE     ---       #41
      0100AB2EH   LINE      CODE     ---       #42
      0100AB35H   LINE      CODE     ---       #43
      0100AB35H   LINE      CODE     ---       #44
      ---         BLOCKEND  ---      ---       LVL=0

      0100659CH   BLOCK     CODE     ---       LVL=0
      0200C8CBH   SYMBOL    XDATA    ---       p
      010065A2H   BLOCK     CODE     NEAR LAB  LVL=1
      0200C8CEH   SYMBOL    XDATA    WORD      send_n
      0200C8D0H   SYMBOL    XDATA    ---       phr
      0200C8D3H   SYMBOL    XDATA    WORD      da_n
      0200C8D5H   SYMBOL    XDATA    WORD      da_adr
      00000006H   SYMBOL    DATA     WORD      adr_end1
      0200C8D7H   SYMBOL    XDATA    BYTE      b_ext
      0200C8D8H   SYMBOL    XDATA    BYTE      b_hr_ok
      ---         BLOCKEND  ---      ---       LVL=1
      0100659CH   LINE      CODE     ---       #45
      010065A2H   LINE      CODE     ---       #46
      010065A2H   LINE      CODE     ---       #47
      010065A9H   LINE      CODE     ---       #48
      010065B5H   LINE      CODE     ---       #49
      010065B7H   LINE      CODE     ---       #50
      010065B9H   LINE      CODE     ---       #52
      010065C6H   LINE      CODE     ---       #54
      010065D2H   LINE      CODE     ---       #55
      010065E1H   LINE      CODE     ---       #56
      010065E7H   LINE      CODE     ---       #58
      010065F1H   LINE      CODE     ---       #59
      010065FEH   LINE      CODE     ---       #60
      0100660BH   LINE      CODE     ---       #61
      01006614H   LINE      CODE     ---       #63
      01006623H   LINE      CODE     ---       #64
      0100663EH   LINE      CODE     ---       #66
      01006645H   LINE      CODE     ---       #67
      0100665AH   LINE      CODE     ---       #68
      0100665AH   LINE      CODE     ---       #72
      0100665AH   LINE      CODE     ---       #73
      01006663H   LINE      CODE     ---       #74
      01006663H   LINE      CODE     ---       #75
LX51 LINKER/LOCATER V4.66.97.0                                                        09/27/2023  17:05:17  PAGE 128


      01006663H   LINE      CODE     ---       #76
      01006663H   LINE      CODE     ---       #77
      01006665H   LINE      CODE     ---       #80
      01006665H   LINE      CODE     ---       #81
      01006681H   LINE      CODE     ---       #82
      01006681H   LINE      CODE     ---       #83
      01006695H   LINE      CODE     ---       #84
      010066A8H   LINE      CODE     ---       #85
      010066B0H   LINE      CODE     ---       #86
      010066BAH   LINE      CODE     ---       #87
      010066C3H   LINE      CODE     ---       #88
      010066C3H   LINE      CODE     ---       #89
      010066C5H   LINE      CODE     ---       #90
      010066C5H   LINE      CODE     ---       #91
      010066CBH   LINE      CODE     ---       #92
      010066CBH   LINE      CODE     ---       #93
      010066DBH   LINE      CODE     ---       #94
      010066EFH   LINE      CODE     ---       #95
      010066F5H   LINE      CODE     ---       #96
      010066F5H   LINE      CODE     ---       #97
      0100673FH   LINE      CODE     ---       #98
      0100673FH   LINE      CODE     ---       #99
      0100673FH   LINE      CODE     ---       #100
      0100673FH   LINE      CODE     ---       #101
      0100673FH   LINE      CODE     ---       #103
      0100673FH   LINE      CODE     ---       #104
      0100673FH   LINE      CODE     ---       #105
      0100674AH   LINE      CODE     ---       #106
      01006752H   LINE      CODE     ---       #107
      ---         BLOCKEND  ---      ---       LVL=0

      0100C6B4H   BLOCK     CODE     ---       LVL=0
      0200C853H   SYMBOL    XDATA    ---       p
      0100C6B4H   LINE      CODE     ---       #108
      0100C6BAH   LINE      CODE     ---       #109
      0100C6BAH   LINE      CODE     ---       #110
      0100C6CFH   LINE      CODE     ---       #111
      0100C6DDH   LINE      CODE     ---       #112
      0100C6F2H   LINE      CODE     ---       #113
      ---         BLOCKEND  ---      ---       LVL=0

      0100C0DCH   BLOCK     CODE     ---       LVL=0
      0200C8C3H   SYMBOL    XDATA    ---       p
      00000005H   SYMBOL    DATA     BYTE      slv
      0200C8C7H   SYMBOL    XDATA    BYTE      fun
      0200C8C8H   SYMBOL    XDATA    WORD      adr
      0200C8CAH   SYMBOL    XDATA    BYTE      da_n
      0100C0DCH   LINE      CODE     ---       #114
      0100C0E2H   LINE      CODE     ---       #115
      0100C0E2H   LINE      CODE     ---       #116
      0100C0E9H   LINE      CODE     ---       #117
      0100C0F8H   LINE      CODE     ---       #118
      0100C108H   LINE      CODE     ---       #119
      0100C111H   LINE      CODE     ---       #121
      0100C120H   LINE      CODE     ---       #123
      ---         BLOCKEND  ---      ---       LVL=0

      0100D0FEH   BLOCK     CODE     ---       LVL=0
      00000001H   SYMBOL    DATA     ---       p
      00000004H   SYMBOL    DATA     WORD      index
      0200C8C0H   SYMBOL    XDATA    WORD      dat
      0100D0FEH   LINE      CODE     ---       #125
      0100D0FEH   LINE      CODE     ---       #126
      0100D0FEH   LINE      CODE     ---       #127
      ---         BLOCKEND  ---      ---       LVL=0
LX51 LINKER/LOCATER V4.66.97.0                                                        09/27/2023  17:05:17  PAGE 129



      0100C40FH   BLOCK     CODE     ---       LVL=0
      0200C8C3H   SYMBOL    XDATA    ---       p
      0100C40FH   LINE      CODE     ---       #129
      0100C415H   LINE      CODE     ---       #130
      0100C415H   LINE      CODE     ---       #131
      0100C44EH   LINE      CODE     ---       #132
      ---         BLOCKEND  ---      ---       LVL=0

      0100C93CH   BLOCK     CODE     ---       LVL=0
      0200C8BBH   SYMBOL    XDATA    ---       p
      00000005H   SYMBOL    DATA     BYTE      slv
      0200C8BFH   SYMBOL    XDATA    BYTE      fun
      0200C8C0H   SYMBOL    XDATA    WORD      dat_adr
      0200C8C2H   SYMBOL    XDATA    BYTE      dat_nb
      0100C93CH   LINE      CODE     ---       #135
      0100C942H   LINE      CODE     ---       #136
      0100C942H   LINE      CODE     ---       #137
      0100C96AH   LINE      CODE     ---       #138
      ---         BLOCKEND  ---      ---       LVL=0

      ---         MODULE    ---      ---       MB_CRC
      0100BFEFH   PUBLIC    CODE     ---       _mb_crc16
      000000F1H   SFRSYM    DATA     BYTE      ADR_H
      00000080H   SFRSYM    DATA     BYTE      P0
      00000090H   SFRSYM    DATA     BYTE      P1
      000000A0H   SFRSYM    DATA     BYTE      P2
      000000B0H   SFRSYM    DATA     BYTE      P3
      000000F3H   SFRSYM    DATA     BYTE      ADR_L
      000000D0H.6 SFRSYM    DATA     BIT       AC
      000000A0H.6 SFRSYM    DATA     BIT       Red_LED1
      00000094H   SFRSYM    DATA     BYTE      PAGESEL
      000000F2H   SFRSYM    DATA     BYTE      ADR_M
      000000A8H.7 SFRSYM    DATA     BIT       EA
      000000F8H   SFRSYM    DATA     BYTE      RAMMODE
      000000B7H   SFRSYM    DATA     BYTE      P0MDOUT
      000000BCH   SFRSYM    DATA     BYTE      P1MDOUT
      000000A8H   SFRSYM    DATA     BYTE      IEN0
      000000BDH   SFRSYM    DATA     BYTE      P2MDOUT
      000000B8H   SFRSYM    DATA     BYTE      IEN1
      000000BEH   SFRSYM    DATA     BYTE      P3MDOUT
      0000009AH   SFRSYM    DATA     BYTE      IEN2
      000000F8H.4 SFRSYM    DATA     BIT       APP_ACK
      000000F4H   SFRSYM    DATA     BYTE      ADR_INC
      000000B8H.1 SFRSYM    DATA     BIT       ECAN
      000000D0H.7 SFRSYM    DATA     BIT       CY
      000000B8H.3 SFRSYM    DATA     BIT       ES4R
      000000B8H.5 SFRSYM    DATA     BIT       ES5R
      000000B8H.2 SFRSYM    DATA     BIT       ES4T
      000000B8H.4 SFRSYM    DATA     BIT       ES5T
      000000B0H.3 SFRSYM    DATA     BIT       RTC_SDA
      00000081H   SFRSYM    DATA     BYTE      SP
      000000D0H.2 SFRSYM    DATA     BIT       OV
      00000095H   SFRSYM    DATA     BYTE      D_PAGESEL
      000000F8H.7 SFRSYM    DATA     BIT       APP_REQ
      000000B0H.2 SFRSYM    DATA     BIT       RTC_SCL
      000000BFH   SFRSYM    DATA     BYTE      IRCON2
      00000087H   SFRSYM    DATA     BYTE      PCON
      000000BAH   SFRSYM    DATA     BYTE      SREL2H
      000000BBH   SFRSYM    DATA     BYTE      SREL3H
      000000F9H   SFRSYM    DATA     BYTE      PORTDRV
      00000089H   SFRSYM    DATA     BYTE      TMOD
      00000088H   SFRSYM    DATA     BYTE      TCON
      000000AAH   SFRSYM    DATA     BYTE      SREL2L
      0000009DH   SFRSYM    DATA     BYTE      SREL3L
LX51 LINKER/LOCATER V4.66.97.0                                                        09/27/2023  17:05:17  PAGE 130


      000000FFH   SFRSYM    DATA     BYTE      EXDATA
      00000097H   SFRSYM    DATA     BYTE      SCON4R
      000000ABH   SFRSYM    DATA     BYTE      SCON5R
      000000D9H   SFRSYM    DATA     BYTE      BODE4_DIV_H
      000000AEH   SFRSYM    DATA     BYTE      BODE5_DIV_H
      00000096H   SFRSYM    DATA     BYTE      SCON4T
      000000A7H   SFRSYM    DATA     BYTE      SCON5T
      00000088H.1 SFRSYM    DATA     BIT       IE0
      00000088H.3 SFRSYM    DATA     BIT       IE1
      000000C9H   SFRSYM    DATA     BYTE      MUX_SEL
      000000E7H   SFRSYM    DATA     BYTE      BODE4_DIV_L
      000000AFH   SFRSYM    DATA     BYTE      BODE5_DIV_L
      000000F0H   SFRSYM    DATA     BYTE      B
      000000E0H   SFRSYM    DATA     BYTE      ACC
      0000008FH   SFRSYM    DATA     BYTE      CAN_CR
      000000A9H   SFRSYM    DATA     BYTE      IP0
      000000A8H.1 SFRSYM    DATA     BIT       ET0
      000000B9H   SFRSYM    DATA     BYTE      IP1
      000000A8H.3 SFRSYM    DATA     BIT       ET1
      000000A8H.4 SFRSYM    DATA     BIT       ES2
      00000088H.5 SFRSYM    DATA     BIT       TF0
      000000FDH   SFRSYM    DATA     BYTE      DATA0
      000000A8H.5 SFRSYM    DATA     BIT       ET2
      00000088H.7 SFRSYM    DATA     BIT       TF1
      000000E8H   SFRSYM    DATA     BYTE      CAN_ET
      000000FCH   SFRSYM    DATA     BYTE      DATA1
      000000C0H.6 SFRSYM    DATA     BIT       TF2
      0000008CH   SFRSYM    DATA     BYTE      TH0
      000000FBH   SFRSYM    DATA     BYTE      DATA2
      000000A8H.0 SFRSYM    DATA     BIT       EX0
      00000098H.0 SFRSYM    DATA     BIT       RI2
      0000008DH   SFRSYM    DATA     BYTE      TH1
      00000088H.0 SFRSYM    DATA     BIT       IT0
      00000091H   SFRSYM    DATA     BYTE      CAN_IR
      000000FAH   SFRSYM    DATA     BYTE      DATA3
      000000CDH   SFRSYM    DATA     BYTE      TH2
      000000A8H.2 SFRSYM    DATA     BIT       EX1
      00000088H.2 SFRSYM    DATA     BIT       IT1
      000000D0H.0 SFRSYM    DATA     BIT       P
      00000098H.1 SFRSYM    DATA     BIT       TI2
      0000008AH   SFRSYM    DATA     BYTE      TL0
      0000008BH   SFRSYM    DATA     BYTE      TL1
      000000CCH   SFRSYM    DATA     BYTE      TL2
      000000F8H.6 SFRSYM    DATA     BIT       APP_EN
      000000D0H.3 SFRSYM    DATA     BIT       RS0
      000000D0H.4 SFRSYM    DATA     BIT       RS1
      00000088H.4 SFRSYM    DATA     BIT       TR0
      00000093H   SFRSYM    DATA     BYTE      DPC
      00000088H.6 SFRSYM    DATA     BIT       TR1
      000000E5H   SFRSYM    DATA     BYTE      MAC_MODE
      000000C8H.0 SFRSYM    DATA     BIT       TR2
      00000080H.0 SFRSYM    DATA     BIT       TR4
      00000080H.1 SFRSYM    DATA     BIT       TR5
      000000A0H.7 SFRSYM    DATA     BIT       Green_LED2
      00000083H   SFRSYM    DATA     BYTE      DPH
      00000082H   SFRSYM    DATA     BYTE      DPL
      00000099H   SFRSYM    DATA     BYTE      SBUF2
      0000009CH   SFRSYM    DATA     BYTE      SBUF3
      000000D8H   SFRSYM    DATA     BYTE      ADCON
      00000098H   SFRSYM    DATA     BYTE      SCON2
      000000C8H   SFRSYM    DATA     BYTE      T2CON
      0000009BH   SFRSYM    DATA     BYTE      SCON3
      000000E6H   SFRSYM    DATA     BYTE      DIV_MODE
      000000F8H.5 SFRSYM    DATA     BIT       APP_RW
      000000CBH   SFRSYM    DATA     BYTE      TRL2H
LX51 LINKER/LOCATER V4.66.97.0                                                        09/27/2023  17:05:17  PAGE 131


      0000008EH   SFRSYM    DATA     BYTE      CKCON
      0000009FH   SFRSYM    DATA     BYTE      SBUF4_RX
      000000ADH   SFRSYM    DATA     BYTE      SBUF5_RX
      000000CAH   SFRSYM    DATA     BYTE      TRL2L
      0000009EH   SFRSYM    DATA     BYTE      SBUF4_TX
      000000ACH   SFRSYM    DATA     BYTE      SBUF5_TX
      000000FEH   SFRSYM    DATA     BYTE      EXADR
      000000D0H.5 SFRSYM    DATA     BIT       F0
      000000D0H.1 SFRSYM    DATA     BIT       F1
      000000D0H   SFRSYM    DATA     BYTE      PSW
      000000C0H   SFRSYM    DATA     BYTE      IRCON
      0200CDADH   SYMBOL    XDATA    ---       aucCRCHi
      0200CEADH   SYMBOL    XDATA    ---       aucCRCLo

      0100BFEFH   BLOCK     CODE     ---       LVL=0
      0200C8CDH   SYMBOL    XDATA    ---       pFrame
      0200C8D0H   SYMBOL    XDATA    WORD      len
      0100BFFDH   BLOCK     CODE     NEAR LAB  LVL=1
      00000007H   SYMBOL    DATA     BYTE      ucCRCHi
      00000005H   SYMBOL    DATA     BYTE      ucCRCLo
      00000002H   SYMBOL    DATA     INT       iIndex
      ---         BLOCKEND  ---      ---       LVL=1
      0100BFEFH   LINE      CODE     ---       #60
      0100BFFDH   LINE      CODE     ---       #61
      0100BFFDH   LINE      CODE     ---       #62
      0100BFFFH   LINE      CODE     ---       #63
      0100C001H   LINE      CODE     ---       #66
      0100C00FH   LINE      CODE     ---       #67
      0100C00FH   LINE      CODE     ---       #68
      0100C020H   LINE      CODE     ---       #69
      0100C02CH   LINE      CODE     ---       #70
      0100C038H   LINE      CODE     ---       #71
      0100C03AH   LINE      CODE     ---       #72
      0100C03EH   LINE      CODE     ---       #73
      ---         BLOCKEND  ---      ---       LVL=0

      ---         MODULE    ---      ---       MB_HOOK
      0100D242H   PUBLIC    CODE     ---       mbh_resend_time_run
      0100D2ADH   PUBLIC    CODE     ---       _mbh_hook_timesErr
      0200C85BH   PUBLIC    XDATA    BYTE      ?_mbh_hook_rec16?BYTE
      0100D3FBH   PUBLIC    CODE     ---       _mbh_hook_rec16
      0200C85BH   PUBLIC    XDATA    BYTE      ?_mbh_hook_rec15?BYTE
      0100D3F2H   PUBLIC    CODE     ---       _mbh_hook_rec15
      0200C85BH   PUBLIC    XDATA    BYTE      ?_mbh_hook_rec06?BYTE
      0100D3E9H   PUBLIC    CODE     ---       _mbh_hook_rec06
      0200C85BH   PUBLIC    XDATA    BYTE      ?_mbh_hook_rec05?BYTE
      0100D3E0H   PUBLIC    CODE     ---       _mbh_hook_rec05
      0200C85BH   PUBLIC    XDATA    BYTE      ?_mbh_hook_rec04?BYTE
      0100D3D7H   PUBLIC    CODE     ---       _mbh_hook_rec04
      0200C85BH   PUBLIC    XDATA    BYTE      ?_mbh_hook_rec03?BYTE
      0100AEB6H   PUBLIC    CODE     ---       _mbh_hook_rec03
      0200C85BH   PUBLIC    XDATA    BYTE      ?_mbh_hook_rec02?BYTE
      0100D3CEH   PUBLIC    CODE     ---       _mbh_hook_rec02
      0200C85BH   PUBLIC    XDATA    BYTE      ?_mbh_hook_rec01?BYTE
      0100D3C5H   PUBLIC    CODE     ---       _mbh_hook_rec01
      000000F1H   SFRSYM    DATA     BYTE      ADR_H
      00000080H   SFRSYM    DATA     BYTE      P0
      00000090H   SFRSYM    DATA     BYTE      P1
      000000A0H   SFRSYM    DATA     BYTE      P2
      000000B0H   SFRSYM    DATA     BYTE      P3
      000000F3H   SFRSYM    DATA     BYTE      ADR_L
      000000D0H.6 SFRSYM    DATA     BIT       AC
      000000A0H.6 SFRSYM    DATA     BIT       Red_LED1
      00000094H   SFRSYM    DATA     BYTE      PAGESEL
      000000F2H   SFRSYM    DATA     BYTE      ADR_M
LX51 LINKER/LOCATER V4.66.97.0                                                        09/27/2023  17:05:17  PAGE 132


      000000A8H.7 SFRSYM    DATA     BIT       EA
      000000F8H   SFRSYM    DATA     BYTE      RAMMODE
      000000B7H   SFRSYM    DATA     BYTE      P0MDOUT
      000000BCH   SFRSYM    DATA     BYTE      P1MDOUT
      000000A8H   SFRSYM    DATA     BYTE      IEN0
      000000BDH   SFRSYM    DATA     BYTE      P2MDOUT
      000000B8H   SFRSYM    DATA     BYTE      IEN1
      000000BEH   SFRSYM    DATA     BYTE      P3MDOUT
      0000009AH   SFRSYM    DATA     BYTE      IEN2
      000000F8H.4 SFRSYM    DATA     BIT       APP_ACK
      000000F4H   SFRSYM    DATA     BYTE      ADR_INC
      000000B8H.1 SFRSYM    DATA     BIT       ECAN
      000000D0H.7 SFRSYM    DATA     BIT       CY
      000000B8H.3 SFRSYM    DATA     BIT       ES4R
      000000B8H.5 SFRSYM    DATA     BIT       ES5R
      000000B8H.2 SFRSYM    DATA     BIT       ES4T
      000000B8H.4 SFRSYM    DATA     BIT       ES5T
      000000B0H.3 SFRSYM    DATA     BIT       RTC_SDA
      00000081H   SFRSYM    DATA     BYTE      SP
      000000D0H.2 SFRSYM    DATA     BIT       OV
      00000095H   SFRSYM    DATA     BYTE      D_PAGESEL
      000000F8H.7 SFRSYM    DATA     BIT       APP_REQ
      000000B0H.2 SFRSYM    DATA     BIT       RTC_SCL
      000000BFH   SFRSYM    DATA     BYTE      IRCON2
      00000087H   SFRSYM    DATA     BYTE      PCON
      000000BAH   SFRSYM    DATA     BYTE      SREL2H
      000000BBH   SFRSYM    DATA     BYTE      SREL3H
      000000F9H   SFRSYM    DATA     BYTE      PORTDRV
      00000089H   SFRSYM    DATA     BYTE      TMOD
      00000088H   SFRSYM    DATA     BYTE      TCON
      000000AAH   SFRSYM    DATA     BYTE      SREL2L
      0000009DH   SFRSYM    DATA     BYTE      SREL3L
      000000FFH   SFRSYM    DATA     BYTE      EXDATA
      00000097H   SFRSYM    DATA     BYTE      SCON4R
      000000ABH   SFRSYM    DATA     BYTE      SCON5R
      000000D9H   SFRSYM    DATA     BYTE      BODE4_DIV_H
      000000AEH   SFRSYM    DATA     BYTE      BODE5_DIV_H
      00000096H   SFRSYM    DATA     BYTE      SCON4T
      000000A7H   SFRSYM    DATA     BYTE      SCON5T
      00000088H.1 SFRSYM    DATA     BIT       IE0
      00000088H.3 SFRSYM    DATA     BIT       IE1
      000000C9H   SFRSYM    DATA     BYTE      MUX_SEL
      000000E7H   SFRSYM    DATA     BYTE      BODE4_DIV_L
      000000AFH   SFRSYM    DATA     BYTE      BODE5_DIV_L
      000000F0H   SFRSYM    DATA     BYTE      B
      000000E0H   SFRSYM    DATA     BYTE      ACC
      0000008FH   SFRSYM    DATA     BYTE      CAN_CR
      000000A9H   SFRSYM    DATA     BYTE      IP0
      000000A8H.1 SFRSYM    DATA     BIT       ET0
      000000B9H   SFRSYM    DATA     BYTE      IP1
      000000A8H.3 SFRSYM    DATA     BIT       ET1
      000000A8H.4 SFRSYM    DATA     BIT       ES2
      00000088H.5 SFRSYM    DATA     BIT       TF0
      000000FDH   SFRSYM    DATA     BYTE      DATA0
      000000A8H.5 SFRSYM    DATA     BIT       ET2
      00000088H.7 SFRSYM    DATA     BIT       TF1
      000000E8H   SFRSYM    DATA     BYTE      CAN_ET
      000000FCH   SFRSYM    DATA     BYTE      DATA1
      000000C0H.6 SFRSYM    DATA     BIT       TF2
      0000008CH   SFRSYM    DATA     BYTE      TH0
      000000FBH   SFRSYM    DATA     BYTE      DATA2
      000000A8H.0 SFRSYM    DATA     BIT       EX0
      00000098H.0 SFRSYM    DATA     BIT       RI2
      0000008DH   SFRSYM    DATA     BYTE      TH1
      00000088H.0 SFRSYM    DATA     BIT       IT0
LX51 LINKER/LOCATER V4.66.97.0                                                        09/27/2023  17:05:17  PAGE 133


      00000091H   SFRSYM    DATA     BYTE      CAN_IR
      000000FAH   SFRSYM    DATA     BYTE      DATA3
      000000CDH   SFRSYM    DATA     BYTE      TH2
      000000A8H.2 SFRSYM    DATA     BIT       EX1
      00000088H.2 SFRSYM    DATA     BIT       IT1
      000000D0H.0 SFRSYM    DATA     BIT       P
      00000098H.1 SFRSYM    DATA     BIT       TI2
      0000008AH   SFRSYM    DATA     BYTE      TL0
      0000008BH   SFRSYM    DATA     BYTE      TL1
      000000CCH   SFRSYM    DATA     BYTE      TL2
      000000F8H.6 SFRSYM    DATA     BIT       APP_EN
      000000D0H.3 SFRSYM    DATA     BIT       RS0
      000000D0H.4 SFRSYM    DATA     BIT       RS1
      00000088H.4 SFRSYM    DATA     BIT       TR0
      00000093H   SFRSYM    DATA     BYTE      DPC
      00000088H.6 SFRSYM    DATA     BIT       TR1
      000000E5H   SFRSYM    DATA     BYTE      MAC_MODE
      000000C8H.0 SFRSYM    DATA     BIT       TR2
      00000080H.0 SFRSYM    DATA     BIT       TR4
      00000080H.1 SFRSYM    DATA     BIT       TR5
      000000A0H.7 SFRSYM    DATA     BIT       Green_LED2
      00000083H   SFRSYM    DATA     BYTE      DPH
      00000082H   SFRSYM    DATA     BYTE      DPL
      00000099H   SFRSYM    DATA     BYTE      SBUF2
      0000009CH   SFRSYM    DATA     BYTE      SBUF3
      000000D8H   SFRSYM    DATA     BYTE      ADCON
      00000098H   SFRSYM    DATA     BYTE      SCON2
      000000C8H   SFRSYM    DATA     BYTE      T2CON
      0000009BH   SFRSYM    DATA     BYTE      SCON3
      000000E6H   SFRSYM    DATA     BYTE      DIV_MODE
      000000F8H.5 SFRSYM    DATA     BIT       APP_RW
      000000CBH   SFRSYM    DATA     BYTE      TRL2H
      0000008EH   SFRSYM    DATA     BYTE      CKCON
      0000009FH   SFRSYM    DATA     BYTE      SBUF4_RX
      000000ADH   SFRSYM    DATA     BYTE      SBUF5_RX
      000000CAH   SFRSYM    DATA     BYTE      TRL2L
      0000009EH   SFRSYM    DATA     BYTE      SBUF4_TX
      000000ACH   SFRSYM    DATA     BYTE      SBUF5_TX
      000000FEH   SFRSYM    DATA     BYTE      EXADR
      000000D0H.5 SFRSYM    DATA     BIT       F0
      000000D0H.1 SFRSYM    DATA     BIT       F1
      000000D0H   SFRSYM    DATA     BYTE      PSW
      000000C0H   SFRSYM    DATA     BYTE      IRCON

      0100D3C5H   BLOCK     CODE     ---       LVL=0
      0200C85BH   SYMBOL    XDATA    BYTE      add
      0200C85CH   SYMBOL    XDATA    ---       dat
      0200C85FH   SYMBOL    XDATA    ---       datalen
      0100D3C5H   LINE      CODE     ---       #15
      ---         BLOCKEND  ---      ---       LVL=0

      0100D3CEH   BLOCK     CODE     ---       LVL=0
      0200C85BH   SYMBOL    XDATA    BYTE      add
      0200C85CH   SYMBOL    XDATA    ---       dat
      0200C85FH   SYMBOL    XDATA    ---       datalen
      0100D3CEH   LINE      CODE     ---       #19
      ---         BLOCKEND  ---      ---       LVL=0

      0100AEB6H   BLOCK     CODE     ---       LVL=0
      0200C85BH   SYMBOL    XDATA    BYTE      add
      0200C85CH   SYMBOL    XDATA    ---       dat
      0200C85FH   SYMBOL    XDATA    ---       datalen
      0100AEB6H   LINE      CODE     ---       #23
      0100AEBFH   LINE      CODE     ---       #24
      0100AEBFH   LINE      CODE     ---       #26
LX51 LINKER/LOCATER V4.66.97.0                                                        09/27/2023  17:05:17  PAGE 134


      0100AECEH   LINE      CODE     ---       #27
      0100AECEH   LINE      CODE     ---       #29
      0100AF18H   LINE      CODE     ---       #34
      0100AF18H   LINE      CODE     ---       #36
      0100AF20H   LINE      CODE     ---       #41
      ---         BLOCKEND  ---      ---       LVL=0

      0100D3D7H   BLOCK     CODE     ---       LVL=0
      0200C85BH   SYMBOL    XDATA    BYTE      add
      0200C85CH   SYMBOL    XDATA    ---       dat
      0200C85FH   SYMBOL    XDATA    ---       datalen
      0100D3D7H   LINE      CODE     ---       #42
      ---         BLOCKEND  ---      ---       LVL=0

      0100D3E0H   BLOCK     CODE     ---       LVL=0
      0200C85BH   SYMBOL    XDATA    BYTE      add
      0200C85CH   SYMBOL    XDATA    ---       dat
      0200C85FH   SYMBOL    XDATA    ---       datalen
      0100D3E0H   LINE      CODE     ---       #46
      ---         BLOCKEND  ---      ---       LVL=0

      0100D3E9H   BLOCK     CODE     ---       LVL=0
      0200C85BH   SYMBOL    XDATA    BYTE      add
      0200C85CH   SYMBOL    XDATA    ---       dat
      0200C85FH   SYMBOL    XDATA    ---       datalen
      0100D3E9H   LINE      CODE     ---       #50
      ---         BLOCKEND  ---      ---       LVL=0

      0100D3F2H   BLOCK     CODE     ---       LVL=0
      0200C85BH   SYMBOL    XDATA    BYTE      add
      0200C85CH   SYMBOL    XDATA    ---       dat
      0200C85FH   SYMBOL    XDATA    ---       datalen
      0100D3F2H   LINE      CODE     ---       #54
      ---         BLOCKEND  ---      ---       LVL=0

      0100D3FBH   BLOCK     CODE     ---       LVL=0
      0200C85BH   SYMBOL    XDATA    BYTE      add
      0200C85CH   SYMBOL    XDATA    ---       dat
      0200C85FH   SYMBOL    XDATA    ---       datalen
      0100D3FBH   LINE      CODE     ---       #58
      ---         BLOCKEND  ---      ---       LVL=0

      0100D2ADH   BLOCK     CODE     ---       LVL=0
      0200C853H   SYMBOL    XDATA    BYTE      add
      0200C854H   SYMBOL    XDATA    BYTE      cmd
      0100D2ADH   LINE      CODE     ---       #64
      0100D2B5H   LINE      CODE     ---       #65
      0100D2B5H   LINE      CODE     ---       #66
      0100D2BAH   LINE      CODE     ---       #67
      0100D2C0H   LINE      CODE     ---       #68
      ---         BLOCKEND  ---      ---       LVL=0

      0100D242H   BLOCK     CODE     ---       LVL=0
      0100D242H   LINE      CODE     ---       #69
      0100D242H   LINE      CODE     ---       #70
      0100D242H   LINE      CODE     ---       #71
      0100D258H   LINE      CODE     ---       #72
      ---         BLOCKEND  ---      ---       LVL=0

      ---         MODULE    ---      ---       MB_HOST
      0200B7BBH   PUBLIC    XDATA    ---       mbHost
      0200B7BAH   PUBLIC    XDATA    BYTE      mbhRecTimeout
      0100AC1FH   PUBLIC    CODE     ---       mbh_uartTxIsr
      0100C1C0H   PUBLIC    CODE     ---       mbh_uartRxIsr
      0100CAE3H   PUBLIC    CODE     ---       mbh_timer3T5Isr
LX51 LINKER/LOCATER V4.66.97.0                                                        09/27/2023  17:05:17  PAGE 135


      0100859AH   PUBLIC    CODE     ---       mbh_poll
      0200C853H   PUBLIC    XDATA    BYTE      ?_mbh_exec?BYTE
      01007FADH   PUBLIC    CODE     ---       _mbh_exec
      0200C8C6H   PUBLIC    XDATA    BYTE      ?_mbh_send?BYTE
      0100A538H   PUBLIC    CODE     ---       _mbh_send
      0100D453H   PUBLIC    CODE     ---       mbh_getState
      0200C853H   PUBLIC    XDATA    BYTE      ?_mbh_init?BYTE
      0100CFF2H   PUBLIC    CODE     ---       _mbh_init
      000000F1H   SFRSYM    DATA     BYTE      ADR_H
      00000080H   SFRSYM    DATA     BYTE      P0
      00000090H   SFRSYM    DATA     BYTE      P1
      000000A0H   SFRSYM    DATA     BYTE      P2
      000000B0H   SFRSYM    DATA     BYTE      P3
      000000F3H   SFRSYM    DATA     BYTE      ADR_L
      000000D0H.6 SFRSYM    DATA     BIT       AC
      000000A0H.6 SFRSYM    DATA     BIT       Red_LED1
      00000094H   SFRSYM    DATA     BYTE      PAGESEL
      000000F2H   SFRSYM    DATA     BYTE      ADR_M
      000000A8H.7 SFRSYM    DATA     BIT       EA
      000000F8H   SFRSYM    DATA     BYTE      RAMMODE
      000000B7H   SFRSYM    DATA     BYTE      P0MDOUT
      000000BCH   SFRSYM    DATA     BYTE      P1MDOUT
      000000A8H   SFRSYM    DATA     BYTE      IEN0
      000000BDH   SFRSYM    DATA     BYTE      P2MDOUT
      000000B8H   SFRSYM    DATA     BYTE      IEN1
      000000BEH   SFRSYM    DATA     BYTE      P3MDOUT
      0000009AH   SFRSYM    DATA     BYTE      IEN2
      000000F8H.4 SFRSYM    DATA     BIT       APP_ACK
      000000F4H   SFRSYM    DATA     BYTE      ADR_INC
      000000B8H.1 SFRSYM    DATA     BIT       ECAN
      000000D0H.7 SFRSYM    DATA     BIT       CY
      000000B8H.3 SFRSYM    DATA     BIT       ES4R
      000000B8H.5 SFRSYM    DATA     BIT       ES5R
      000000B8H.2 SFRSYM    DATA     BIT       ES4T
      000000B8H.4 SFRSYM    DATA     BIT       ES5T
      000000B0H.3 SFRSYM    DATA     BIT       RTC_SDA
      00000081H   SFRSYM    DATA     BYTE      SP
      000000D0H.2 SFRSYM    DATA     BIT       OV
      00000095H   SFRSYM    DATA     BYTE      D_PAGESEL
      000000F8H.7 SFRSYM    DATA     BIT       APP_REQ
      000000B0H.2 SFRSYM    DATA     BIT       RTC_SCL
      000000BFH   SFRSYM    DATA     BYTE      IRCON2
      00000087H   SFRSYM    DATA     BYTE      PCON
      000000BAH   SFRSYM    DATA     BYTE      SREL2H
      000000BBH   SFRSYM    DATA     BYTE      SREL3H
      000000F9H   SFRSYM    DATA     BYTE      PORTDRV
      00000089H   SFRSYM    DATA     BYTE      TMOD
      00000088H   SFRSYM    DATA     BYTE      TCON
      000000AAH   SFRSYM    DATA     BYTE      SREL2L
      0000009DH   SFRSYM    DATA     BYTE      SREL3L
      000000FFH   SFRSYM    DATA     BYTE      EXDATA
      00000097H   SFRSYM    DATA     BYTE      SCON4R
      000000ABH   SFRSYM    DATA     BYTE      SCON5R
      000000D9H   SFRSYM    DATA     BYTE      BODE4_DIV_H
      000000AEH   SFRSYM    DATA     BYTE      BODE5_DIV_H
      00000096H   SFRSYM    DATA     BYTE      SCON4T
      000000A7H   SFRSYM    DATA     BYTE      SCON5T
      00000088H.1 SFRSYM    DATA     BIT       IE0
      00000088H.3 SFRSYM    DATA     BIT       IE1
      000000C9H   SFRSYM    DATA     BYTE      MUX_SEL
      000000E7H   SFRSYM    DATA     BYTE      BODE4_DIV_L
      000000AFH   SFRSYM    DATA     BYTE      BODE5_DIV_L
      000000F0H   SFRSYM    DATA     BYTE      B
      000000E0H   SFRSYM    DATA     BYTE      ACC
      0000008FH   SFRSYM    DATA     BYTE      CAN_CR
LX51 LINKER/LOCATER V4.66.97.0                                                        09/27/2023  17:05:17  PAGE 136


      000000A9H   SFRSYM    DATA     BYTE      IP0
      000000A8H.1 SFRSYM    DATA     BIT       ET0
      000000B9H   SFRSYM    DATA     BYTE      IP1
      000000A8H.3 SFRSYM    DATA     BIT       ET1
      000000A8H.4 SFRSYM    DATA     BIT       ES2
      00000088H.5 SFRSYM    DATA     BIT       TF0
      000000FDH   SFRSYM    DATA     BYTE      DATA0
      000000A8H.5 SFRSYM    DATA     BIT       ET2
      00000088H.7 SFRSYM    DATA     BIT       TF1
      000000E8H   SFRSYM    DATA     BYTE      CAN_ET
      000000FCH   SFRSYM    DATA     BYTE      DATA1
      000000C0H.6 SFRSYM    DATA     BIT       TF2
      0000008CH   SFRSYM    DATA     BYTE      TH0
      000000FBH   SFRSYM    DATA     BYTE      DATA2
      000000A8H.0 SFRSYM    DATA     BIT       EX0
      00000098H.0 SFRSYM    DATA     BIT       RI2
      0000008DH   SFRSYM    DATA     BYTE      TH1
      00000088H.0 SFRSYM    DATA     BIT       IT0
      00000091H   SFRSYM    DATA     BYTE      CAN_IR
      000000FAH   SFRSYM    DATA     BYTE      DATA3
      000000CDH   SFRSYM    DATA     BYTE      TH2
      000000A8H.2 SFRSYM    DATA     BIT       EX1
      00000088H.2 SFRSYM    DATA     BIT       IT1
      000000D0H.0 SFRSYM    DATA     BIT       P
      00000098H.1 SFRSYM    DATA     BIT       TI2
      0000008AH   SFRSYM    DATA     BYTE      TL0
      0000008BH   SFRSYM    DATA     BYTE      TL1
      000000CCH   SFRSYM    DATA     BYTE      TL2
      000000F8H.6 SFRSYM    DATA     BIT       APP_EN
      000000D0H.3 SFRSYM    DATA     BIT       RS0
      000000D0H.4 SFRSYM    DATA     BIT       RS1
      00000088H.4 SFRSYM    DATA     BIT       TR0
      00000093H   SFRSYM    DATA     BYTE      DPC
      00000088H.6 SFRSYM    DATA     BIT       TR1
      000000E5H   SFRSYM    DATA     BYTE      MAC_MODE
      000000C8H.0 SFRSYM    DATA     BIT       TR2
      00000080H.0 SFRSYM    DATA     BIT       TR4
      00000080H.1 SFRSYM    DATA     BIT       TR5
      000000A0H.7 SFRSYM    DATA     BIT       Green_LED2
      00000083H   SFRSYM    DATA     BYTE      DPH
      00000082H   SFRSYM    DATA     BYTE      DPL
      00000099H   SFRSYM    DATA     BYTE      SBUF2
      0000009CH   SFRSYM    DATA     BYTE      SBUF3
      000000D8H   SFRSYM    DATA     BYTE      ADCON
      00000098H   SFRSYM    DATA     BYTE      SCON2
      000000C8H   SFRSYM    DATA     BYTE      T2CON
      0000009BH   SFRSYM    DATA     BYTE      SCON3
      000000E6H   SFRSYM    DATA     BYTE      DIV_MODE
      000000F8H.5 SFRSYM    DATA     BIT       APP_RW
      000000CBH   SFRSYM    DATA     BYTE      TRL2H
      0000008EH   SFRSYM    DATA     BYTE      CKCON
      0000009FH   SFRSYM    DATA     BYTE      SBUF4_RX
      000000ADH   SFRSYM    DATA     BYTE      SBUF5_RX
      000000CAH   SFRSYM    DATA     BYTE      TRL2L
      0000009EH   SFRSYM    DATA     BYTE      SBUF4_TX
      000000ACH   SFRSYM    DATA     BYTE      SBUF5_TX
      000000FEH   SFRSYM    DATA     BYTE      EXADR
      000000D0H.5 SFRSYM    DATA     BIT       F0
      000000D0H.1 SFRSYM    DATA     BIT       F1
      000000D0H   SFRSYM    DATA     BYTE      PSW
      000000C0H   SFRSYM    DATA     BYTE      IRCON

      0100A035H   BLOCK     CODE     ---       LVL=0
      ---         BLOCKEND  ---      ---       LVL=0

LX51 LINKER/LOCATER V4.66.97.0                                                        09/27/2023  17:05:17  PAGE 137


      0100CFF2H   BLOCK     CODE     ---       LVL=0
      0200C853H   SYMBOL    XDATA    DWORD     baud
      0200C857H   SYMBOL    XDATA    BYTE      parity
      0100CFF2H   LINE      CODE     ---       #19
      0100CFF8H   LINE      CODE     ---       #20
      0100CFF8H   LINE      CODE     ---       #21
      0100D009H   LINE      CODE     ---       #22
      ---         BLOCKEND  ---      ---       LVL=0

      0100D453H   BLOCK     CODE     ---       LVL=0
      0100D453H   LINE      CODE     ---       #24
      0100D453H   LINE      CODE     ---       #25
      0100D453H   LINE      CODE     ---       #26
      0100D458H   LINE      CODE     ---       #27
      ---         BLOCKEND  ---      ---       LVL=0

      0100A538H   BLOCK     CODE     ---       LVL=0
      00000007H   SYMBOL    DATA     BYTE      add
      00000005H   SYMBOL    DATA     BYTE      cmd
      0200C8C8H   SYMBOL    XDATA    ---       dat
      0200C8CBH   SYMBOL    XDATA    WORD      data_len
      0100A53EH   BLOCK     CODE     NEAR LAB  LVL=1
      00000002H   SYMBOL    DATA     WORD      crc
      ---         BLOCKEND  ---      ---       LVL=1
      0100A538H   LINE      CODE     ---       #30
      0100A53EH   LINE      CODE     ---       #31
      0100A53EH   LINE      CODE     ---       #32
      0100A53EH   LINE      CODE     ---       #36
      0100A53EH   LINE      CODE     ---       #37
      0100A541H   LINE      CODE     ---       #38
      0100A545H   LINE      CODE     ---       #39
      0100A54AH   LINE      CODE     ---       #40
      0100A54DH   LINE      CODE     ---       #41
      0100A564H   LINE      CODE     ---       #42
      0100A579H   LINE      CODE     ---       #43
      0100A58AH   LINE      CODE     ---       #44
      0100A59FH   LINE      CODE     ---       #45
      0100A5A7H   LINE      CODE     ---       #46
      0100A5B1H   LINE      CODE     ---       #48
      0100A5B7H   LINE      CODE     ---       #49
      0100A5BEH   LINE      CODE     ---       #54
      0100A5C0H   LINE      CODE     ---       #55
      ---         BLOCKEND  ---      ---       LVL=0

      01007FADH   BLOCK     CODE     ---       LVL=0
      0200C853H   SYMBOL    XDATA    ---       pframe
      0200C856H   SYMBOL    XDATA    ---       len
      01007FB3H   BLOCK     CODE     NEAR LAB  LVL=1
      0200C859H   SYMBOL    XDATA    WORD      datalen
      ---         BLOCKEND  ---      ---       LVL=1
      01007FADH   LINE      CODE     ---       #57
      01007FB3H   LINE      CODE     ---       #58
      01007FB3H   LINE      CODE     ---       #59
      01007FCAH   LINE      CODE     ---       #60
      01007FF5H   LINE      CODE     ---       #61
      01007FF5H   LINE      CODE     ---       #62
      01007FF5H   LINE      CODE     ---       #63
      0100800DH   LINE      CODE     ---       #64
      0100800DH   LINE      CODE     ---       #65
      0100800DH   LINE      CODE     ---       #66
      01008025H   LINE      CODE     ---       #67
      01008025H   LINE      CODE     ---       #68
      01008025H   LINE      CODE     ---       #69
      0100803DH   LINE      CODE     ---       #70
      0100803DH   LINE      CODE     ---       #71
LX51 LINKER/LOCATER V4.66.97.0                                                        09/27/2023  17:05:17  PAGE 138


      0100803DH   LINE      CODE     ---       #72
      01008055H   LINE      CODE     ---       #73
      01008055H   LINE      CODE     ---       #74
      01008055H   LINE      CODE     ---       #75
      0100806DH   LINE      CODE     ---       #76
      0100806DH   LINE      CODE     ---       #77
      0100806DH   LINE      CODE     ---       #78
      01008085H   LINE      CODE     ---       #79
      01008085H   LINE      CODE     ---       #80
      01008085H   LINE      CODE     ---       #81
      0100809DH   LINE      CODE     ---       #82
      0100809DH   LINE      CODE     ---       #83
      0100809DH   LINE      CODE     ---       #84
      010080B5H   LINE      CODE     ---       #85
      010080B5H   LINE      CODE     ---       #86
      010080B5H   LINE      CODE     ---       #87
      ---         BLOCKEND  ---      ---       LVL=0

      0100859AH   BLOCK     CODE     ---       LVL=0
      0100859AH   LINE      CODE     ---       #88
      0100859AH   LINE      CODE     ---       #89
      0100859AH   LINE      CODE     ---       #91
      010085B5H   LINE      CODE     ---       #92
      010085B5H   LINE      CODE     ---       #94
      010085B5H   LINE      CODE     ---       #96
      010085C7H   LINE      CODE     ---       #97
      010085C7H   LINE      CODE     ---       #99
      010085DFH   LINE      CODE     ---       #100
      010085DFH   LINE      CODE     ---       #102
      010085E5H   LINE      CODE     ---       #103
      010085E6H   LINE      CODE     ---       #105
      010085E6H   LINE      CODE     ---       #106
      010085E6H   LINE      CODE     ---       #107
      010085E9H   LINE      CODE     ---       #109
      010085E9H   LINE      CODE     ---       #110
      010085EAH   LINE      CODE     ---       #112
      010085EAH   LINE      CODE     ---       #113
      010085F0H   LINE      CODE     ---       #114
      010085F6H   LINE      CODE     ---       #116
      010085F6H   LINE      CODE     ---       #117
      010085F8H   LINE      CODE     ---       #119
      010085F8H   LINE      CODE     ---       #127
      01008602H   LINE      CODE     ---       #128
      0100860CH   LINE      CODE     ---       #129
      0100860CH   LINE      CODE     ---       #130
      01008612H   LINE      CODE     ---       #131
      0100861CH   LINE      CODE     ---       #132
      0100861CH   LINE      CODE     ---       #133
      01008622H   LINE      CODE     ---       #134
      01008624H   LINE      CODE     ---       #136
      01008624H   LINE      CODE     ---       #137
      01008624H   LINE      CODE     ---       #138
      01008627H   LINE      CODE     ---       #139
      0100862CH   LINE      CODE     ---       #141
      01008633H   LINE      CODE     ---       #142
      01008633H   LINE      CODE     ---       #143
      0100863CH   LINE      CODE     ---       #144
      0100863CH   LINE      CODE     ---       #146
      0100863CH   LINE      CODE     ---       #148
      0100863CH   LINE      CODE     ---       #149
      01008645H   LINE      CODE     ---       #150
      01008650H   LINE      CODE     ---       #151
      01008650H   LINE      CODE     ---       #152
      01008653H   LINE      CODE     ---       #155
      01008654H   LINE      CODE     ---       #157
LX51 LINKER/LOCATER V4.66.97.0                                                        09/27/2023  17:05:17  PAGE 139


      01008654H   LINE      CODE     ---       #158
      0100865DH   LINE      CODE     ---       #159
      01008670H   LINE      CODE     ---       #160
      01008675H   LINE      CODE     ---       #161
      0100867DH   LINE      CODE     ---       #163
      0100867DH   LINE      CODE     ---       #164
      0100867DH   LINE      CODE     ---       #165
      ---         BLOCKEND  ---      ---       LVL=0

      0100CAE3H   BLOCK     CODE     ---       LVL=0
      0100CAE3H   LINE      CODE     ---       #167
      0100CAE3H   LINE      CODE     ---       #168
      0100CAE3H   LINE      CODE     ---       #169
      0100CAEEH   LINE      CODE     ---       #170
      0100CAEEH   LINE      CODE     ---       #172
      0100CAEEH   LINE      CODE     ---       #176
      0100CAF4H   LINE      CODE     ---       #178
      0100CAF7H   LINE      CODE     ---       #179
      0100CAF7H   LINE      CODE     ---       #180
      0100CAFAH   LINE      CODE     ---       #181
      0100CAFAH   LINE      CODE     ---       #182
      0100CAFDH   LINE      CODE     ---       #187
      0100CAFDH   LINE      CODE     ---       #188
      0100CAFEH   LINE      CODE     ---       #189
      0100CAFEH   LINE      CODE     ---       #190
      0100CB08H   LINE      CODE     ---       #191
      0100CB08H   LINE      CODE     ---       #192
      0100CB0EH   LINE      CODE     ---       #193
      0100CB15H   LINE      CODE     ---       #198
      0100CB15H   LINE      CODE     ---       #199
      0100CB15H   LINE      CODE     ---       #200
      0100CB15H   LINE      CODE     ---       #201
      ---         BLOCKEND  ---      ---       LVL=0

      0100C1C0H   BLOCK     CODE     ---       LVL=0
      0100C1C0H   BLOCK     CODE     NEAR LAB  LVL=1
      0200CBACH   SYMBOL    XDATA    BYTE      ch
      ---         BLOCKEND  ---      ---       LVL=1
      0100C1C0H   LINE      CODE     ---       #202
      0100C1C0H   LINE      CODE     ---       #203
      0100C1C0H   LINE      CODE     ---       #205
      0100C1C9H   LINE      CODE     ---       #206
      0100C1D4H   LINE      CODE     ---       #207
      0100C1D4H   LINE      CODE     ---       #208
      0100C1D4H   LINE      CODE     ---       #209
      0100C1D8H   LINE      CODE     ---       #210
      0100C1DBH   LINE      CODE     ---       #211
      0100C1E1H   LINE      CODE     ---       #212
      0100C1E1H   LINE      CODE     ---       #213
      0100C1E3H   LINE      CODE     ---       #214
      0100C1E3H   LINE      CODE     ---       #215
      0100C1ECH   LINE      CODE     ---       #216
      0100C1ECH   LINE      CODE     ---       #217
      0100C1EFH   LINE      CODE     ---       #218
      0100C1EFH   LINE      CODE     ---       #219
      0100C1F2H   LINE      CODE     ---       #220
      0100C1FAH   LINE      CODE     ---       #221
      0100C1FBH   LINE      CODE     ---       #222
      0100C1FBH   LINE      CODE     ---       #223
      0100C204H   LINE      CODE     ---       #224
      0100C204H   LINE      CODE     ---       #225
      0100C207H   LINE      CODE     ---       #226
      0100C207H   LINE      CODE     ---       #227
      0100C20AH   LINE      CODE     ---       #228
      0100C20AH   LINE      CODE     ---       #229
LX51 LINKER/LOCATER V4.66.97.0                                                        09/27/2023  17:05:17  PAGE 140


      0100C20AH   LINE      CODE     ---       #230
      ---         BLOCKEND  ---      ---       LVL=0

      0100AC1FH   BLOCK     CODE     ---       LVL=0
      0100AC1FH   LINE      CODE     ---       #231
      0100AC1FH   LINE      CODE     ---       #232
      0100AC1FH   LINE      CODE     ---       #233
      0100AC2AH   LINE      CODE     ---       #234
      0100AC2AH   LINE      CODE     ---       #235
      0100AC2AH   LINE      CODE     ---       #236
      0100AC3CH   LINE      CODE     ---       #237
      0100AC3CH   LINE      CODE     ---       #238
      0100AC42H   LINE      CODE     ---       #239
      0100AC49H   LINE      CODE     ---       #240
      0100AC4EH   LINE      CODE     ---       #241
      0100AC51H   LINE      CODE     ---       #242
      0100AC54H   LINE      CODE     ---       #243
      0100AC54H   LINE      CODE     ---       #245
      0100AC54H   LINE      CODE     ---       #246
      0100AC5EH   LINE      CODE     ---       #247
      0100AC5EH   LINE      CODE     ---       #248
      0100AC68H   LINE      CODE     ---       #249
      0100AC68H   LINE      CODE     ---       #250
      0100AC6CH   LINE      CODE     ---       #251
      0100AC74H   LINE      CODE     ---       #252
      0100AC74H   LINE      CODE     ---       #253
      0100AC8AH   LINE      CODE     ---       #254
      0100AC8AH   LINE      CODE     ---       #255
      0100AC8AH   LINE      CODE     ---       #257
      0100AC8AH   LINE      CODE     ---       #258
      0100AC8AH   LINE      CODE     ---       #261
      0100AC91H   LINE      CODE     ---       #262
      0100AC91H   LINE      CODE     ---       #263
      0100AC91H   LINE      CODE     ---       #264
      ---         BLOCKEND  ---      ---       LVL=0

      ---         MODULE    ---      ---       MB_PORT
      0100005AH   PUBLIC    CODE     ---       mb_port_timerEnable
      0100B127H   PUBLIC    CODE     ---       _mb_port_timerInit
      01000026H   PUBLIC    CODE     ---       _mb_port_getchar
      0100D39CH   PUBLIC    CODE     ---       _mb_port_putchar
      0100D46BH   PUBLIC    CODE     ---       mb_set_send_state
      01000066H   PUBLIC    CODE     ---       mb_set_receive_state
      0100D404H   PUBLIC    CODE     ---       _mb_port_uartEnable
      0200C858H   PUBLIC    XDATA    BYTE      ?_mb_port_uartInit?BYTE
      0100D459H   PUBLIC    CODE     ---       _mb_port_uartInit
      000000F1H   SFRSYM    DATA     BYTE      ADR_H
      00000080H   SFRSYM    DATA     BYTE      P0
      00000090H   SFRSYM    DATA     BYTE      P1
      000000A0H   SFRSYM    DATA     BYTE      P2
      000000B0H   SFRSYM    DATA     BYTE      P3
      000000F3H   SFRSYM    DATA     BYTE      ADR_L
      000000D0H.6 SFRSYM    DATA     BIT       AC
      000000A0H.6 SFRSYM    DATA     BIT       Red_LED1
      00000094H   SFRSYM    DATA     BYTE      PAGESEL
      000000F2H   SFRSYM    DATA     BYTE      ADR_M
      000000A8H.7 SFRSYM    DATA     BIT       EA
      000000F8H   SFRSYM    DATA     BYTE      RAMMODE
      000000B7H   SFRSYM    DATA     BYTE      P0MDOUT
      000000BCH   SFRSYM    DATA     BYTE      P1MDOUT
      000000A8H   SFRSYM    DATA     BYTE      IEN0
      000000BDH   SFRSYM    DATA     BYTE      P2MDOUT
      000000B8H   SFRSYM    DATA     BYTE      IEN1
      000000BEH   SFRSYM    DATA     BYTE      P3MDOUT
      0000009AH   SFRSYM    DATA     BYTE      IEN2
LX51 LINKER/LOCATER V4.66.97.0                                                        09/27/2023  17:05:17  PAGE 141


      000000F8H.4 SFRSYM    DATA     BIT       APP_ACK
      000000F4H   SFRSYM    DATA     BYTE      ADR_INC
      000000B8H.1 SFRSYM    DATA     BIT       ECAN
      000000D0H.7 SFRSYM    DATA     BIT       CY
      000000B8H.3 SFRSYM    DATA     BIT       ES4R
      000000B8H.5 SFRSYM    DATA     BIT       ES5R
      000000B8H.2 SFRSYM    DATA     BIT       ES4T
      000000B8H.4 SFRSYM    DATA     BIT       ES5T
      000000B0H.3 SFRSYM    DATA     BIT       RTC_SDA
      00000081H   SFRSYM    DATA     BYTE      SP
      000000D0H.2 SFRSYM    DATA     BIT       OV
      00000095H   SFRSYM    DATA     BYTE      D_PAGESEL
      000000F8H.7 SFRSYM    DATA     BIT       APP_REQ
      000000B0H.2 SFRSYM    DATA     BIT       RTC_SCL
      000000BFH   SFRSYM    DATA     BYTE      IRCON2
      00000087H   SFRSYM    DATA     BYTE      PCON
      000000BAH   SFRSYM    DATA     BYTE      SREL2H
      000000BBH   SFRSYM    DATA     BYTE      SREL3H
      000000F9H   SFRSYM    DATA     BYTE      PORTDRV
      00000089H   SFRSYM    DATA     BYTE      TMOD
      00000088H   SFRSYM    DATA     BYTE      TCON
      000000AAH   SFRSYM    DATA     BYTE      SREL2L
      0000009DH   SFRSYM    DATA     BYTE      SREL3L
      000000FFH   SFRSYM    DATA     BYTE      EXDATA
      00000097H   SFRSYM    DATA     BYTE      SCON4R
      000000ABH   SFRSYM    DATA     BYTE      SCON5R
      000000D9H   SFRSYM    DATA     BYTE      BODE4_DIV_H
      000000AEH   SFRSYM    DATA     BYTE      BODE5_DIV_H
      00000096H   SFRSYM    DATA     BYTE      SCON4T
      000000A7H   SFRSYM    DATA     BYTE      SCON5T
      00000088H.1 SFRSYM    DATA     BIT       IE0
      00000088H.3 SFRSYM    DATA     BIT       IE1
      000000C9H   SFRSYM    DATA     BYTE      MUX_SEL
      000000E7H   SFRSYM    DATA     BYTE      BODE4_DIV_L
      000000AFH   SFRSYM    DATA     BYTE      BODE5_DIV_L
      000000F0H   SFRSYM    DATA     BYTE      B
      000000E0H   SFRSYM    DATA     BYTE      ACC
      0000008FH   SFRSYM    DATA     BYTE      CAN_CR
      000000A9H   SFRSYM    DATA     BYTE      IP0
      000000A8H.1 SFRSYM    DATA     BIT       ET0
      000000B9H   SFRSYM    DATA     BYTE      IP1
      000000A8H.3 SFRSYM    DATA     BIT       ET1
      000000A8H.4 SFRSYM    DATA     BIT       ES2
      00000088H.5 SFRSYM    DATA     BIT       TF0
      000000FDH   SFRSYM    DATA     BYTE      DATA0
      000000A8H.5 SFRSYM    DATA     BIT       ET2
      00000088H.7 SFRSYM    DATA     BIT       TF1
      000000E8H   SFRSYM    DATA     BYTE      CAN_ET
      000000FCH   SFRSYM    DATA     BYTE      DATA1
      000000C0H.6 SFRSYM    DATA     BIT       TF2
      0000008CH   SFRSYM    DATA     BYTE      TH0
      000000FBH   SFRSYM    DATA     BYTE      DATA2
      000000A8H.0 SFRSYM    DATA     BIT       EX0
      00000098H.0 SFRSYM    DATA     BIT       RI2
      0000008DH   SFRSYM    DATA     BYTE      TH1
      00000088H.0 SFRSYM    DATA     BIT       IT0
      00000091H   SFRSYM    DATA     BYTE      CAN_IR
      000000FAH   SFRSYM    DATA     BYTE      DATA3
      000000CDH   SFRSYM    DATA     BYTE      TH2
      000000A8H.2 SFRSYM    DATA     BIT       EX1
      00000088H.2 SFRSYM    DATA     BIT       IT1
      000000D0H.0 SFRSYM    DATA     BIT       P
      00000098H.1 SFRSYM    DATA     BIT       TI2
      0000008AH   SFRSYM    DATA     BYTE      TL0
      0000008BH   SFRSYM    DATA     BYTE      TL1
LX51 LINKER/LOCATER V4.66.97.0                                                        09/27/2023  17:05:17  PAGE 142


      000000CCH   SFRSYM    DATA     BYTE      TL2
      000000F8H.6 SFRSYM    DATA     BIT       APP_EN
      000000D0H.3 SFRSYM    DATA     BIT       RS0
      000000D0H.4 SFRSYM    DATA     BIT       RS1
      00000088H.4 SFRSYM    DATA     BIT       TR0
      00000093H   SFRSYM    DATA     BYTE      DPC
      00000088H.6 SFRSYM    DATA     BIT       TR1
      000000E5H   SFRSYM    DATA     BYTE      MAC_MODE
      000000C8H.0 SFRSYM    DATA     BIT       TR2
      00000080H.0 SFRSYM    DATA     BIT       TR4
      00000080H.1 SFRSYM    DATA     BIT       TR5
      000000A0H.7 SFRSYM    DATA     BIT       Green_LED2
      00000083H   SFRSYM    DATA     BYTE      DPH
      00000082H   SFRSYM    DATA     BYTE      DPL
      00000099H   SFRSYM    DATA     BYTE      SBUF2
      0000009CH   SFRSYM    DATA     BYTE      SBUF3
      000000D8H   SFRSYM    DATA     BYTE      ADCON
      00000098H   SFRSYM    DATA     BYTE      SCON2
      000000C8H   SFRSYM    DATA     BYTE      T2CON
      0000009BH   SFRSYM    DATA     BYTE      SCON3
      000000E6H   SFRSYM    DATA     BYTE      DIV_MODE
      000000F8H.5 SFRSYM    DATA     BIT       APP_RW
      000000CBH   SFRSYM    DATA     BYTE      TRL2H
      0000008EH   SFRSYM    DATA     BYTE      CKCON
      0000009FH   SFRSYM    DATA     BYTE      SBUF4_RX
      000000ADH   SFRSYM    DATA     BYTE      SBUF5_RX
      000000CAH   SFRSYM    DATA     BYTE      TRL2L
      0000009EH   SFRSYM    DATA     BYTE      SBUF4_TX
      000000ACH   SFRSYM    DATA     BYTE      SBUF5_TX
      000000FEH   SFRSYM    DATA     BYTE      EXADR
      000000D0H.5 SFRSYM    DATA     BIT       F0
      000000D0H.1 SFRSYM    DATA     BIT       F1
      000000D0H   SFRSYM    DATA     BYTE      PSW
      000000C0H   SFRSYM    DATA     BYTE      IRCON

      0100D385H   BLOCK     CODE     ---       LVL=0
      ---         BLOCKEND  ---      ---       LVL=0

      0100D459H   BLOCK     CODE     ---       LVL=0
      0200C858H   SYMBOL    XDATA    DWORD     baud
      0200C85CH   SYMBOL    XDATA    BYTE      parity
      0100D459H   LINE      CODE     ---       #17
      ---         BLOCKEND  ---      ---       LVL=0

      0100D404H   BLOCK     CODE     ---       LVL=0
      0200C8CDH   SYMBOL    XDATA    BYTE      txen
      0200C8CEH   SYMBOL    XDATA    BYTE      rxen
      0100D404H   LINE      CODE     ---       #22
      0100D40CH   LINE      CODE     ---       #23
      0100D40CH   LINE      CODE     ---       #24
      0100D40CH   LINE      CODE     ---       #25
      0100D40CH   LINE      CODE     ---       #27
      0100D40CH   LINE      CODE     ---       #29
      0100D40CH   LINE      CODE     ---       #31
      0100D40CH   LINE      CODE     ---       #33
      0100D40CH   LINE      CODE     ---       #34
      0100D40CH   LINE      CODE     ---       #36
      0100D40CH   LINE      CODE     ---       #38
      0100D40CH   LINE      CODE     ---       #40
      0100D40CH   LINE      CODE     ---       #41
      ---         BLOCKEND  ---      ---       LVL=0

      01000066H   BLOCK     CODE     ---       LVL=0
      01000066H   LINE      CODE     ---       #42
      01000066H   LINE      CODE     ---       #43
LX51 LINKER/LOCATER V4.66.97.0                                                        09/27/2023  17:05:17  PAGE 143


      01000066H   LINE      CODE     ---       #44
      01000068H   LINE      CODE     ---       #45
      ---         BLOCKEND  ---      ---       LVL=0

      0100D46BH   BLOCK     CODE     ---       LVL=0
      0100D46BH   LINE      CODE     ---       #47
      0100D46BH   LINE      CODE     ---       #48
      0100D46BH   LINE      CODE     ---       #49
      0100D46DH   LINE      CODE     ---       #50
      ---         BLOCKEND  ---      ---       LVL=0

      0100D39CH   BLOCK     CODE     ---       LVL=0
      00000007H   SYMBOL    DATA     BYTE      ch
      0100D39CH   LINE      CODE     ---       #51
      0100D39CH   LINE      CODE     ---       #52
      0100D39CH   LINE      CODE     ---       #54
      0100D39FH   LINE      CODE     ---       #55
      0100D3A2H   LINE      CODE     ---       #56
      0100D3A4H   LINE      CODE     ---       #57
      0100D3A6H   LINE      CODE     ---       #60
      ---         BLOCKEND  ---      ---       LVL=0

      01000026H   BLOCK     CODE     ---       LVL=0
      00000001H   SYMBOL    DATA     ---       ch
      01000026H   LINE      CODE     ---       #62
      01000026H   LINE      CODE     ---       #63
      01000026H   LINE      CODE     ---       #64
      ---         BLOCKEND  ---      ---       LVL=0

      0100B127H   BLOCK     CODE     ---       LVL=0
      0200C858H   SYMBOL    XDATA    DWORD     baud
      0100B12DH   BLOCK     CODE     NEAR LAB  LVL=1
      0200C85CH   SYMBOL    XDATA    DWORD     j
      0200C860H   SYMBOL    XDATA    DWORD     k
      ---         BLOCKEND  ---      ---       LVL=1
      0100B127H   LINE      CODE     ---       #67
      0100B12DH   LINE      CODE     ---       #68
      0100B12DH   LINE      CODE     ---       #70
      0100B137H   LINE      CODE     ---       #71
      0100B141H   LINE      CODE     ---       #74
      0100B150H   LINE      CODE     ---       #76
      0100B161H   LINE      CODE     ---       #77
      0100B161H   LINE      CODE     ---       #78
      0100B174H   LINE      CODE     ---       #79
      0100B174H   LINE      CODE     ---       #80
      0100B183H   LINE      CODE     ---       #81
      0100B18BH   LINE      CODE     ---       #82
      ---         BLOCKEND  ---      ---       LVL=0

      0100005AH   BLOCK     CODE     ---       LVL=0
      0100005AH   LINE      CODE     ---       #84
      0100005AH   LINE      CODE     ---       #85
      0100005AH   LINE      CODE     ---       #87
      ---         BLOCKEND  ---      ---       LVL=0

      ---         MODULE    ---      ---       NOR_FLASH
      0200CFBEH   PUBLIC    XDATA    ---       norflash_cmd
      0200CB84H   PUBLIC    XDATA    BYTE      ?_norflash_read?BYTE
      0100B622H   PUBLIC    CODE     ---       _norflash_read
      0200C867H   PUBLIC    XDATA    BYTE      ?_norflash_write?BYTE
      0100BD02H   PUBLIC    CODE     ---       _norflash_write
      000000F1H   SFRSYM    DATA     BYTE      ADR_H
      00000080H   SFRSYM    DATA     BYTE      P0
      00000090H   SFRSYM    DATA     BYTE      P1
      000000A0H   SFRSYM    DATA     BYTE      P2
LX51 LINKER/LOCATER V4.66.97.0                                                        09/27/2023  17:05:17  PAGE 144


      000000B0H   SFRSYM    DATA     BYTE      P3
      000000F3H   SFRSYM    DATA     BYTE      ADR_L
      000000D0H.6 SFRSYM    DATA     BIT       AC
      000000A0H.6 SFRSYM    DATA     BIT       Red_LED1
      00000094H   SFRSYM    DATA     BYTE      PAGESEL
      000000F2H   SFRSYM    DATA     BYTE      ADR_M
      000000A8H.7 SFRSYM    DATA     BIT       EA
      000000F8H   SFRSYM    DATA     BYTE      RAMMODE
      000000B7H   SFRSYM    DATA     BYTE      P0MDOUT
      000000BCH   SFRSYM    DATA     BYTE      P1MDOUT
      000000A8H   SFRSYM    DATA     BYTE      IEN0
      000000BDH   SFRSYM    DATA     BYTE      P2MDOUT
      000000B8H   SFRSYM    DATA     BYTE      IEN1
      000000BEH   SFRSYM    DATA     BYTE      P3MDOUT
      0000009AH   SFRSYM    DATA     BYTE      IEN2
      000000F8H.4 SFRSYM    DATA     BIT       APP_ACK
      000000F4H   SFRSYM    DATA     BYTE      ADR_INC
      000000B8H.1 SFRSYM    DATA     BIT       ECAN
      000000D0H.7 SFRSYM    DATA     BIT       CY
      000000B8H.3 SFRSYM    DATA     BIT       ES4R
      000000B8H.5 SFRSYM    DATA     BIT       ES5R
      000000B8H.2 SFRSYM    DATA     BIT       ES4T
      000000B8H.4 SFRSYM    DATA     BIT       ES5T
      000000B0H.3 SFRSYM    DATA     BIT       RTC_SDA
      00000081H   SFRSYM    DATA     BYTE      SP
      000000D0H.2 SFRSYM    DATA     BIT       OV
      00000095H   SFRSYM    DATA     BYTE      D_PAGESEL
      000000F8H.7 SFRSYM    DATA     BIT       APP_REQ
      000000B0H.2 SFRSYM    DATA     BIT       RTC_SCL
      000000BFH   SFRSYM    DATA     BYTE      IRCON2
      00000087H   SFRSYM    DATA     BYTE      PCON
      000000BAH   SFRSYM    DATA     BYTE      SREL2H
      000000BBH   SFRSYM    DATA     BYTE      SREL3H
      000000F9H   SFRSYM    DATA     BYTE      PORTDRV
      00000089H   SFRSYM    DATA     BYTE      TMOD
      00000088H   SFRSYM    DATA     BYTE      TCON
      000000AAH   SFRSYM    DATA     BYTE      SREL2L
      0000009DH   SFRSYM    DATA     BYTE      SREL3L
      000000FFH   SFRSYM    DATA     BYTE      EXDATA
      00000097H   SFRSYM    DATA     BYTE      SCON4R
      000000ABH   SFRSYM    DATA     BYTE      SCON5R
      000000D9H   SFRSYM    DATA     BYTE      BODE4_DIV_H
      000000AEH   SFRSYM    DATA     BYTE      BODE5_DIV_H
      00000096H   SFRSYM    DATA     BYTE      SCON4T
      000000A7H   SFRSYM    DATA     BYTE      SCON5T
      00000088H.1 SFRSYM    DATA     BIT       IE0
      00000088H.3 SFRSYM    DATA     BIT       IE1
      000000C9H   SFRSYM    DATA     BYTE      MUX_SEL
      000000E7H   SFRSYM    DATA     BYTE      BODE4_DIV_L
      000000AFH   SFRSYM    DATA     BYTE      BODE5_DIV_L
      000000F0H   SFRSYM    DATA     BYTE      B
      000000E0H   SFRSYM    DATA     BYTE      ACC
      0000008FH   SFRSYM    DATA     BYTE      CAN_CR
      000000A9H   SFRSYM    DATA     BYTE      IP0
      000000A8H.1 SFRSYM    DATA     BIT       ET0
      000000B9H   SFRSYM    DATA     BYTE      IP1
      000000A8H.3 SFRSYM    DATA     BIT       ET1
      000000A8H.4 SFRSYM    DATA     BIT       ES2
      00000088H.5 SFRSYM    DATA     BIT       TF0
      000000FDH   SFRSYM    DATA     BYTE      DATA0
      000000A8H.5 SFRSYM    DATA     BIT       ET2
      00000088H.7 SFRSYM    DATA     BIT       TF1
      000000E8H   SFRSYM    DATA     BYTE      CAN_ET
      000000FCH   SFRSYM    DATA     BYTE      DATA1
      000000C0H.6 SFRSYM    DATA     BIT       TF2
LX51 LINKER/LOCATER V4.66.97.0                                                        09/27/2023  17:05:17  PAGE 145


      0000008CH   SFRSYM    DATA     BYTE      TH0
      000000FBH   SFRSYM    DATA     BYTE      DATA2
      000000A8H.0 SFRSYM    DATA     BIT       EX0
      00000098H.0 SFRSYM    DATA     BIT       RI2
      0000008DH   SFRSYM    DATA     BYTE      TH1
      00000088H.0 SFRSYM    DATA     BIT       IT0
      00000091H   SFRSYM    DATA     BYTE      CAN_IR
      000000FAH   SFRSYM    DATA     BYTE      DATA3
      000000CDH   SFRSYM    DATA     BYTE      TH2
      000000A8H.2 SFRSYM    DATA     BIT       EX1
      00000088H.2 SFRSYM    DATA     BIT       IT1
      000000D0H.0 SFRSYM    DATA     BIT       P
      00000098H.1 SFRSYM    DATA     BIT       TI2
      0000008AH   SFRSYM    DATA     BYTE      TL0
      0000008BH   SFRSYM    DATA     BYTE      TL1
      000000CCH   SFRSYM    DATA     BYTE      TL2
      000000F8H.6 SFRSYM    DATA     BIT       APP_EN
      000000D0H.3 SFRSYM    DATA     BIT       RS0
      000000D0H.4 SFRSYM    DATA     BIT       RS1
      00000088H.4 SFRSYM    DATA     BIT       TR0
      00000093H   SFRSYM    DATA     BYTE      DPC
      00000088H.6 SFRSYM    DATA     BIT       TR1
      000000E5H   SFRSYM    DATA     BYTE      MAC_MODE
      000000C8H.0 SFRSYM    DATA     BIT       TR2
      00000080H.0 SFRSYM    DATA     BIT       TR4
      00000080H.1 SFRSYM    DATA     BIT       TR5
      000000A0H.7 SFRSYM    DATA     BIT       Green_LED2
      00000083H   SFRSYM    DATA     BYTE      DPH
      00000082H   SFRSYM    DATA     BYTE      DPL
      00000099H   SFRSYM    DATA     BYTE      SBUF2
      0000009CH   SFRSYM    DATA     BYTE      SBUF3
      000000D8H   SFRSYM    DATA     BYTE      ADCON
      00000098H   SFRSYM    DATA     BYTE      SCON2
      000000C8H   SFRSYM    DATA     BYTE      T2CON
      0000009BH   SFRSYM    DATA     BYTE      SCON3
      000000E6H   SFRSYM    DATA     BYTE      DIV_MODE
      000000F8H.5 SFRSYM    DATA     BIT       APP_RW
      000000CBH   SFRSYM    DATA     BYTE      TRL2H
      0000008EH   SFRSYM    DATA     BYTE      CKCON
      0000009FH   SFRSYM    DATA     BYTE      SBUF4_RX
      000000ADH   SFRSYM    DATA     BYTE      SBUF5_RX
      000000CAH   SFRSYM    DATA     BYTE      TRL2L
      0000009EH   SFRSYM    DATA     BYTE      SBUF4_TX
      000000ACH   SFRSYM    DATA     BYTE      SBUF5_TX
      000000FEH   SFRSYM    DATA     BYTE      EXADR
      000000D0H.5 SFRSYM    DATA     BIT       F0
      000000D0H.1 SFRSYM    DATA     BIT       F1
      000000D0H   SFRSYM    DATA     BYTE      PSW
      000000C0H   SFRSYM    DATA     BYTE      IRCON

      0100B253H   BLOCK     CODE     ---       LVL=0
      ---         BLOCKEND  ---      ---       LVL=0

      0100BD02H   BLOCK     CODE     ---       LVL=0
      0200C867H   SYMBOL    XDATA    DWORD     addr
      00000001H   SYMBOL    DATA     ---       buff
      0200C86EH   SYMBOL    XDATA    WORD      len
      0100BD02H   LINE      CODE     ---       #23
      0100BD08H   LINE      CODE     ---       #24
      0100BD08H   LINE      CODE     ---       #25
      0100BD0AH   LINE      CODE     ---       #27
      0100BD1AH   LINE      CODE     ---       #30
      0100BD20H   LINE      CODE     ---       #31
      0100BD26H   LINE      CODE     ---       #32
      0100BD2CH   LINE      CODE     ---       #33
LX51 LINKER/LOCATER V4.66.97.0                                                        09/27/2023  17:05:17  PAGE 146


      0100BD2FH   LINE      CODE     ---       #34
      0100BD2FH   LINE      CODE     ---       #35
      0100BD32H   LINE      CODE     ---       #36
      0100BD35H   LINE      CODE     ---       #37
      0100BD35H   LINE      CODE     ---       #38
      0100BD3BH   LINE      CODE     ---       #41
      0100BD3BH   LINE      CODE     ---       #42
      0100BD3BH   LINE      CODE     ---       #43
      0100BD46H   LINE      CODE     ---       #44
      0100BD4CH   LINE      CODE     ---       #45
      0100BD4CH   LINE      CODE     ---       #46
      0100BD53H   LINE      CODE     ---       #47
      0100BD55H   LINE      CODE     ---       #48
      0100BD57H   LINE      CODE     ---       #49
      ---         BLOCKEND  ---      ---       LVL=0

      0100B622H   BLOCK     CODE     ---       LVL=0
      0200CB84H   SYMBOL    XDATA    DWORD     addr
      0200CB88H   SYMBOL    XDATA    ---       buff
      0200CB8BH   SYMBOL    XDATA    WORD      len
      0100B622H   LINE      CODE     ---       #57
      0100B62EH   LINE      CODE     ---       #58
      0100B62EH   LINE      CODE     ---       #60
      0100B634H   LINE      CODE     ---       #61
      0100B63AH   LINE      CODE     ---       #62
      0100B640H   LINE      CODE     ---       #63
      0100B643H   LINE      CODE     ---       #64
      0100B643H   LINE      CODE     ---       #65
      0100B646H   LINE      CODE     ---       #66
      0100B649H   LINE      CODE     ---       #67
      0100B649H   LINE      CODE     ---       #68
      0100B64FH   LINE      CODE     ---       #71
      0100B64FH   LINE      CODE     ---       #72
      0100B64FH   LINE      CODE     ---       #73
      0100B65DH   LINE      CODE     ---       #74
      0100B663H   LINE      CODE     ---       #75
      0100B663H   LINE      CODE     ---       #76
      0100B66AH   LINE      CODE     ---       #77
      0100B66CH   LINE      CODE     ---       #80
      ---         BLOCKEND  ---      ---       LVL=0

      ---         MODULE    ---      ---       SCENE
      0200C6CFH   PUBLIC    XDATA    ---       module_scene
      0200C6CEH   PUBLIC    XDATA    BYTE      infor_clear_sta
      0200C6CDH   PUBLIC    XDATA    BYTE      scene_name_select_sta_bak
      0200C6CCH   PUBLIC    XDATA    BYTE      scene_infor_select_sta_bak
      0200C0CCH   PUBLIC    XDATA    ---       temp_scenc_infor
      0200C0CBH   PUBLIC    XDATA    BYTE      temp_module_index
      0200C0C3H   PUBLIC    XDATA    ---       module_scene_select_key_bak
      0200C037H   PUBLIC    XDATA    ---       name_space
      0200C036H   PUBLIC    XDATA    BYTE      scene_infor_page
      0200C01EH   PUBLIC    XDATA    ---       scenc_infor
      0200C019H   PUBLIC    XDATA    ---       scene_data
      0200C011H   PUBLIC    XDATA    ---       scene_vaild
      0200C00FH   PUBLIC    XDATA    WORD      scene_name_key_nb_bak
      0200C00DH   PUBLIC    XDATA    WORD      scene_infor_key_nb_bak
      01009C82H   PUBLIC    CODE     ---       scene_touch_run
      0100ADDFH   PUBLIC    CODE     ---       _pop_menu_key_ctrl
      0100B740H   PUBLIC    CODE     ---       _sys_led_config
      0100B561H   PUBLIC    CODE     ---       _back_light_ctrl
      0100B9D4H   PUBLIC    CODE     ---       _beep_ctrl
      0100CBD3H   PUBLIC    CODE     ---       scene_modify
      0100D051H   PUBLIC    CODE     ---       set_scene_infor_page
      0200C853H   PUBLIC    XDATA    BYTE      ?_scene_infor_key_ctrl?BYTE
      01008B77H   PUBLIC    CODE     ---       _scene_infor_key_ctrl
LX51 LINKER/LOCATER V4.66.97.0                                                        09/27/2023  17:05:17  PAGE 147


      0200C85BH   PUBLIC    XDATA    BYTE      ?_scene_edit_sta_clear_infor?BYTE
      0100B8BBH   PUBLIC    CODE     ---       _scene_edit_sta_clear_infor
      0100745AH   PUBLIC    CODE     ---       _scene_infor_delete_ctrl
      0100BAE9H   PUBLIC    CODE     ---       _scene_infor_modify_ctrl
      0200C85BH   PUBLIC    XDATA    BYTE      ?_scene_infor_clear_ctrl?BYTE
      0100CE5BH   PUBLIC    CODE     ---       _scene_infor_clear_ctrl
      0200C85BH   PUBLIC    XDATA    BYTE      ?_scene_infor_cancel_ctrl?BYTE
      0100CBA5H   PUBLIC    CODE     ---       _scene_infor_cancel_ctrl
      0100B500H   PUBLIC    CODE     ---       _scene_infor_confirm_ctrl
      01008D03H   PUBLIC    CODE     ---       _scene_name_key_ctrl
      0100C5F0H   PUBLIC    CODE     ---       _scene_name_delete
      0100C9A9H   PUBLIC    CODE     ---       _scene_name_clear
      01007323H   PUBLIC    CODE     ---       _scene_name_modify
      0100CC5AH   PUBLIC    CODE     ---       _scene_name_add
      0200C853H   PUBLIC    XDATA    BYTE      ?_add_module_scene_infor?BYTE
      01005A8BH   PUBLIC    CODE     ---       _add_module_scene_infor
      01004B54H   PUBLIC    CODE     ---       _display_scene_infor
      0100A6CAH   PUBLIC    CODE     ---       module_scene_send
      01008DC7H   PUBLIC    CODE     ---       _scene_name_ctrl_send
      0100972AH   PUBLIC    CODE     ---       _scene_delete_ctrl_send
      010090C5H   PUBLIC    CODE     ---       _module_dim_scene_send
      01009DC7H   PUBLIC    CODE     ---       _module_relay_scene_send
      0200C861H   PUBLIC    XDATA    BYTE      ?_module_dim_scene_set?BYTE
      01007088H   PUBLIC    CODE     ---       _module_dim_scene_set
      0200C861H   PUBLIC    XDATA    BYTE      ?_module_relay_scene_set?BYTE
      01004240H   PUBLIC    CODE     ---       _module_relay_scene_set
      01009BDFH   PUBLIC    CODE     ---       _module_scene_select_ctrl
      0100CD7BH   PUBLIC    CODE     ---       _module_scene_select
      0100C49FH   PUBLIC    CODE     ---       _display_scene_interface
      0100B85DH   PUBLIC    CODE     ---       _display_dim_scene_interface
      0100A5C1H   PUBLIC    CODE     ---       _display_relay_scene_interface
      0100791AH   PUBLIC    CODE     ---       _module_scene_infor_dis
      0100C674H   PUBLIC    CODE     ---       _scene_infor_delete_flash
      0100CE37H   PUBLIC    CODE     ---       _scene_infor_save_flash
      0100A8CFH   PUBLIC    CODE     ---       scene_name_clear_flash
      0100C08EH   PUBLIC    CODE     ---       _scene_name_delete_flash
      0100D167H   PUBLIC    CODE     ---       clear_scene_list_name
      0100D26FH   PUBLIC    CODE     ---       _delete_scene_list_name
      0100CDEEH   PUBLIC    CODE     ---       _scene_name_read_flash
      0100D1FCH   PUBLIC    CODE     ---       _scene_name_save
      0100AF21H   PUBLIC    CODE     ---       _scene_name_write_dgusii
      0100D1E4H   PUBLIC    CODE     ---       _scene_name_save_flash
      0100CD54H   PUBLIC    CODE     ---       if_all_scene_name_blank
      0100CFB1H   PUBLIC    CODE     ---       _if_scene_name_exists
      0100D0E2H   PUBLIC    CODE     ---       set_scene_name_select_sequence_number
      0100D416H   PUBLIC    CODE     ---       get_scene_name_select_sequence_number
      0100D0C6H   PUBLIC    CODE     ---       set_scene_infor_select_sequence_number
      0100D40DH   PUBLIC    CODE     ---       get_scene_infor_select_sequence_number
      0100D2C1H   PUBLIC    CODE     ---       get_blank_scene_infor_index
      0100D14DH   PUBLIC    CODE     ---       clear_all_scene_infor
      0100006EH   PUBLIC    CODE     ---       _clear_single_scene
      0100D0AAH   PUBLIC    CODE     ---       if_all_scene_infor_blank
      0100C894H   PUBLIC    CODE     ---       get_blank_scene_name_index
      0100D31BH   PUBLIC    CODE     ---       clear_temp_scenc_infor
      0100C973H   PUBLIC    CODE     ---       _clear_all_module_var_en
      0100D465H   PUBLIC    CODE     ---       _clear_single_module_var_en
      0100D3A7H   PUBLIC    CODE     ---       _printf_temp_scenc_infor
      0100D45FH   PUBLIC    CODE     ---       get_module_scene_edit_sta
      000000F1H   SFRSYM    DATA     BYTE      ADR_H
      00000080H   SFRSYM    DATA     BYTE      P0
      00000090H   SFRSYM    DATA     BYTE      P1
      000000A0H   SFRSYM    DATA     BYTE      P2
      000000B0H   SFRSYM    DATA     BYTE      P3
      000000F3H   SFRSYM    DATA     BYTE      ADR_L
      000000D0H.6 SFRSYM    DATA     BIT       AC
LX51 LINKER/LOCATER V4.66.97.0                                                        09/27/2023  17:05:17  PAGE 148


      000000A0H.6 SFRSYM    DATA     BIT       Red_LED1
      00000094H   SFRSYM    DATA     BYTE      PAGESEL
      000000F2H   SFRSYM    DATA     BYTE      ADR_M
      000000A8H.7 SFRSYM    DATA     BIT       EA
      000000F8H   SFRSYM    DATA     BYTE      RAMMODE
      000000B7H   SFRSYM    DATA     BYTE      P0MDOUT
      000000BCH   SFRSYM    DATA     BYTE      P1MDOUT
      000000A8H   SFRSYM    DATA     BYTE      IEN0
      000000BDH   SFRSYM    DATA     BYTE      P2MDOUT
      000000B8H   SFRSYM    DATA     BYTE      IEN1
      000000BEH   SFRSYM    DATA     BYTE      P3MDOUT
      0000009AH   SFRSYM    DATA     BYTE      IEN2
      000000F8H.4 SFRSYM    DATA     BIT       APP_ACK
      000000F4H   SFRSYM    DATA     BYTE      ADR_INC
      000000B8H.1 SFRSYM    DATA     BIT       ECAN
      000000D0H.7 SFRSYM    DATA     BIT       CY
      000000B8H.3 SFRSYM    DATA     BIT       ES4R
      000000B8H.5 SFRSYM    DATA     BIT       ES5R
      000000B8H.2 SFRSYM    DATA     BIT       ES4T
      000000B8H.4 SFRSYM    DATA     BIT       ES5T
      000000B0H.3 SFRSYM    DATA     BIT       RTC_SDA
      00000081H   SFRSYM    DATA     BYTE      SP
      000000D0H.2 SFRSYM    DATA     BIT       OV
      00000095H   SFRSYM    DATA     BYTE      D_PAGESEL
      000000F8H.7 SFRSYM    DATA     BIT       APP_REQ
      000000B0H.2 SFRSYM    DATA     BIT       RTC_SCL
      000000BFH   SFRSYM    DATA     BYTE      IRCON2
      00000087H   SFRSYM    DATA     BYTE      PCON
      000000BAH   SFRSYM    DATA     BYTE      SREL2H
      000000BBH   SFRSYM    DATA     BYTE      SREL3H
      000000F9H   SFRSYM    DATA     BYTE      PORTDRV
      00000089H   SFRSYM    DATA     BYTE      TMOD
      00000088H   SFRSYM    DATA     BYTE      TCON
      000000AAH   SFRSYM    DATA     BYTE      SREL2L
      0000009DH   SFRSYM    DATA     BYTE      SREL3L
      000000FFH   SFRSYM    DATA     BYTE      EXDATA
      00000097H   SFRSYM    DATA     BYTE      SCON4R
      000000ABH   SFRSYM    DATA     BYTE      SCON5R
      000000D9H   SFRSYM    DATA     BYTE      BODE4_DIV_H
      000000AEH   SFRSYM    DATA     BYTE      BODE5_DIV_H
      00000096H   SFRSYM    DATA     BYTE      SCON4T
      000000A7H   SFRSYM    DATA     BYTE      SCON5T
      00000088H.1 SFRSYM    DATA     BIT       IE0
      00000088H.3 SFRSYM    DATA     BIT       IE1
      000000C9H   SFRSYM    DATA     BYTE      MUX_SEL
      000000E7H   SFRSYM    DATA     BYTE      BODE4_DIV_L
      000000AFH   SFRSYM    DATA     BYTE      BODE5_DIV_L
      000000F0H   SFRSYM    DATA     BYTE      B
      000000E0H   SFRSYM    DATA     BYTE      ACC
      0000008FH   SFRSYM    DATA     BYTE      CAN_CR
      000000A9H   SFRSYM    DATA     BYTE      IP0
      000000A8H.1 SFRSYM    DATA     BIT       ET0
      000000B9H   SFRSYM    DATA     BYTE      IP1
      000000A8H.3 SFRSYM    DATA     BIT       ET1
      000000A8H.4 SFRSYM    DATA     BIT       ES2
      00000088H.5 SFRSYM    DATA     BIT       TF0
      000000FDH   SFRSYM    DATA     BYTE      DATA0
      000000A8H.5 SFRSYM    DATA     BIT       ET2
      00000088H.7 SFRSYM    DATA     BIT       TF1
      000000E8H   SFRSYM    DATA     BYTE      CAN_ET
      000000FCH   SFRSYM    DATA     BYTE      DATA1
      000000C0H.6 SFRSYM    DATA     BIT       TF2
      0000008CH   SFRSYM    DATA     BYTE      TH0
      000000FBH   SFRSYM    DATA     BYTE      DATA2
      000000A8H.0 SFRSYM    DATA     BIT       EX0
LX51 LINKER/LOCATER V4.66.97.0                                                        09/27/2023  17:05:17  PAGE 149


      00000098H.0 SFRSYM    DATA     BIT       RI2
      0000008DH   SFRSYM    DATA     BYTE      TH1
      00000088H.0 SFRSYM    DATA     BIT       IT0
      00000091H   SFRSYM    DATA     BYTE      CAN_IR
      000000FAH   SFRSYM    DATA     BYTE      DATA3
      000000CDH   SFRSYM    DATA     BYTE      TH2
      000000A8H.2 SFRSYM    DATA     BIT       EX1
      00000088H.2 SFRSYM    DATA     BIT       IT1
      000000D0H.0 SFRSYM    DATA     BIT       P
      00000098H.1 SFRSYM    DATA     BIT       TI2
      0000008AH   SFRSYM    DATA     BYTE      TL0
      0000008BH   SFRSYM    DATA     BYTE      TL1
      000000CCH   SFRSYM    DATA     BYTE      TL2
      000000F8H.6 SFRSYM    DATA     BIT       APP_EN
      000000D0H.3 SFRSYM    DATA     BIT       RS0
      000000D0H.4 SFRSYM    DATA     BIT       RS1
      00000088H.4 SFRSYM    DATA     BIT       TR0
      00000093H   SFRSYM    DATA     BYTE      DPC
      00000088H.6 SFRSYM    DATA     BIT       TR1
      000000E5H   SFRSYM    DATA     BYTE      MAC_MODE
      000000C8H.0 SFRSYM    DATA     BIT       TR2
      00000080H.0 SFRSYM    DATA     BIT       TR4
      00000080H.1 SFRSYM    DATA     BIT       TR5
      000000A0H.7 SFRSYM    DATA     BIT       Green_LED2
      00000083H   SFRSYM    DATA     BYTE      DPH
      00000082H   SFRSYM    DATA     BYTE      DPL
      00000099H   SFRSYM    DATA     BYTE      SBUF2
      0000009CH   SFRSYM    DATA     BYTE      SBUF3
      000000D8H   SFRSYM    DATA     BYTE      ADCON
      00000098H   SFRSYM    DATA     BYTE      SCON2
      000000C8H   SFRSYM    DATA     BYTE      T2CON
      0000009BH   SFRSYM    DATA     BYTE      SCON3
      000000E6H   SFRSYM    DATA     BYTE      DIV_MODE
      000000F8H.5 SFRSYM    DATA     BIT       APP_RW
      000000CBH   SFRSYM    DATA     BYTE      TRL2H
      0000008EH   SFRSYM    DATA     BYTE      CKCON
      0000009FH   SFRSYM    DATA     BYTE      SBUF4_RX
      000000ADH   SFRSYM    DATA     BYTE      SBUF5_RX
      000000CAH   SFRSYM    DATA     BYTE      TRL2L
      0000009EH   SFRSYM    DATA     BYTE      SBUF4_TX
      000000ACH   SFRSYM    DATA     BYTE      SBUF5_TX
      000000FEH   SFRSYM    DATA     BYTE      EXADR
      000000D0H.5 SFRSYM    DATA     BIT       F0
      000000D0H.1 SFRSYM    DATA     BIT       F1
      000000D0H   SFRSYM    DATA     BYTE      PSW
      000000C0H   SFRSYM    DATA     BYTE      IRCON
      0100E1BFH   SYMBOL    CONST    ---       _?ix1000
      0100E393H   SYMBOL    CONST    ---       _?ix1010
      0100E1DFH   SYMBOL    CONST    ---       _?ix1001
      0100E39DH   SYMBOL    CONST    ---       _?ix1011
      0100E1FFH   SYMBOL    CONST    ---       _?ix1002
      0100E3CDH   SYMBOL    CONST    ---       _?ix1012
      0100E207H   SYMBOL    CONST    ---       _?ix1003
      0100E4E5H   SYMBOL    CONST    ---       _?ix1013
      0100E20BH   SYMBOL    CONST    ---       _?ix1004
      0100E4E9H   SYMBOL    CONST    ---       _?ix1014
      0100E26BH   SYMBOL    CONST    ---       _?ix1005
      0100E4EDH   SYMBOL    CONST    ---       _?ix1015
      0100E2F8H   SYMBOL    CONST    ---       _?ix1006
      0100E4F1H   SYMBOL    CONST    ---       _?ix1016
      0100E309H   SYMBOL    CONST    ---       _?ix1007
      0100E4F9H   SYMBOL    CONST    ---       _?ix1017
      0100E33AH   SYMBOL    CONST    ---       _?ix1008
      0100E36BH   SYMBOL    CONST    ---       _?ix1009

LX51 LINKER/LOCATER V4.66.97.0                                                        09/27/2023  17:05:17  PAGE 150


      01003734H   BLOCK     CODE     ---       LVL=0
      ---         BLOCKEND  ---      ---       LVL=0

      0100D45FH   BLOCK     CODE     ---       LVL=0
      0100D45FH   LINE      CODE     ---       #35
      0100D45FH   LINE      CODE     ---       #36
      0100D45FH   LINE      CODE     ---       #38
      0100D464H   LINE      CODE     ---       #39
      ---         BLOCKEND  ---      ---       LVL=0

      0100D3A7H   BLOCK     CODE     ---       LVL=0
      00000007H   SYMBOL    DATA     BYTE      index
      0100D3A7H   BLOCK     CODE     NEAR LAB  LVL=1
      00000006H   SYMBOL    DATA     BYTE      i
      ---         BLOCKEND  ---      ---       LVL=1
      0100D3A7H   LINE      CODE     ---       #54
      0100D3A7H   LINE      CODE     ---       #55
      0100D3A7H   LINE      CODE     ---       #56
      0100D3A9H   LINE      CODE     ---       #57
      0100D3AEH   LINE      CODE     ---       #58
      0100D3AEH   LINE      CODE     ---       #60
      0100D3B1H   LINE      CODE     ---       #61
      ---         BLOCKEND  ---      ---       LVL=0

      0100D465H   BLOCK     CODE     ---       LVL=0
      00000006H   SYMBOL    DATA     WORD      adr
      0100D465H   LINE      CODE     ---       #63
      0100D465H   LINE      CODE     ---       #64
      0100D465H   LINE      CODE     ---       #65
      ---         BLOCKEND  ---      ---       LVL=0

      0100C973H   BLOCK     CODE     ---       LVL=0
      0200C861H   SYMBOL    XDATA    WORD      adr
      0200C863H   SYMBOL    XDATA    BYTE      len
      0100C97EH   BLOCK     CODE     NEAR LAB  LVL=1
      0200C864H   SYMBOL    XDATA    BYTE      i
      ---         BLOCKEND  ---      ---       LVL=1
      0100C973H   LINE      CODE     ---       #68
      0100C97EH   LINE      CODE     ---       #69
      0100C97EH   LINE      CODE     ---       #70
      0100C981H   LINE      CODE     ---       #71
      0100C98EH   LINE      CODE     ---       #72
      0100C98EH   LINE      CODE     ---       #73
      0100C9A0H   LINE      CODE     ---       #74
      0100C9A8H   LINE      CODE     ---       #75
      ---         BLOCKEND  ---      ---       LVL=0

      0100D31BH   BLOCK     CODE     ---       LVL=0
      0100D31BH   LINE      CODE     ---       #77
      0100D31BH   LINE      CODE     ---       #78
      0100D31BH   LINE      CODE     ---       #79
      ---         BLOCKEND  ---      ---       LVL=0

      0100C894H   BLOCK     CODE     ---       LVL=0
      0100C894H   BLOCK     CODE     NEAR LAB  LVL=1
      0200C85CH   SYMBOL    XDATA    BYTE      i
      0200C85DH   SYMBOL    XDATA    WORD      temp_data
      ---         BLOCKEND  ---      ---       LVL=1
      0100C894H   LINE      CODE     ---       #82
      0100C894H   LINE      CODE     ---       #83
      0100C894H   LINE      CODE     ---       #85
      0100C897H   LINE      CODE     ---       #86
      0100C89AH   LINE      CODE     ---       #87
      0100C8A6H   LINE      CODE     ---       #88
      0100C8A6H   LINE      CODE     ---       #89
LX51 LINKER/LOCATER V4.66.97.0                                                        09/27/2023  17:05:17  PAGE 151


      0100C8B2H   LINE      CODE     ---       #90
      0100C8BCH   LINE      CODE     ---       #91
      0100C8C2H   LINE      CODE     ---       #92
      0100C8CAH   LINE      CODE     ---       #93
      0100C8CCH   LINE      CODE     ---       #94
      ---         BLOCKEND  ---      ---       LVL=0

      0100D0AAH   BLOCK     CODE     ---       LVL=0
      0100D0AAH   BLOCK     CODE     NEAR LAB  LVL=1
      00000007H   SYMBOL    DATA     BYTE      i
      0200C85EH   SYMBOL    XDATA    WORD      temp_data
      ---         BLOCKEND  ---      ---       LVL=1
      0100D0AAH   LINE      CODE     ---       #96
      0100D0AAH   LINE      CODE     ---       #97
      0100D0AAH   LINE      CODE     ---       #98
      0100D0ACH   LINE      CODE     ---       #99
      0100D0B2H   LINE      CODE     ---       #100
      0100D0B8H   LINE      CODE     ---       #101
      0100D0B8H   LINE      CODE     ---       #103
      0100D0BFH   LINE      CODE     ---       #104
      0100D0C0H   LINE      CODE     ---       #105
      0100D0C3H   LINE      CODE     ---       #106
      0100D0C5H   LINE      CODE     ---       #107
      ---         BLOCKEND  ---      ---       LVL=0

      0100006EH   BLOCK     CODE     ---       LVL=0
      00000007H   SYMBOL    DATA     BYTE      index
      0100006EH   LINE      CODE     ---       #109
      0100006EH   LINE      CODE     ---       #110
      0100006EH   LINE      CODE     ---       #112
      ---         BLOCKEND  ---      ---       LVL=0

      0100D14DH   BLOCK     CODE     ---       LVL=0
      0100D14DH   BLOCK     CODE     NEAR LAB  LVL=1
      0200C861H   SYMBOL    XDATA    BYTE      i
      ---         BLOCKEND  ---      ---       LVL=1
      0100D14DH   LINE      CODE     ---       #115
      0100D14DH   LINE      CODE     ---       #116
      0100D14DH   LINE      CODE     ---       #117
      0100D152H   LINE      CODE     ---       #118
      0100D15BH   LINE      CODE     ---       #119
      0100D15BH   LINE      CODE     ---       #120
      0100D15EH   LINE      CODE     ---       #121
      0100D166H   LINE      CODE     ---       #122
      ---         BLOCKEND  ---      ---       LVL=0

      0100D2C1H   BLOCK     CODE     ---       LVL=0
      0100D2C1H   BLOCK     CODE     NEAR LAB  LVL=1
      00000007H   SYMBOL    DATA     BYTE      i
      ---         BLOCKEND  ---      ---       LVL=1
      0100D2C1H   LINE      CODE     ---       #124
      0100D2C1H   LINE      CODE     ---       #125
      0100D2C1H   LINE      CODE     ---       #127
      0100D2C3H   LINE      CODE     ---       #129
      0100D2C9H   LINE      CODE     ---       #130
      0100D2C9H   LINE      CODE     ---       #133
      0100D2CEH   LINE      CODE     ---       #134
      0100D2CFH   LINE      CODE     ---       #135
      0100D2D2H   LINE      CODE     ---       #136
      0100D2D4H   LINE      CODE     ---       #137
      ---         BLOCKEND  ---      ---       LVL=0

      0100D40DH   BLOCK     CODE     ---       LVL=0
      0100D40DH   LINE      CODE     ---       #139
      0100D40DH   LINE      CODE     ---       #140
LX51 LINKER/LOCATER V4.66.97.0                                                        09/27/2023  17:05:17  PAGE 152


      0100D40DH   LINE      CODE     ---       #143
      ---         BLOCKEND  ---      ---       LVL=0

      0100D0C6H   BLOCK     CODE     ---       LVL=0
      0100D0C6H   LINE      CODE     ---       #146
      0100D0C6H   LINE      CODE     ---       #147
      0100D0C6H   LINE      CODE     ---       #149
      ---         BLOCKEND  ---      ---       LVL=0

      0100D416H   BLOCK     CODE     ---       LVL=0
      0100D416H   LINE      CODE     ---       #152
      0100D416H   LINE      CODE     ---       #153
      0100D416H   LINE      CODE     ---       #155
      ---         BLOCKEND  ---      ---       LVL=0

      0100D0E2H   BLOCK     CODE     ---       LVL=0
      0100D0E2H   LINE      CODE     ---       #158
      0100D0E2H   LINE      CODE     ---       #159
      0100D0E2H   LINE      CODE     ---       #161
      ---         BLOCKEND  ---      ---       LVL=0

      0100CFB1H   BLOCK     CODE     ---       LVL=0
      00000007H   SYMBOL    DATA     BYTE      index
      0100CFB1H   BLOCK     CODE     NEAR LAB  LVL=1
      0200C8B9H   SYMBOL    XDATA    WORD      temp_dat
      ---         BLOCKEND  ---      ---       LVL=1
      0100CFB1H   LINE      CODE     ---       #164
      0100CFB1H   LINE      CODE     ---       #165
      0100CFB1H   LINE      CODE     ---       #166
      0100CFB8H   LINE      CODE     ---       #167
      0100CFC4H   LINE      CODE     ---       #169
      0100CFD0H   LINE      CODE     ---       #170
      0100CFD0H   LINE      CODE     ---       #171
      0100CFD1H   LINE      CODE     ---       #172
      0100CFD1H   LINE      CODE     ---       #174
      0100CFD1H   LINE      CODE     ---       #175
      0100CFD1H   LINE      CODE     ---       #176
      0100CFD1H   LINE      CODE     ---       #177
      ---         BLOCKEND  ---      ---       LVL=0

      0100CD54H   BLOCK     CODE     ---       LVL=0
      0100CD54H   BLOCK     CODE     NEAR LAB  LVL=1
      0200C8B8H   SYMBOL    XDATA    BYTE      i
      ---         BLOCKEND  ---      ---       LVL=1
      0100CD54H   LINE      CODE     ---       #179
      0100CD54H   LINE      CODE     ---       #180
      0100CD54H   LINE      CODE     ---       #181
      0100CD59H   LINE      CODE     ---       #182
      0100CD62H   LINE      CODE     ---       #183
      0100CD62H   LINE      CODE     ---       #184
      0100CD6AH   LINE      CODE     ---       #185
      0100CD6AH   LINE      CODE     ---       #186
      0100CD70H   LINE      CODE     ---       #187
      0100CD70H   LINE      CODE     ---       #188
      0100CD78H   LINE      CODE     ---       #189
      0100CD7AH   LINE      CODE     ---       #190
      ---         BLOCKEND  ---      ---       LVL=0

      0100D1E4H   BLOCK     CODE     ---       LVL=0
      00000001H   SYMBOL    DATA     ---       p
      0100D1E4H   LINE      CODE     ---       #192
      0100D1E4H   LINE      CODE     ---       #193
      0100D1E4H   LINE      CODE     ---       #197
      ---         BLOCKEND  ---      ---       LVL=0

LX51 LINKER/LOCATER V4.66.97.0                                                        09/27/2023  17:05:17  PAGE 153


      0100AF21H   BLOCK     CODE     ---       LVL=0
      0200C861H   SYMBOL    XDATA    ---       p
      0100AF21H   LINE      CODE     ---       #202
      0100AF27H   LINE      CODE     ---       #203
      0100AF27H   LINE      CODE     ---       #204
      0100AF32H   LINE      CODE     ---       #205
      0100AF48H   LINE      CODE     ---       #206
      0100AF6AH   LINE      CODE     ---       #207
      ---         BLOCKEND  ---      ---       LVL=0

      0100D1FCH   BLOCK     CODE     ---       LVL=0
      0200C85EH   SYMBOL    XDATA    ---       p
      0100D1FCH   LINE      CODE     ---       #209
      0100D202H   LINE      CODE     ---       #210
      0100D202H   LINE      CODE     ---       #211
      0100D20BH   LINE      CODE     ---       #212
      ---         BLOCKEND  ---      ---       LVL=0

      0100CDEEH   BLOCK     CODE     ---       LVL=0
      0200C85FH   SYMBOL    XDATA    ---       p
      00000005H   SYMBOL    DATA     BYTE      index
      0100CDEEH   LINE      CODE     ---       #216
      0100CDF4H   LINE      CODE     ---       #217
      0100CDF4H   LINE      CODE     ---       #220
      0100CE00H   LINE      CODE     ---       #221
      ---         BLOCKEND  ---      ---       LVL=0

      0100D26FH   BLOCK     CODE     ---       LVL=0
      00000007H   SYMBOL    DATA     BYTE      index
      0100D26FH   LINE      CODE     ---       #224
      0100D26FH   LINE      CODE     ---       #225
      0100D26FH   LINE      CODE     ---       #227
      ---         BLOCKEND  ---      ---       LVL=0

      0100D167H   BLOCK     CODE     ---       LVL=0
      0100D167H   BLOCK     CODE     NEAR LAB  LVL=1
      0200C85CH   SYMBOL    XDATA    BYTE      i
      ---         BLOCKEND  ---      ---       LVL=1
      0100D167H   LINE      CODE     ---       #230
      0100D167H   LINE      CODE     ---       #231
      0100D167H   LINE      CODE     ---       #232
      0100D16CH   LINE      CODE     ---       #233
      0100D175H   LINE      CODE     ---       #234
      0100D175H   LINE      CODE     ---       #235
      0100D178H   LINE      CODE     ---       #236
      0100D180H   LINE      CODE     ---       #237
      ---         BLOCKEND  ---      ---       LVL=0

      0100C08EH   BLOCK     CODE     ---       LVL=0
      0200C85CH   SYMBOL    XDATA    BYTE      index
      0100C08EH   LINE      CODE     ---       #239
      0100C093H   LINE      CODE     ---       #240
      0100C093H   LINE      CODE     ---       #242
      0100C0A2H   LINE      CODE     ---       #243
      0100C0CAH   LINE      CODE     ---       #244
      ---         BLOCKEND  ---      ---       LVL=0

      0100A8CFH   BLOCK     CODE     ---       LVL=0
      0100A8CFH   BLOCK     CODE     NEAR LAB  LVL=1
      0200C85CH   SYMBOL    XDATA    BYTE      index
      ---         BLOCKEND  ---      ---       LVL=1
      0100A8CFH   LINE      CODE     ---       #259
      0100A8CFH   LINE      CODE     ---       #260
      0100A8CFH   LINE      CODE     ---       #261
      0100A8D4H   LINE      CODE     ---       #262
LX51 LINKER/LOCATER V4.66.97.0                                                        09/27/2023  17:05:17  PAGE 154


      0100A8DBH   LINE      CODE     ---       #263
      0100A8DBH   LINE      CODE     ---       #265
      0100A8DBH   LINE      CODE     ---       #266
      0100A8EEH   LINE      CODE     ---       #267
      0100A8EEH   LINE      CODE     ---       #269
      0100A911H   LINE      CODE     ---       #270
      0100A919H   LINE      CODE     ---       #271
      0100A932H   LINE      CODE     ---       #272
      0100A94DH   LINE      CODE     ---       #278
      ---         BLOCKEND  ---      ---       LVL=0

      0100CE37H   BLOCK     CODE     ---       LVL=0
      00000001H   SYMBOL    DATA     ---       p_module_scene
      0100CE37H   LINE      CODE     ---       #280
      0100CE37H   LINE      CODE     ---       #281
      0100CE37H   LINE      CODE     ---       #289
      0100CE3CH   LINE      CODE     ---       #290
      0100CE52H   LINE      CODE     ---       #291
      ---         BLOCKEND  ---      ---       LVL=0

      0100C674H   BLOCK     CODE     ---       LVL=0
      00000001H   SYMBOL    DATA     ---       p
      0100C674H   LINE      CODE     ---       #301
      0100C674H   LINE      CODE     ---       #302
      0100C674H   LINE      CODE     ---       #303
      ---         BLOCKEND  ---      ---       LVL=0

      0100791AH   BLOCK     CODE     ---       LVL=0
      0200C85FH   SYMBOL    XDATA    ---       p
      01007920H   BLOCK     CODE     NEAR LAB  LVL=1
      0200C862H   SYMBOL    XDATA    BYTE      i
      0200C863H   SYMBOL    XDATA    ---       temp_tab
      ---         BLOCKEND  ---      ---       LVL=1
      0100791AH   LINE      CODE     ---       #308
      01007920H   LINE      CODE     ---       #309
      01007920H   LINE      CODE     ---       #310
      01007925H   LINE      CODE     ---       #311
      01007932H   LINE      CODE     ---       #312
      0100794EH   LINE      CODE     ---       #313
      0100794EH   LINE      CODE     ---       #314
      0100794EH   LINE      CODE     ---       #315
      0100794EH   LINE      CODE     ---       #316
      0100794EH   LINE      CODE     ---       #317
      0100794EH   LINE      CODE     ---       #318
      01007958H   LINE      CODE     ---       #319
      01007958H   LINE      CODE     ---       #320
      01007972H   LINE      CODE     ---       #322
      01007977H   LINE      CODE     ---       #323
      01007986H   LINE      CODE     ---       #324
      01007990H   LINE      CODE     ---       #325
      01007990H   LINE      CODE     ---       #326
      010079AAH   LINE      CODE     ---       #328
      010079AFH   LINE      CODE     ---       #329
      010079BBH   LINE      CODE     ---       #331
      010079BDH   LINE      CODE     ---       #332
      010079BDH   LINE      CODE     ---       #333
      010079C7H   LINE      CODE     ---       #334
      010079C7H   LINE      CODE     ---       #335
      010079D7H   LINE      CODE     ---       #336
      010079DCH   LINE      CODE     ---       #337
      010079E7H   LINE      CODE     ---       #338
      010079F4H   LINE      CODE     ---       #340
      010079F6H   LINE      CODE     ---       #341
      010079F6H   LINE      CODE     ---       #342
      01007A00H   LINE      CODE     ---       #343
LX51 LINKER/LOCATER V4.66.97.0                                                        09/27/2023  17:05:17  PAGE 155


      01007A00H   LINE      CODE     ---       #344
      01007A10H   LINE      CODE     ---       #345
      01007A15H   LINE      CODE     ---       #346
      01007A20H   LINE      CODE     ---       #348
      01007A30H   LINE      CODE     ---       #350
      01007A30H   LINE      CODE     ---       #351
      01007A30H   LINE      CODE     ---       #352
      ---         BLOCKEND  ---      ---       LVL=0

      0100A5C1H   BLOCK     CODE     ---       LVL=0
      0200C862H   SYMBOL    XDATA    ---       p
      0100A5C1H   LINE      CODE     ---       #354
      0100A5C7H   LINE      CODE     ---       #355
      0100A5C7H   LINE      CODE     ---       #356
      0100A5D4H   LINE      CODE     ---       #357
      0100A5E1H   LINE      CODE     ---       #358
      0100A5F4H   LINE      CODE     ---       #359
      0100A607H   LINE      CODE     ---       #361
      0100A626H   LINE      CODE     ---       #362
      0100A626H   LINE      CODE     ---       #363
      0100A626H   LINE      CODE     ---       #365
      0100A628H   LINE      CODE     ---       #366
      0100A62AH   LINE      CODE     ---       #367
      0100A62AH   LINE      CODE     ---       #369
      0100A62CH   LINE      CODE     ---       #370
      0100A62EH   LINE      CODE     ---       #371
      0100A62EH   LINE      CODE     ---       #373
      0100A630H   LINE      CODE     ---       #374
      0100A632H   LINE      CODE     ---       #375
      0100A632H   LINE      CODE     ---       #377
      0100A634H   LINE      CODE     ---       #378
      0100A636H   LINE      CODE     ---       #379
      0100A636H   LINE      CODE     ---       #381
      0100A638H   LINE      CODE     ---       #382
      0100A63AH   LINE      CODE     ---       #383
      0100A63AH   LINE      CODE     ---       #385
      0100A63CH   LINE      CODE     ---       #386
      0100A63EH   LINE      CODE     ---       #387
      0100A63EH   LINE      CODE     ---       #389
      0100A645H   LINE      CODE     ---       #390
      0100A645H   LINE      CODE     ---       #391
      0100A645H   LINE      CODE     ---       #392
      0100A645H   LINE      CODE     ---       #393
      0100A645H   LINE      CODE     ---       #394
      ---         BLOCKEND  ---      ---       LVL=0

      0100B85DH   BLOCK     CODE     ---       LVL=0
      0200C862H   SYMBOL    XDATA    ---       p
      0100B85DH   LINE      CODE     ---       #396
      0100B863H   LINE      CODE     ---       #397
      0100B863H   LINE      CODE     ---       #398
      0100B868H   LINE      CODE     ---       #399
      0100B870H   LINE      CODE     ---       #400
      0100B883H   LINE      CODE     ---       #401
      0100B896H   LINE      CODE     ---       #403
      0100B8A3H   LINE      CODE     ---       #404
      0100B8A3H   LINE      CODE     ---       #405
      0100B8A3H   LINE      CODE     ---       #406
      0100B8A5H   LINE      CODE     ---       #407
      0100B8A7H   LINE      CODE     ---       #408
      0100B8A7H   LINE      CODE     ---       #409
      0100B8AEH   LINE      CODE     ---       #410
      0100B8AEH   LINE      CODE     ---       #411
      0100B8AEH   LINE      CODE     ---       #412
      0100B8AEH   LINE      CODE     ---       #413
LX51 LINKER/LOCATER V4.66.97.0                                                        09/27/2023  17:05:17  PAGE 156


      0100B8AEH   LINE      CODE     ---       #414
      ---         BLOCKEND  ---      ---       LVL=0

      0100C49FH   BLOCK     CODE     ---       LVL=0
      0200C85FH   SYMBOL    XDATA    ---       p
      0100C49FH   LINE      CODE     ---       #416
      0100C4A5H   LINE      CODE     ---       #417
      0100C4A5H   LINE      CODE     ---       #418
      0100C4B0H   LINE      CODE     ---       #419
      0100C4B0H   LINE      CODE     ---       #421
      0100C4B0H   LINE      CODE     ---       #422
      0100C4C6H   LINE      CODE     ---       #423
      0100C4C6H   LINE      CODE     ---       #424
      0100C4C6H   LINE      CODE     ---       #425
      0100C4C6H   LINE      CODE     ---       #426
      0100C4C6H   LINE      CODE     ---       #427
      0100C4C6H   LINE      CODE     ---       #429
      0100C4C9H   LINE      CODE     ---       #430
      0100C4CFH   LINE      CODE     ---       #432
      0100C4D1H   LINE      CODE     ---       #433
      0100C4D1H   LINE      CODE     ---       #434
      0100C4D1H   LINE      CODE     ---       #436
      0100C4DAH   LINE      CODE     ---       #437
      0100C4E3H   LINE      CODE     ---       #439
      0100C4E3H   LINE      CODE     ---       #440
      0100C4E3H   LINE      CODE     ---       #441
      0100C4E3H   LINE      CODE     ---       #443
      0100C4E3H   LINE      CODE     ---       #444
      0100C4E3H   LINE      CODE     ---       #445
      ---         BLOCKEND  ---      ---       LVL=0

      0100CD7BH   BLOCK     CODE     ---       LVL=0
      0200C85AH   SYMBOL    XDATA    ---       p
      00000005H   SYMBOL    DATA     BYTE      key
      0100CD7BH   LINE      CODE     ---       #447
      0100CD81H   LINE      CODE     ---       #448
      0100CD81H   LINE      CODE     ---       #449
      0100CD99H   LINE      CODE     ---       #451
      ---         BLOCKEND  ---      ---       LVL=0

      01009BDFH   BLOCK     CODE     ---       LVL=0
      0200C853H   SYMBOL    XDATA    ---       p_scenc_infor
      01009BE5H   BLOCK     CODE     NEAR LAB  LVL=1
      0200C856H   SYMBOL    XDATA    WORD      key_nb
      0200C858H   SYMBOL    XDATA    WORD      size_cal
      ---         BLOCKEND  ---      ---       LVL=1
      01009BDFH   LINE      CODE     ---       #454
      01009BE5H   LINE      CODE     ---       #455
      01009BE5H   LINE      CODE     ---       #456
      01009BE9H   LINE      CODE     ---       #457
      01009BECH   LINE      CODE     ---       #475
      01009BF2H   LINE      CODE     ---       #476
      01009C24H   LINE      CODE     ---       #477
      01009C24H   LINE      CODE     ---       #481
      01009C24H   LINE      CODE     ---       #485
      01009C24H   LINE      CODE     ---       #487
      01009C24H   LINE      CODE     ---       #488
      01009C24H   LINE      CODE     ---       #489
      01009C26H   LINE      CODE     ---       #490
      01009C58H   LINE      CODE     ---       #491
      01009C58H   LINE      CODE     ---       #493
      01009C61H   LINE      CODE     ---       #495
      01009C6BH   LINE      CODE     ---       #498
      01009C74H   LINE      CODE     ---       #499
      01009C7AH   LINE      CODE     ---       #500
LX51 LINKER/LOCATER V4.66.97.0                                                        09/27/2023  17:05:17  PAGE 157


      01009C81H   LINE      CODE     ---       #501
      01009C81H   LINE      CODE     ---       #502
      ---         BLOCKEND  ---      ---       LVL=0

      01004240H   BLOCK     CODE     ---       LVL=0
      0200C861H   SYMBOL    XDATA    ---       p
      0200C864H   SYMBOL    XDATA    ---       p_scenc_infor
      0200C867H   SYMBOL    XDATA    ---       p_module_scene
      0200C86AH   SYMBOL    XDATA    WORD      index
      0200C86CH   SYMBOL    XDATA    BYTE      edit_sta
      01004246H   BLOCK     CODE     NEAR LAB  LVL=1
      0200C86DH   SYMBOL    XDATA    ---       temp_tab
      ---         BLOCKEND  ---      ---       LVL=1
      01004240H   LINE      CODE     ---       #504
      01004246H   LINE      CODE     ---       #505
      01004246H   LINE      CODE     ---       #508
      01004253H   LINE      CODE     ---       #509
      0100425FH   LINE      CODE     ---       #510
      0100425FH   LINE      CODE     ---       #511
      0100426AH   LINE      CODE     ---       #512
      0100426CH   LINE      CODE     ---       #513
      0100427BH   LINE      CODE     ---       #514
      0100427BH   LINE      CODE     ---       #515
      01004289H   LINE      CODE     ---       #516
      01004289H   LINE      CODE     ---       #518
      01004289H   LINE      CODE     ---       #520
      01004289H   LINE      CODE     ---       #521
      01004295H   LINE      CODE     ---       #522
      0100429EH   LINE      CODE     ---       #523
      010042AAH   LINE      CODE     ---       #524
      010042B6H   LINE      CODE     ---       #525
      010042C2H   LINE      CODE     ---       #526
      010042C7H   LINE      CODE     ---       #527
      010042DEH   LINE      CODE     ---       #528
      010042E7H   LINE      CODE     ---       #530
      01004309H   LINE      CODE     ---       #531
      01004309H   LINE      CODE     ---       #532
      01004309H   LINE      CODE     ---       #533
      0100431BH   LINE      CODE     ---       #535
      01004321H   LINE      CODE     ---       #536
      01004321H   LINE      CODE     ---       #537
      01004327H   LINE      CODE     ---       #538
      01004329H   LINE      CODE     ---       #539
      01004329H   LINE      CODE     ---       #540
      01004329H   LINE      CODE     ---       #542
      0100432FH   LINE      CODE     ---       #543
      0100432FH   LINE      CODE     ---       #544
      01004338H   LINE      CODE     ---       #545
      0100433AH   LINE      CODE     ---       #546
      0100433AH   LINE      CODE     ---       #547
      0100433AH   LINE      CODE     ---       #549
      0100434CH   LINE      CODE     ---       #550
      0100435EH   LINE      CODE     ---       #551
      01004376H   LINE      CODE     ---       #552
      01004379H   LINE      CODE     ---       #553
      01004379H   LINE      CODE     ---       #554
      01004379H   LINE      CODE     ---       #556
      0100438DH   LINE      CODE     ---       #558
      0100438DH   LINE      CODE     ---       #559
      010043A4H   LINE      CODE     ---       #561
      010043A6H   LINE      CODE     ---       #562
      010043A6H   LINE      CODE     ---       #563
      010043A6H   LINE      CODE     ---       #565
      010043B8H   LINE      CODE     ---       #567
      010043B8H   LINE      CODE     ---       #568
LX51 LINKER/LOCATER V4.66.97.0                                                        09/27/2023  17:05:17  PAGE 158


      010043C1H   LINE      CODE     ---       #570
      010043C3H   LINE      CODE     ---       #571
      010043C3H   LINE      CODE     ---       #572
      010043C3H   LINE      CODE     ---       #574
      010043CCH   LINE      CODE     ---       #576
      010043CCH   LINE      CODE     ---       #577
      010043DEH   LINE      CODE     ---       #579
      010043DEH   LINE      CODE     ---       #580
      010043DEH   LINE      CODE     ---       #582
      010043EDH   LINE      CODE     ---       #584
      010043EDH   LINE      CODE     ---       #585
      01004405H   LINE      CODE     ---       #587
      01004405H   LINE      CODE     ---       #588
      01004405H   LINE      CODE     ---       #590
      0100440EH   LINE      CODE     ---       #591
      ---         BLOCKEND  ---      ---       LVL=0

      01007088H   BLOCK     CODE     ---       LVL=0
      0200C861H   SYMBOL    XDATA    ---       p
      0200C864H   SYMBOL    XDATA    ---       p_scenc_infor
      0200C867H   SYMBOL    XDATA    ---       p_module_scene
      0200C86AH   SYMBOL    XDATA    WORD      index
      0200C86CH   SYMBOL    XDATA    BYTE      edit_sta
      0100708EH   BLOCK     CODE     NEAR LAB  LVL=1
      0200C86DH   SYMBOL    XDATA    WORD      scene_dim_enable
      0200C86FH   SYMBOL    XDATA    WORD      scene_dim_enable_adr
      0200C871H   SYMBOL    XDATA    WORD      scene_dim_gear_adr
      0200C873H   SYMBOL    XDATA    ---       temp_tab
      0200C87BH   SYMBOL    XDATA    ---       dim_tab
      ---         BLOCKEND  ---      ---       LVL=1
      01007088H   LINE      CODE     ---       #594
      0100708EH   LINE      CODE     ---       #595
      0100708EH   LINE      CODE     ---       #596
      01007091H   LINE      CODE     ---       #597
      01007096H   LINE      CODE     ---       #598
      010070AEH   LINE      CODE     ---       #599
      010070BBH   LINE      CODE     ---       #600
      010070BBH   LINE      CODE     ---       #601
      010070C5H   LINE      CODE     ---       #602
      010070CDH   LINE      CODE     ---       #603
      010070CFH   LINE      CODE     ---       #604
      010070D8H   LINE      CODE     ---       #605
      010070D8H   LINE      CODE     ---       #606
      010070E2H   LINE      CODE     ---       #607
      010070EAH   LINE      CODE     ---       #608
      010070EAH   LINE      CODE     ---       #610
      010070EAH   LINE      CODE     ---       #612
      010070EAH   LINE      CODE     ---       #613
      010070F6H   LINE      CODE     ---       #614
      01007102H   LINE      CODE     ---       #615
      0100710EH   LINE      CODE     ---       #616
      0100711AH   LINE      CODE     ---       #617
      0100711FH   LINE      CODE     ---       #618
      01007136H   LINE      CODE     ---       #619
      0100713FH   LINE      CODE     ---       #620
      0100714EH   LINE      CODE     ---       #621
      01007182H   LINE      CODE     ---       #623
      01007191H   LINE      CODE     ---       #624
      010071A3H   LINE      CODE     ---       #625
      010071B2H   LINE      CODE     ---       #626
      010071C1H   LINE      CODE     ---       #627
      010071D0H   LINE      CODE     ---       #628
      010071DCH   LINE      CODE     ---       #629
      010071E9H   LINE      CODE     ---       #630
      ---         BLOCKEND  ---      ---       LVL=0
LX51 LINKER/LOCATER V4.66.97.0                                                        09/27/2023  17:05:17  PAGE 159



      01009DC7H   BLOCK     CODE     ---       LVL=0
      0200C8B8H   SYMBOL    XDATA    ---       p_scenc_infor
      01009DC7H   LINE      CODE     ---       #632
      01009DCDH   LINE      CODE     ---       #633
      01009DCDH   LINE      CODE     ---       #634
      01009DE4H   LINE      CODE     ---       #635
      01009DE4H   LINE      CODE     ---       #636
      01009DFEH   LINE      CODE     ---       #638
      01009E0CH   LINE      CODE     ---       #639
      01009E1DH   LINE      CODE     ---       #641
      01009E37H   LINE      CODE     ---       #642
      01009E58H   LINE      CODE     ---       #643
      01009E58H   LINE      CODE     ---       #645
      01009E58H   LINE      CODE     ---       #647
      01009E58H   LINE      CODE     ---       #648
      ---         BLOCKEND  ---      ---       LVL=0

      010090C5H   BLOCK     CODE     ---       LVL=0
      0200C8B8H   SYMBOL    XDATA    ---       p_scenc_infor
      010090C5H   LINE      CODE     ---       #650
      010090CBH   LINE      CODE     ---       #651
      010090CBH   LINE      CODE     ---       #652
      010090DEH   LINE      CODE     ---       #653
      010090DEH   LINE      CODE     ---       #654
      010090F7H   LINE      CODE     ---       #655
      01009107H   LINE      CODE     ---       #656
      01009112H   LINE      CODE     ---       #657
      0100911DH   LINE      CODE     ---       #658
      0100912DH   LINE      CODE     ---       #659
      01009140H   LINE      CODE     ---       #660
      01009153H   LINE      CODE     ---       #661
      0100916BH   LINE      CODE     ---       #662
      0100916BH   LINE      CODE     ---       #664
      0100916BH   LINE      CODE     ---       #666
      0100916BH   LINE      CODE     ---       #667
      ---         BLOCKEND  ---      ---       LVL=0

      0100972AH   BLOCK     CODE     ---       LVL=0
      0200C853H   SYMBOL    XDATA    ---       p
      0100972AH   LINE      CODE     ---       #668
      01009730H   LINE      CODE     ---       #669
      01009730H   LINE      CODE     ---       #672
      0100973DH   LINE      CODE     ---       #673
      0100973DH   LINE      CODE     ---       #675
      01009742H   LINE      CODE     ---       #676
      01009742H   LINE      CODE     ---       #677
      0100974BH   LINE      CODE     ---       #679
      01009750H   LINE      CODE     ---       #680
      01009755H   LINE      CODE     ---       #681
      0100975FH   LINE      CODE     ---       #683
      0100975FH   LINE      CODE     ---       #684
      01009765H   LINE      CODE     ---       #685
      01009765H   LINE      CODE     ---       #686
      0100976DH   LINE      CODE     ---       #687
      0100976DH   LINE      CODE     ---       #688
      01009777H   LINE      CODE     ---       #689
      01009777H   LINE      CODE     ---       #690
      0100977DH   LINE      CODE     ---       #691
      0100978AH   LINE      CODE     ---       #692
      0100978AH   LINE      CODE     ---       #693
      01009792H   LINE      CODE     ---       #694
      0100979FH   LINE      CODE     ---       #695
      010097A5H   LINE      CODE     ---       #696
      010097ABH   LINE      CODE     ---       #697
LX51 LINKER/LOCATER V4.66.97.0                                                        09/27/2023  17:05:17  PAGE 160


      010097ABH   LINE      CODE     ---       #698
      010097ADH   LINE      CODE     ---       #700
      010097ADH   LINE      CODE     ---       #701
      010097B3H   LINE      CODE     ---       #702
      010097B3H   LINE      CODE     ---       #703
      010097B3H   LINE      CODE     ---       #704
      010097B3H   LINE      CODE     ---       #705
      010097BDH   LINE      CODE     ---       #706
      010097BDH   LINE      CODE     ---       #707
      010097BFH   LINE      CODE     ---       #708
      010097C3H   LINE      CODE     ---       #709
      010097C7H   LINE      CODE     ---       #710
      010097D1H   LINE      CODE     ---       #711
      010097D6H   LINE      CODE     ---       #713
      010097D9H   LINE      CODE     ---       #714
      010097D9H   LINE      CODE     ---       #715
      ---         BLOCKEND  ---      ---       LVL=0

      01008DC7H   BLOCK     CODE     ---       LVL=0
      0200C853H   SYMBOL    XDATA    ---       p
      01008DCDH   BLOCK     CODE     NEAR LAB  LVL=1
      0200BFCBH   SYMBOL    XDATA    BYTE      i
      0200C856H   SYMBOL    XDATA    BYTE      j
      0200C857H   SYMBOL    XDATA    BYTE      index
      0200C858H   SYMBOL    XDATA    ---       scenc_infor
      ---         BLOCKEND  ---      ---       LVL=1
      01008DC7H   LINE      CODE     ---       #717
      01008DCDH   LINE      CODE     ---       #718
      01008DCDH   LINE      CODE     ---       #720
      01008DD2H   LINE      CODE     ---       #721
      01008DD4H   LINE      CODE     ---       #722
      01008DE1H   LINE      CODE     ---       #734
      01008DF4H   LINE      CODE     ---       #735
      01008DF4H   LINE      CODE     ---       #737
      01008DFAH   LINE      CODE     ---       #739
      01008DFAH   LINE      CODE     ---       #740
      01008E00H   LINE      CODE     ---       #741
      01008E00H   LINE      CODE     ---       #742
      01008E07H   LINE      CODE     ---       #743
      01008E07H   LINE      CODE     ---       #744
      01008E0BH   LINE      CODE     ---       #745
      01008E10H   LINE      CODE     ---       #746
      01008E1AH   LINE      CODE     ---       #748
      01008E1AH   LINE      CODE     ---       #749
      01008E20H   LINE      CODE     ---       #750
      01008E24H   LINE      CODE     ---       #751
      01008E28H   LINE      CODE     ---       #752
      01008E2CH   LINE      CODE     ---       #753
      01008E2CH   LINE      CODE     ---       #775
      01008E3EH   LINE      CODE     ---       #776
      01008E3EH   LINE      CODE     ---       #777
      01008E41H   LINE      CODE     ---       #778
      01008E47H   LINE      CODE     ---       #779
      01008E4DH   LINE      CODE     ---       #780
      01008E56H   LINE      CODE     ---       #781
      01008E5CH   LINE      CODE     ---       #782
      01008E5CH   LINE      CODE     ---       #783
      01008E69H   LINE      CODE     ---       #784
      01008E69H   LINE      CODE     ---       #787
      01008E6BH   LINE      CODE     ---       #788
      01008E6FH   LINE      CODE     ---       #792
      01008E79H   LINE      CODE     ---       #794
      01008E82H   LINE      CODE     ---       #797
      01008E87H   LINE      CODE     ---       #798
      01008E87H   LINE      CODE     ---       #799
LX51 LINKER/LOCATER V4.66.97.0                                                        09/27/2023  17:05:17  PAGE 161


      ---         BLOCKEND  ---      ---       LVL=0

      0100A6CAH   BLOCK     CODE     ---       LVL=0
      0100A6CAH   BLOCK     CODE     NEAR LAB  LVL=1
      0200BFCCH   SYMBOL    XDATA    BYTE      i
      ---         BLOCKEND  ---      ---       LVL=1
      0100A6CAH   LINE      CODE     ---       #801
      0100A6CAH   LINE      CODE     ---       #802
      0100A6CAH   LINE      CODE     ---       #804
      0100A6DCH   LINE      CODE     ---       #805
      0100A6DCH   LINE      CODE     ---       #808
      0100A6F7H   LINE      CODE     ---       #809
      0100A6F7H   LINE      CODE     ---       #810
      0100A6FAH   LINE      CODE     ---       #811
      0100A703H   LINE      CODE     ---       #812
      0100A70CH   LINE      CODE     ---       #813
      0100A715H   LINE      CODE     ---       #814
      0100A715H   LINE      CODE     ---       #815
      0100A717H   LINE      CODE     ---       #816
      0100A71DH   LINE      CODE     ---       #817
      0100A71DH   LINE      CODE     ---       #821
      0100A71DH   LINE      CODE     ---       #822
      0100A71DH   LINE      CODE     ---       #823
      0100A72AH   LINE      CODE     ---       #824
      0100A72AH   LINE      CODE     ---       #826
      0100A72DH   LINE      CODE     ---       #827
      0100A732H   LINE      CODE     ---       #828
      0100A736H   LINE      CODE     ---       #829
      0100A73CH   LINE      CODE     ---       #830
      0100A740H   LINE      CODE     ---       #831
      0100A743H   LINE      CODE     ---       #832
      0100A746H   LINE      CODE     ---       #833
      0100A74DH   LINE      CODE     ---       #834
      0100A74DH   LINE      CODE     ---       #835
      ---         BLOCKEND  ---      ---       LVL=0

      01004B54H   BLOCK     CODE     ---       LVL=0
      0200C861H   SYMBOL    XDATA    ---       p_scenc_infor
      01004B5AH   BLOCK     CODE     NEAR LAB  LVL=1
      0200C864H   SYMBOL    XDATA    ---       mod_infom_tab
      0200C8F1H   SYMBOL    XDATA    ---       module_name_1
      0200C902H   SYMBOL    XDATA    ---       led_on_tb
      0200C933H   SYMBOL    XDATA    ---       led_off_tb
      0200C964H   SYMBOL    XDATA    WORD      on_sta
      0200C966H   SYMBOL    XDATA    WORD      off_sta
      0200C968H   SYMBOL    XDATA    BYTE      i
      0200C969H   SYMBOL    XDATA    BYTE      j
      0200C96AH   SYMBOL    XDATA    BYTE      k
      0200C96BH   SYMBOL    XDATA    BYTE      l
      0200C96CH   SYMBOL    XDATA    ---       dim_duty_tb
      0200C994H   SYMBOL    XDATA    ---       dim_duty_str
      0200C99EH   SYMBOL    XDATA    BYTE      str_len_cal
      0200C99FH   SYMBOL    XDATA    BYTE      str_adr
      0200C9A0H   SYMBOL    XDATA    ---       channel
      0200C9D0H   SYMBOL    XDATA    ---       module_read
      ---         BLOCKEND  ---      ---       LVL=1
      01004B54H   LINE      CODE     ---       #837
      01004B5AH   LINE      CODE     ---       #838
      01004B5AH   LINE      CODE     ---       #839
      01004B67H   LINE      CODE     ---       #840
      01004B74H   LINE      CODE     ---       #841
      01004B7FH   LINE      CODE     ---       #842
      01004B8AH   LINE      CODE     ---       #843
      01004B8EH   LINE      CODE     ---       #844
      01004B94H   LINE      CODE     ---       #845
LX51 LINKER/LOCATER V4.66.97.0                                                        09/27/2023  17:05:17  PAGE 162


      01004BA1H   LINE      CODE     ---       #846
      01004BB4H   LINE      CODE     ---       #847
      01004BB9H   LINE      CODE     ---       #848
      01004BBBH   LINE      CODE     ---       #849
      01004BC8H   LINE      CODE     ---       #850
      01004BDBH   LINE      CODE     ---       #851
      01004BF5H   LINE      CODE     ---       #852
      01004BF5H   LINE      CODE     ---       #853
      01004C0FH   LINE      CODE     ---       #855
      01004C27H   LINE      CODE     ---       #857
      01004C33H   LINE      CODE     ---       #858
      01004C33H   LINE      CODE     ---       #859
      01004C52H   LINE      CODE     ---       #860
      01004C52H   LINE      CODE     ---       #861
      01004C75H   LINE      CODE     ---       #862
      01004C7BH   LINE      CODE     ---       #863
      01004C7BH   LINE      CODE     ---       #864
      01004C80H   LINE      CODE     ---       #865
      01004C91H   LINE      CODE     ---       #866
      01004C91H   LINE      CODE     ---       #867
      01004CB0H   LINE      CODE     ---       #868
      01004CB0H   LINE      CODE     ---       #869
      01004CD3H   LINE      CODE     ---       #870
      01004CD9H   LINE      CODE     ---       #871
      01004CD9H   LINE      CODE     ---       #872
      01004CDEH   LINE      CODE     ---       #876
      01004CDEH   LINE      CODE     ---       #878
      01004CDEH   LINE      CODE     ---       #879
      01004CEEH   LINE      CODE     ---       #880
      01004CEEH   LINE      CODE     ---       #881
      01004D22H   LINE      CODE     ---       #882
      01004D22H   LINE      CODE     ---       #884
      01004D5BH   LINE      CODE     ---       #886
      01004D69H   LINE      CODE     ---       #888
      01004D7EH   LINE      CODE     ---       #889
      01004D85H   LINE      CODE     ---       #891
      01004DA7H   LINE      CODE     ---       #892
      01004DB0H   LINE      CODE     ---       #893
      01004DB6H   LINE      CODE     ---       #894
      01004DB6H   LINE      CODE     ---       #895
      01004DBCH   LINE      CODE     ---       #898
      01004DBCH   LINE      CODE     ---       #901
      01004DCFH   LINE      CODE     ---       #903
      01004DE2H   LINE      CODE     ---       #904
      01004E01H   LINE      CODE     ---       #916
      01004E15H   LINE      CODE     ---       #917
      01004E2FH   LINE      CODE     ---       #918
      01004E43H   LINE      CODE     ---       #919
      01004E57H   LINE      CODE     ---       #920
      01004E6BH   LINE      CODE     ---       #921
      01004E7DH   LINE      CODE     ---       #922
      01004E87H   LINE      CODE     ---       #923
      01004E9BH   LINE      CODE     ---       #925
      01004EB1H   LINE      CODE     ---       #929
      ---         BLOCKEND  ---      ---       LVL=0

      01005A8BH   BLOCK     CODE     ---       LVL=0
      0200C853H   SYMBOL    XDATA    ---       p
      0200C856H   SYMBOL    XDATA    ---       p_scenc_infor
      0200C859H   SYMBOL    XDATA    ---       p_module_scene
      01005A91H   BLOCK     CODE     NEAR LAB  LVL=1
      0200C85CH   SYMBOL    XDATA    WORD      key_nb
      0200C85EH   SYMBOL    XDATA    BYTE      i
      0200C85FH   SYMBOL    XDATA    WORD      j
      ---         BLOCKEND  ---      ---       LVL=1
LX51 LINKER/LOCATER V4.66.97.0                                                        09/27/2023  17:05:17  PAGE 163


      01005A8BH   LINE      CODE     ---       #933
      01005A91H   LINE      CODE     ---       #934
      01005A91H   LINE      CODE     ---       #935
      01005A94H   LINE      CODE     ---       #936
      01005A94H   LINE      CODE     ---       #937
      01005A97H   LINE      CODE     ---       #939
      01005A9DH   LINE      CODE     ---       #940
      01005AB6H   LINE      CODE     ---       #941
      01005AB6H   LINE      CODE     ---       #944
      01005AC6H   LINE      CODE     ---       #947
      01005AD2H   LINE      CODE     ---       #949
      01005AD2H   LINE      CODE     ---       #950
      01005AD2H   LINE      CODE     ---       #951
      01005AD5H   LINE      CODE     ---       #952
      01005AD8H   LINE      CODE     ---       #962
      01005AF1H   LINE      CODE     ---       #963
      01005B19H   LINE      CODE     ---       #964
      01005B1FH   LINE      CODE     ---       #966
      01005B26H   LINE      CODE     ---       #967
      01005B37H   LINE      CODE     ---       #968
      01005B37H   LINE      CODE     ---       #969
      01005B3AH   LINE      CODE     ---       #970
      01005B3AH   LINE      CODE     ---       #972
      01005B3DH   LINE      CODE     ---       #974
      01005B3DH   LINE      CODE     ---       #975
      01005B40H   LINE      CODE     ---       #976
      01005B42H   LINE      CODE     ---       #977
      01005B42H   LINE      CODE     ---       #980
      01005B45H   LINE      CODE     ---       #981
      01005B58H   LINE      CODE     ---       #982
      01005B58H   LINE      CODE     ---       #989
      01005B5EH   LINE      CODE     ---       #990
      01005B62H   LINE      CODE     ---       #991
      01005B62H   LINE      CODE     ---       #993
      01005B65H   LINE      CODE     ---       #994
      01005B78H   LINE      CODE     ---       #995
      01005B78H   LINE      CODE     ---       #1001
      01005B91H   LINE      CODE     ---       #1002
      01005BB9H   LINE      CODE     ---       #1003
      01005BBFH   LINE      CODE     ---       #1005
      01005BBFH   LINE      CODE     ---       #1006
      01005BBFH   LINE      CODE     ---       #1007
      01005BC2H   LINE      CODE     ---       #1008
      01005BC5H   LINE      CODE     ---       #1010
      01005BCCH   LINE      CODE     ---       #1011
      01005BDDH   LINE      CODE     ---       #1012
      01005BDDH   LINE      CODE     ---       #1013
      01005BE0H   LINE      CODE     ---       #1014
      01005BE0H   LINE      CODE     ---       #1016
      01005BE2H   LINE      CODE     ---       #1018
      01005BE2H   LINE      CODE     ---       #1019
      01005BE5H   LINE      CODE     ---       #1020
      01005BE7H   LINE      CODE     ---       #1021
      01005BE7H   LINE      CODE     ---       #1024
      01005BE9H   LINE      CODE     ---       #1025
      01005BFCH   LINE      CODE     ---       #1026
      01005BFCH   LINE      CODE     ---       #1041
      01005C02H   LINE      CODE     ---       #1042
      01005C07H   LINE      CODE     ---       #1044
      01005C0EH   LINE      CODE     ---       #1048
      01005C18H   LINE      CODE     ---       #1049
      01005C18H   LINE      CODE     ---       #1050
      ---         BLOCKEND  ---      ---       LVL=0

      0100CC5AH   BLOCK     CODE     ---       LVL=0
LX51 LINKER/LOCATER V4.66.97.0                                                        09/27/2023  17:05:17  PAGE 164


      0200C859H   SYMBOL    XDATA    ---       p_module_scene
      0100CC5AH   LINE      CODE     ---       #1052
      0100CC60H   LINE      CODE     ---       #1053
      0100CC60H   LINE      CODE     ---       #1054
      0100CC6CH   LINE      CODE     ---       #1056
      0100CC6FH   LINE      CODE     ---       #1057
      0100CC72H   LINE      CODE     ---       #1058
      0100CC75H   LINE      CODE     ---       #1059
      0100CC7BH   LINE      CODE     ---       #1060
      ---         BLOCKEND  ---      ---       LVL=0

      01007323H   BLOCK     CODE     ---       LVL=0
      0200C859H   SYMBOL    XDATA    ---       p_module_scene
      01007329H   BLOCK     CODE     NEAR LAB  LVL=1
      0200C85CH   SYMBOL    XDATA    BYTE      index
      0200C85DH   SYMBOL    XDATA    BYTE      i
      0200C85EH   SYMBOL    XDATA    BYTE      j
      ---         BLOCKEND  ---      ---       LVL=1
      01007323H   LINE      CODE     ---       #1064
      01007329H   LINE      CODE     ---       #1065
      01007329H   LINE      CODE     ---       #1067
      0100732CH   LINE      CODE     ---       #1068
      0100732FH   LINE      CODE     ---       #1070
      01007338H   LINE      CODE     ---       #1072
      01007345H   LINE      CODE     ---       #1073
      01007353H   LINE      CODE     ---       #1074
      01007353H   LINE      CODE     ---       #1076
      01007353H   LINE      CODE     ---       #1078
      0100735AH   LINE      CODE     ---       #1080
      01007368H   LINE      CODE     ---       #1082
      01007375H   LINE      CODE     ---       #1083
      01007382H   LINE      CODE     ---       #1084
      01007395H   LINE      CODE     ---       #1085
      010073A2H   LINE      CODE     ---       #1086
      010073B4H   LINE      CODE     ---       #1087
      010073B4H   LINE      CODE     ---       #1088
      010073C5H   LINE      CODE     ---       #1089
      010073C5H   LINE      CODE     ---       #1090
      010073EAH   LINE      CODE     ---       #1091
      010073EAH   LINE      CODE     ---       #1092
      010073FBH   LINE      CODE     ---       #1093
      010073FDH   LINE      CODE     ---       #1095
      010073FDH   LINE      CODE     ---       #1096
      01007412H   LINE      CODE     ---       #1097
      01007412H   LINE      CODE     ---       #1098
      0100741AH   LINE      CODE     ---       #1099
      01007422H   LINE      CODE     ---       #1101
      0100742FH   LINE      CODE     ---       #1102
      0100742FH   LINE      CODE     ---       #1103
      01007439H   LINE      CODE     ---       #1104
      01007441H   LINE      CODE     ---       #1106
      01007446H   LINE      CODE     ---       #1107
      0100744EH   LINE      CODE     ---       #1108
      01007459H   LINE      CODE     ---       #1110
      ---         BLOCKEND  ---      ---       LVL=0

      0100C9A9H   BLOCK     CODE     ---       LVL=0
      0200C859H   SYMBOL    XDATA    ---       p_module_scene
      0100C9A9H   LINE      CODE     ---       #1112
      0100C9AFH   LINE      CODE     ---       #1113
      0100C9AFH   LINE      CODE     ---       #1115
      0100C9B2H   LINE      CODE     ---       #1116
      0100C9B5H   LINE      CODE     ---       #1117
      0100C9BEH   LINE      CODE     ---       #1118
      0100C9C1H   LINE      CODE     ---       #1119
LX51 LINKER/LOCATER V4.66.97.0                                                        09/27/2023  17:05:17  PAGE 165


      0100C9CAH   LINE      CODE     ---       #1120
      0100C9CDH   LINE      CODE     ---       #1121
      0100C9D3H   LINE      CODE     ---       #1122
      ---         BLOCKEND  ---      ---       LVL=0

      0100C5F0H   BLOCK     CODE     ---       LVL=0
      0200C859H   SYMBOL    XDATA    ---       p_module_scene
      0100C5F0H   LINE      CODE     ---       #1125
      0100C5F6H   LINE      CODE     ---       #1126
      0100C5F6H   LINE      CODE     ---       #1127
      0100C601H   LINE      CODE     ---       #1128
      0100C60CH   LINE      CODE     ---       #1129
      0100C615H   LINE      CODE     ---       #1130
      0100C618H   LINE      CODE     ---       #1131
      0100C627H   LINE      CODE     ---       #1134
      ---         BLOCKEND  ---      ---       LVL=0

      01008D03H   BLOCK     CODE     ---       LVL=0
      0200C853H   SYMBOL    XDATA    ---       p_module_scene
      01008D09H   BLOCK     CODE     NEAR LAB  LVL=1
      0200C856H   SYMBOL    XDATA    WORD      key_nb
      0200C858H   SYMBOL    XDATA    BYTE      edit_sta
      ---         BLOCKEND  ---      ---       LVL=1
      01008D03H   LINE      CODE     ---       #1137
      01008D09H   LINE      CODE     ---       #1138
      01008D09H   LINE      CODE     ---       #1139
      01008D10H   LINE      CODE     ---       #1140
      01008D12H   LINE      CODE     ---       #1142
      01008D15H   LINE      CODE     ---       #1143
      01008D1DH   LINE      CODE     ---       #1144
      01008D1DH   LINE      CODE     ---       #1145
      01008D29H   LINE      CODE     ---       #1146
      01008D29H   LINE      CODE     ---       #1147
      01008D29H   LINE      CODE     ---       #1148
      01008D2FH   LINE      CODE     ---       #1150
      01008D31H   LINE      CODE     ---       #1151
      01008D31H   LINE      CODE     ---       #1154
      01008D37H   LINE      CODE     ---       #1155
      01008D37H   LINE      CODE     ---       #1156
      01008D37H   LINE      CODE     ---       #1157
      01008D3DH   LINE      CODE     ---       #1158
      01008D3DH   LINE      CODE     ---       #1159
      01008D42H   LINE      CODE     ---       #1160
      01008D4EH   LINE      CODE     ---       #1161
      01008D4EH   LINE      CODE     ---       #1162
      01008D56H   LINE      CODE     ---       #1163
      01008D5BH   LINE      CODE     ---       #1165
      01008D61H   LINE      CODE     ---       #1166
      01008D6AH   LINE      CODE     ---       #1170
      01008D6AH   LINE      CODE     ---       #1171
      01008D70H   LINE      CODE     ---       #1172
      01008D7CH   LINE      CODE     ---       #1173
      01008D7CH   LINE      CODE     ---       #1174
      01008D82H   LINE      CODE     ---       #1176
      01008D8BH   LINE      CODE     ---       #1177
      01008D96H   LINE      CODE     ---       #1178
      01008D96H   LINE      CODE     ---       #1180
      01008D96H   LINE      CODE     ---       #1181
      01008D9EH   LINE      CODE     ---       #1183
      01008DA3H   LINE      CODE     ---       #1184
      01008DB0H   LINE      CODE     ---       #1185
      01008DB6H   LINE      CODE     ---       #1186
      01008DBFH   LINE      CODE     ---       #1189
      01008DBFH   LINE      CODE     ---       #1190
      ---         BLOCKEND  ---      ---       LVL=0
LX51 LINKER/LOCATER V4.66.97.0                                                        09/27/2023  17:05:17  PAGE 166



      0100B500H   BLOCK     CODE     ---       LVL=0
      0200C85BH   SYMBOL    XDATA    ---       p_module_scene
      0100B500H   LINE      CODE     ---       #1193
      0100B506H   LINE      CODE     ---       #1194
      0100B506H   LINE      CODE     ---       #1195
      0100B50DH   LINE      CODE     ---       #1196
      0100B50DH   LINE      CODE     ---       #1198
      0100B50DH   LINE      CODE     ---       #1199
      0100B510H   LINE      CODE     ---       #1200
      0100B516H   LINE      CODE     ---       #1201
      0100B51AH   LINE      CODE     ---       #1202
      0100B523H   LINE      CODE     ---       #1203
      0100B52CH   LINE      CODE     ---       #1204
      0100B535H   LINE      CODE     ---       #1205
      0100B545H   LINE      CODE     ---       #1206
      0100B545H   LINE      CODE     ---       #1207
      0100B551H   LINE      CODE     ---       #1208
      0100B551H   LINE      CODE     ---       #1210
      0100B553H   LINE      CODE     ---       #1212
      0100B553H   LINE      CODE     ---       #1213
      0100B559H   LINE      CODE     ---       #1214
      0100B560H   LINE      CODE     ---       #1215
      0100B560H   LINE      CODE     ---       #1217
      ---         BLOCKEND  ---      ---       LVL=0

      0100CBA5H   BLOCK     CODE     ---       LVL=0
      0200C85BH   SYMBOL    XDATA    ---       p_module_scene
      0200C85EH   SYMBOL    XDATA    ---       p_scenc_infor
      0100CBA5H   LINE      CODE     ---       #1219
      0100CBA8H   LINE      CODE     ---       #1220
      0100CBA8H   LINE      CODE     ---       #1221
      0100CBABH   LINE      CODE     ---       #1222
      0100CBAEH   LINE      CODE     ---       #1223
      0100CBB4H   LINE      CODE     ---       #1224
      0100CBC0H   LINE      CODE     ---       #1225
      0100CBC3H   LINE      CODE     ---       #1226
      0100CBC9H   LINE      CODE     ---       #1227
      ---         BLOCKEND  ---      ---       LVL=0

      0100CE5BH   BLOCK     CODE     ---       LVL=0
      0200C85BH   SYMBOL    XDATA    ---       p_module_scene
      0200C85EH   SYMBOL    XDATA    ---       p_scenc_infor
      0100CE5BH   LINE      CODE     ---       #1243
      0100CE5EH   LINE      CODE     ---       #1244
      0100CE5EH   LINE      CODE     ---       #1251
      0100CE61H   LINE      CODE     ---       #1252
      0100CE64H   LINE      CODE     ---       #1253
      0100CE6AH   LINE      CODE     ---       #1254
      0100CE76H   LINE      CODE     ---       #1255
      0100CE79H   LINE      CODE     ---       #1256
      ---         BLOCKEND  ---      ---       LVL=0

      0100BAE9H   BLOCK     CODE     ---       LVL=0
      0200C85BH   SYMBOL    XDATA    ---       p_scenc_infor
      0100BAEFH   BLOCK     CODE     NEAR LAB  LVL=1
      0200C85EH   SYMBOL    XDATA    BYTE      index
      ---         BLOCKEND  ---      ---       LVL=1
      0100BAE9H   LINE      CODE     ---       #1259
      0100BAEFH   LINE      CODE     ---       #1260
      0100BAEFH   LINE      CODE     ---       #1261
      0100BAF4H   LINE      CODE     ---       #1263
      0100BAF7H   LINE      CODE     ---       #1264
      0100BAFFH   LINE      CODE     ---       #1266
      0100BB0CH   LINE      CODE     ---       #1268
LX51 LINKER/LOCATER V4.66.97.0                                                        09/27/2023  17:05:17  PAGE 167


      0100BB18H   LINE      CODE     ---       #1270
      0100BB1BH   LINE      CODE     ---       #1273
      0100BB2FH   LINE      CODE     ---       #1277
      0100BB38H   LINE      CODE     ---       #1278
      0100BB44H   LINE      CODE     ---       #1279
      ---         BLOCKEND  ---      ---       LVL=0

      0100745AH   BLOCK     CODE     ---       LVL=0
      0200C85BH   SYMBOL    XDATA    ---       p_scenc_infor
      01007460H   BLOCK     CODE     NEAR LAB  LVL=1
      00000007H   SYMBOL    DATA     BYTE      index
      ---         BLOCKEND  ---      ---       LVL=1
      0100745AH   LINE      CODE     ---       #1281
      01007460H   LINE      CODE     ---       #1282
      01007460H   LINE      CODE     ---       #1283
      01007462H   LINE      CODE     ---       #1287
      01007465H   LINE      CODE     ---       #1288
      0100746BH   LINE      CODE     ---       #1289
      0100746BH   LINE      CODE     ---       #1291
      0100746BH   LINE      CODE     ---       #1292
      01007474H   LINE      CODE     ---       #1295
      0100747BH   LINE      CODE     ---       #1296
      01007486H   LINE      CODE     ---       #1297
      01007486H   LINE      CODE     ---       #1298
      0100749AH   LINE      CODE     ---       #1299
      010074A5H   LINE      CODE     ---       #1300
      010074B1H   LINE      CODE     ---       #1301
      010074BDH   LINE      CODE     ---       #1305
      010074DEH   LINE      CODE     ---       #1306
      0100750BH   LINE      CODE     ---       #1307
      01007511H   LINE      CODE     ---       #1308
      01007513H   LINE      CODE     ---       #1310
      01007513H   LINE      CODE     ---       #1311
      0100754AH   LINE      CODE     ---       #1312
      0100754AH   LINE      CODE     ---       #1313
      01007568H   LINE      CODE     ---       #1314
      01007574H   LINE      CODE     ---       #1316
      01007583H   LINE      CODE     ---       #1318
      0100758CH   LINE      CODE     ---       #1319
      ---         BLOCKEND  ---      ---       LVL=0

      0100B8BBH   BLOCK     CODE     ---       LVL=0
      0200C85BH   SYMBOL    XDATA    ---       p_module_scene
      0200C85EH   SYMBOL    XDATA    ---       p_scenc_infor
      0100B8BBH   LINE      CODE     ---       #1321
      0100B8C1H   LINE      CODE     ---       #1322
      0100B8C1H   LINE      CODE     ---       #1323
      0100B8C7H   LINE      CODE     ---       #1325
      0100B8D8H   LINE      CODE     ---       #1326
      0100B8DBH   LINE      CODE     ---       #1327
      0100B8DEH   LINE      CODE     ---       #1328
      0100B8EAH   LINE      CODE     ---       #1329
      0100B8F9H   LINE      CODE     ---       #1330
      0100B8FFH   LINE      CODE     ---       #1331
      0100B90AH   LINE      CODE     ---       #1332
      0100B910H   LINE      CODE     ---       #1333
      ---         BLOCKEND  ---      ---       LVL=0

      01008B77H   BLOCK     CODE     ---       LVL=0
      0200C853H   SYMBOL    XDATA    ---       p_module_scene
      0200C856H   SYMBOL    XDATA    ---       p_scenc_infor
      01008B7DH   BLOCK     CODE     NEAR LAB  LVL=1
      0200C859H   SYMBOL    XDATA    WORD      key_nb
      ---         BLOCKEND  ---      ---       LVL=1
      01008B77H   LINE      CODE     ---       #1344
LX51 LINKER/LOCATER V4.66.97.0                                                        09/27/2023  17:05:17  PAGE 168


      01008B7DH   LINE      CODE     ---       #1345
      01008B7DH   LINE      CODE     ---       #1346
      01008B84H   LINE      CODE     ---       #1347
      01008B87H   LINE      CODE     ---       #1348
      01008B8FH   LINE      CODE     ---       #1349
      01008B8FH   LINE      CODE     ---       #1351
      01008BA2H   LINE      CODE     ---       #1352
      01008BA2H   LINE      CODE     ---       #1353
      01008BA2H   LINE      CODE     ---       #1355
      01008BA8H   LINE      CODE     ---       #1356
      01008BAAH   LINE      CODE     ---       #1357
      01008BAAH   LINE      CODE     ---       #1358
      01008BB6H   LINE      CODE     ---       #1359
      01008BB8H   LINE      CODE     ---       #1360
      01008BB8H   LINE      CODE     ---       #1361
      01008BC3H   LINE      CODE     ---       #1362
      01008BC6H   LINE      CODE     ---       #1363
      01008BC8H   LINE      CODE     ---       #1364
      01008BC8H   LINE      CODE     ---       #1367
      01008BC8H   LINE      CODE     ---       #1368
      01008BC8H   LINE      CODE     ---       #1370
      01008BCEH   LINE      CODE     ---       #1371
      01008BCEH   LINE      CODE     ---       #1372
      01008BCEH   LINE      CODE     ---       #1375
      01008BCEH   LINE      CODE     ---       #1376
      01008BCEH   LINE      CODE     ---       #1377
      01008BCEH   LINE      CODE     ---       #1378
      01008BCEH   LINE      CODE     ---       #1379
      01008BD4H   LINE      CODE     ---       #1380
      01008BD4H   LINE      CODE     ---       #1384
      01008BD9H   LINE      CODE     ---       #1385
      01008BE5H   LINE      CODE     ---       #1386
      01008BE5H   LINE      CODE     ---       #1387
      01008BEDH   LINE      CODE     ---       #1388
      01008BEDH   LINE      CODE     ---       #1389
      01008BF6H   LINE      CODE     ---       #1390
      01008C02H   LINE      CODE     ---       #1393
      01008C04H   LINE      CODE     ---       #1395
      01008C04H   LINE      CODE     ---       #1396
      01008C10H   LINE      CODE     ---       #1397
      01008C10H   LINE      CODE     ---       #1400
      01008C18H   LINE      CODE     ---       #1401
      01008C18H   LINE      CODE     ---       #1402
      01008C1EH   LINE      CODE     ---       #1403
      01008C2AH   LINE      CODE     ---       #1404
      01008C2AH   LINE      CODE     ---       #1405
      01008C30H   LINE      CODE     ---       #1406
      01008C36H   LINE      CODE     ---       #1407
      01008C36H   LINE      CODE     ---       #1408
      ---         BLOCKEND  ---      ---       LVL=0

      0100D051H   BLOCK     CODE     ---       LVL=0
      0100D051H   BLOCK     CODE     NEAR LAB  LVL=1
      0200C853H   SYMBOL    XDATA    WORD      key_nb
      ---         BLOCKEND  ---      ---       LVL=1
      0100D051H   LINE      CODE     ---       #1410
      0100D051H   LINE      CODE     ---       #1411
      0100D051H   LINE      CODE     ---       #1412
      0100D057H   LINE      CODE     ---       #1413
      0100D05DH   LINE      CODE     ---       #1414
      0100D065H   LINE      CODE     ---       #1415
      0100D065H   LINE      CODE     ---       #1416
      0100D069H   LINE      CODE     ---       #1417
      0100D06FH   LINE      CODE     ---       #1418
      0100D06FH   LINE      CODE     ---       #1419
LX51 LINKER/LOCATER V4.66.97.0                                                        09/27/2023  17:05:17  PAGE 169


      ---         BLOCKEND  ---      ---       LVL=0

      0100CBD3H   BLOCK     CODE     ---       LVL=0
      0100CBD3H   LINE      CODE     ---       #1421
      0100CBD3H   LINE      CODE     ---       #1422
      0100CBD3H   LINE      CODE     ---       #1427
      0100CBD9H   LINE      CODE     ---       #1428
      0100CBECH   LINE      CODE     ---       #1429
      0100CBF5H   LINE      CODE     ---       #1431
      0100CBFEH   LINE      CODE     ---       #1432
      ---         BLOCKEND  ---      ---       LVL=0

      0100B9D4H   BLOCK     CODE     ---       LVL=0
      0200C8C1H   SYMBOL    XDATA    BYTE      enable
      0100B9D9H   BLOCK     CODE     NEAR LAB  LVL=1
      0200C8C2H   SYMBOL    XDATA    ---       config_sys_cmd_80
      ---         BLOCKEND  ---      ---       LVL=1
      0100B9D4H   LINE      CODE     ---       #1439
      0100B9D9H   LINE      CODE     ---       #1440
      0100B9D9H   LINE      CODE     ---       #1441
      0100B9E4H   LINE      CODE     ---       #1442
      0100B9F0H   LINE      CODE     ---       #1443
      0100B9F7H   LINE      CODE     ---       #1444
      0100BA00H   LINE      CODE     ---       #1445
      0100BA06H   LINE      CODE     ---       #1447
      0100BA0AH   LINE      CODE     ---       #1448
      0100BA10H   LINE      CODE     ---       #1449
      0100BA1CH   LINE      CODE     ---       #1450
      0100BA22H   LINE      CODE     ---       #1451
      0100BA22H   LINE      CODE     ---       #1452
      0100BA2EH   LINE      CODE     ---       #1453
      0100BA30H   LINE      CODE     ---       #1454
      ---         BLOCKEND  ---      ---       LVL=0

      0100B561H   BLOCK     CODE     ---       LVL=0
      0200C85BH   SYMBOL    XDATA    BYTE      enable
      0100B566H   BLOCK     CODE     NEAR LAB  LVL=1
      0200C85CH   SYMBOL    XDATA    ---       config_sys_cmd_80
      ---         BLOCKEND  ---      ---       LVL=1
      0100B561H   LINE      CODE     ---       #1456
      0100B566H   LINE      CODE     ---       #1457
      0100B566H   LINE      CODE     ---       #1458
      0100B575H   LINE      CODE     ---       #1459
      0100B581H   LINE      CODE     ---       #1460
      0100B588H   LINE      CODE     ---       #1461
      0100B591H   LINE      CODE     ---       #1462
      0100B597H   LINE      CODE     ---       #1464
      0100B59BH   LINE      CODE     ---       #1465
      0100B5A1H   LINE      CODE     ---       #1466
      0100B5ADH   LINE      CODE     ---       #1467
      0100B5B3H   LINE      CODE     ---       #1468
      0100B5B3H   LINE      CODE     ---       #1469
      0100B5BFH   LINE      CODE     ---       #1470
      0100B5C1H   LINE      CODE     ---       #1471
      ---         BLOCKEND  ---      ---       LVL=0

      0100B740H   BLOCK     CODE     ---       LVL=0
      0200C85BH   SYMBOL    XDATA    BYTE      work_light
      0200C85CH   SYMBOL    XDATA    BYTE      sleep_light
      0200C85DH   SYMBOL    XDATA    WORD      sleep_interval
      0100B74EH   BLOCK     CODE     NEAR LAB  LVL=1
      0200C85FH   SYMBOL    XDATA    ---       led_cmd
      ---         BLOCKEND  ---      ---       LVL=1
      0100B740H   LINE      CODE     ---       #1476
      0100B74EH   LINE      CODE     ---       #1477
LX51 LINKER/LOCATER V4.66.97.0                                                        09/27/2023  17:05:17  PAGE 170


      0100B74EH   LINE      CODE     ---       #1479
      0100B75DH   LINE      CODE     ---       #1480
      0100B774H   LINE      CODE     ---       #1481
      0100B77CH   LINE      CODE     ---       #1482
      0100B789H   LINE      CODE     ---       #1483
      0100B78CH   LINE      CODE     ---       #1484
      ---         BLOCKEND  ---      ---       LVL=0

      0100ADDFH   BLOCK     CODE     ---       LVL=0
      0200C8B8H   SYMBOL    XDATA    BYTE      menu_key_value
      0100ADE4H   BLOCK     CODE     NEAR LAB  LVL=1
      0200C8B9H   SYMBOL    XDATA    ---       temp_tab
      00000007H   SYMBOL    DATA     BYTE      beep_enable
      ---         BLOCKEND  ---      ---       LVL=1
      0100ADDFH   LINE      CODE     ---       #1491
      0100ADE4H   LINE      CODE     ---       #1492
      0100ADE4H   LINE      CODE     ---       #1493
      0100ADF1H   LINE      CODE     ---       #1494
      0100ADF3H   LINE      CODE     ---       #1495
      0100ADF6H   LINE      CODE     ---       #1496
      0100ADFCH   LINE      CODE     ---       #1497
      0100AE00H   LINE      CODE     ---       #1498
      0100AE03H   LINE      CODE     ---       #1499
      0100AE07H   LINE      CODE     ---       #1500
      0100AE0BH   LINE      CODE     ---       #1501
      0100AE13H   LINE      CODE     ---       #1502
      0100AE16H   LINE      CODE     ---       #1503
      0100AE19H   LINE      CODE     ---       #1504
      0100AE20H   LINE      CODE     ---       #1505
      0100AE33H   LINE      CODE     ---       #1506
      0100AE3AH   LINE      CODE     ---       #1507
      0100AE41H   LINE      CODE     ---       #1510
      0100AE44H   LINE      CODE     ---       #1511
      ---         BLOCKEND  ---      ---       LVL=0

      01009C82H   BLOCK     CODE     ---       LVL=0
      01009C82H   BLOCK     CODE     NEAR LAB  LVL=1
      0200C853H   SYMBOL    XDATA    WORD      key_nb
      0200BFCDH   SYMBOL    XDATA    ---       action_sta
      0200C855H   SYMBOL    XDATA    ---       module_scene_r
      ---         BLOCKEND  ---      ---       LVL=1
      01009C82H   LINE      CODE     ---       #1514
      01009C82H   LINE      CODE     ---       #1515
      01009C82H   LINE      CODE     ---       #1516
      01009C89H   LINE      CODE     ---       #1518
      01009C96H   LINE      CODE     ---       #1519
      01009C9CH   LINE      CODE     ---       #1520
      01009CA7H   LINE      CODE     ---       #1521
      01009CA7H   LINE      CODE     ---       #1523
      01009CC1H   LINE      CODE     ---       #1524
      01009CC9H   LINE      CODE     ---       #1525
      01009CC9H   LINE      CODE     ---       #1526
      01009CD5H   LINE      CODE     ---       #1527
      01009CE7H   LINE      CODE     ---       #1528
      01009D08H   LINE      CODE     ---       #1529
      01009D1EH   LINE      CODE     ---       #1530
      01009D1EH   LINE      CODE     ---       #1531
      01009D24H   LINE      CODE     ---       #1532
      01009D24H   LINE      CODE     ---       #1533
      ---         BLOCKEND  ---      ---       LVL=0

      ---         MODULE    ---      ---       TIME_SCENE
      02009459H   PUBLIC    XDATA    ---       timing_content
      0200943BH   PUBLIC    XDATA    ---       time_scene_var
      0200943AH   PUBLIC    XDATA    BYTE      time_scene_select_sta_bak
LX51 LINKER/LOCATER V4.66.97.0                                                        09/27/2023  17:05:17  PAGE 171


      02009438H   PUBLIC    XDATA    WORD      time_scene_key_nb_bak
      02009412H   PUBLIC    XDATA    ---       temp_timing_content
      0100B18CH   PUBLIC    CODE     ---       timing_scene_run
      0100D070H   PUBLIC    CODE     ---       right_number_of_days_ctrl
      0100AA46H   PUBLIC    CODE     ---       _set_the_right_number_of_days
      0100875FH   PUBLIC    CODE     ---       timed_auto_send
      010057F0H   PUBLIC    CODE     ---       timing_auto_detect
      0100AC92H   PUBLIC    CODE     ---       _all_on_off_timing_send
      0100C632H   PUBLIC    CODE     ---       _scene_timing_send
      0100A399H   PUBLIC    CODE     ---       _module_timing_send
      0100B7FEH   PUBLIC    CODE     ---       timing_all_on_off_ctrl
      01009519H   PUBLIC    CODE     ---       _timing_scene_select_ctrl
      0200C853H   PUBLIC    XDATA    BYTE      ?_operand_ctrl?BYTE
      01007EA3H   PUBLIC    CODE     ---       _operand_ctrl
      0200C853H   PUBLIC    XDATA    BYTE      ?_timing_scene_infor_ctrl?BYTE
      010097DAH   PUBLIC    CODE     ---       _timing_scene_infor_ctrl
      0200C85EH   PUBLIC    XDATA    BYTE      ?_all_on_off_scene_confim_key?BYTE
      0100B2B6H   PUBLIC    CODE     ---       _all_on_off_scene_confim_key
      0100BD58H   PUBLIC    CODE     ---       _timing_all_on_off_scene_set
      0200C85EH   PUBLIC    XDATA    BYTE      ?_specified_scene_confim_key?BYTE
      0100B37BH   PUBLIC    CODE     ---       _specified_scene_confim_key
      0100C6F3H   PUBLIC    CODE     ---       _timing_specified_scene_set
      0100D36CH   PUBLIC    CODE     ---       scene_infor_cancle_key
      0200C85EH   PUBLIC    XDATA    BYTE      ?_scene_infor_module_confim_key?BYTE
      01009F09H   PUBLIC    CODE     ---       _scene_infor_module_confim_key
      0200C867H   PUBLIC    XDATA    BYTE      ?_timing_module_scene_set?BYTE
      0100CA13H   PUBLIC    CODE     ---       _timing_module_scene_set
      0200C853H   PUBLIC    XDATA    BYTE      ?_timing_scene_edit?BYTE
      0100B919H   PUBLIC    CODE     ---       _timing_scene_edit
      0200C85BH   PUBLIC    XDATA    BYTE      ?_timing_scene_modtify?BYTE
      01006F1DH   PUBLIC    CODE     ---       _timing_scene_modtify
      0100C256H   PUBLIC    CODE     ---       _display_scene_time_interface
      0100C129H   PUBLIC    CODE     ---       _display_all_on_off_interface
      0100D35FH   PUBLIC    CODE     ---       _copy_to_temp_timing_content
      0100C56BH   PUBLIC    CODE     ---       _timing_scene_clear
      0200C85BH   PUBLIC    XDATA    BYTE      ?_timing_scene_delete?BYTE
      0100AD02H   PUBLIC    CODE     ---       _timing_scene_delete
      0100D259H   PUBLIC    CODE     ---       _timing_scene_add
      0100C8CDH   PUBLIC    CODE     ---       _module_timing_scene_select_ctrl
      0100B79FH   PUBLIC    CODE     ---       _module_timing_scene_select
      01002A46H   PUBLIC    CODE     ---       _display_timing_scene_infor
      0100AD71H   PUBLIC    CODE     ---       _display_dim_timing_scene_interface
      01009B3AH   PUBLIC    CODE     ---       _display_relay_timing_scene_interface
      0200C86DH   PUBLIC    XDATA    BYTE      ?_timing_module_dim_scene_set?BYTE
      0100758DH   PUBLIC    CODE     ---       _timing_module_dim_scene_set
      0200C86DH   PUBLIC    XDATA    BYTE      ?_timing_module_relay_scene_set?BYTE
      010046E1H   PUBLIC    CODE     ---       _timing_module_relay_scene_set
      0200C863H   PUBLIC    XDATA    BYTE      ?_timing_scene_infor_delete?BYTE
      0100B319H   PUBLIC    CODE     ---       _timing_scene_infor_delete
      0100C457H   PUBLIC    CODE     ---       _timing_scene_infor_clear
      0100D181H   PUBLIC    CODE     ---       _timing_scene_infor_save_flash
      0200C861H   PUBLIC    XDATA    BYTE      ?_set_timing_set_infor?BYTE
      01009A91H   PUBLIC    CODE     ---       _set_timing_set_infor
      01007D98H   PUBLIC    CODE     ---       _dis_module_scene_infor
      0200C867H   PUBLIC    XDATA    BYTE      ?_get_timing_set_infor?BYTE
      01009E69H   PUBLIC    CODE     ---       _get_timing_set_infor
      0100D32AH   PUBLIC    CODE     ---       _set_timing_week_enable
      0100988AH   PUBLIC    CODE     ---       _get_timing_week_enable
      0100D012H   PUBLIC    CODE     ---       _set_timing_data_enable
      0100D440H   PUBLIC    CODE     ---       get_timing_data_enable
      0100CEE8H   PUBLIC    CODE     ---       set_timing_scene_name_select_sequence_number
      0100D428H   PUBLIC    CODE     ---       get_timing_scene_name_select_sequence_number
      0100C9DEH   PUBLIC    CODE     ---       get_blank_timing_scene_infor_index
      0100CCB0H   PUBLIC    CODE     ---       _clear_all_timing_scene_content
      0100D41FH   PUBLIC    CODE     ---       _clear_single_timing_scene_content
LX51 LINKER/LOCATER V4.66.97.0                                                        09/27/2023  17:05:17  PAGE 172


      0100C20BH   PUBLIC    CODE     ---       clear_timing_scene_var
      0100CEC5H   PUBLIC    CODE     ---       _printf_temp_timing_content
      000000F1H   SFRSYM    DATA     BYTE      ADR_H
      00000080H   SFRSYM    DATA     BYTE      P0
      00000090H   SFRSYM    DATA     BYTE      P1
      000000A0H   SFRSYM    DATA     BYTE      P2
      000000B0H   SFRSYM    DATA     BYTE      P3
      000000F3H   SFRSYM    DATA     BYTE      ADR_L
      000000D0H.6 SFRSYM    DATA     BIT       AC
      000000A0H.6 SFRSYM    DATA     BIT       Red_LED1
      00000094H   SFRSYM    DATA     BYTE      PAGESEL
      000000F2H   SFRSYM    DATA     BYTE      ADR_M
      000000A8H.7 SFRSYM    DATA     BIT       EA
      000000F8H   SFRSYM    DATA     BYTE      RAMMODE
      000000B7H   SFRSYM    DATA     BYTE      P0MDOUT
      000000BCH   SFRSYM    DATA     BYTE      P1MDOUT
      000000A8H   SFRSYM    DATA     BYTE      IEN0
      000000BDH   SFRSYM    DATA     BYTE      P2MDOUT
      000000B8H   SFRSYM    DATA     BYTE      IEN1
      000000BEH   SFRSYM    DATA     BYTE      P3MDOUT
      0000009AH   SFRSYM    DATA     BYTE      IEN2
      000000F8H.4 SFRSYM    DATA     BIT       APP_ACK
      000000F4H   SFRSYM    DATA     BYTE      ADR_INC
      000000B8H.1 SFRSYM    DATA     BIT       ECAN
      000000D0H.7 SFRSYM    DATA     BIT       CY
      000000B8H.3 SFRSYM    DATA     BIT       ES4R
      000000B8H.5 SFRSYM    DATA     BIT       ES5R
      000000B8H.2 SFRSYM    DATA     BIT       ES4T
      000000B8H.4 SFRSYM    DATA     BIT       ES5T
      000000B0H.3 SFRSYM    DATA     BIT       RTC_SDA
      00000081H   SFRSYM    DATA     BYTE      SP
      000000D0H.2 SFRSYM    DATA     BIT       OV
      00000095H   SFRSYM    DATA     BYTE      D_PAGESEL
      000000F8H.7 SFRSYM    DATA     BIT       APP_REQ
      000000B0H.2 SFRSYM    DATA     BIT       RTC_SCL
      000000BFH   SFRSYM    DATA     BYTE      IRCON2
      00000087H   SFRSYM    DATA     BYTE      PCON
      000000BAH   SFRSYM    DATA     BYTE      SREL2H
      000000BBH   SFRSYM    DATA     BYTE      SREL3H
      000000F9H   SFRSYM    DATA     BYTE      PORTDRV
      00000089H   SFRSYM    DATA     BYTE      TMOD
      00000088H   SFRSYM    DATA     BYTE      TCON
      000000AAH   SFRSYM    DATA     BYTE      SREL2L
      0000009DH   SFRSYM    DATA     BYTE      SREL3L
      000000FFH   SFRSYM    DATA     BYTE      EXDATA
      00000097H   SFRSYM    DATA     BYTE      SCON4R
      000000ABH   SFRSYM    DATA     BYTE      SCON5R
      000000D9H   SFRSYM    DATA     BYTE      BODE4_DIV_H
      000000AEH   SFRSYM    DATA     BYTE      BODE5_DIV_H
      00000096H   SFRSYM    DATA     BYTE      SCON4T
      000000A7H   SFRSYM    DATA     BYTE      SCON5T
      00000088H.1 SFRSYM    DATA     BIT       IE0
      00000088H.3 SFRSYM    DATA     BIT       IE1
      000000C9H   SFRSYM    DATA     BYTE      MUX_SEL
      000000E7H   SFRSYM    DATA     BYTE      BODE4_DIV_L
      000000AFH   SFRSYM    DATA     BYTE      BODE5_DIV_L
      000000F0H   SFRSYM    DATA     BYTE      B
      000000E0H   SFRSYM    DATA     BYTE      ACC
      0000008FH   SFRSYM    DATA     BYTE      CAN_CR
      000000A9H   SFRSYM    DATA     BYTE      IP0
      000000A8H.1 SFRSYM    DATA     BIT       ET0
      000000B9H   SFRSYM    DATA     BYTE      IP1
      000000A8H.3 SFRSYM    DATA     BIT       ET1
      000000A8H.4 SFRSYM    DATA     BIT       ES2
      00000088H.5 SFRSYM    DATA     BIT       TF0
LX51 LINKER/LOCATER V4.66.97.0                                                        09/27/2023  17:05:17  PAGE 173


      000000FDH   SFRSYM    DATA     BYTE      DATA0
      000000A8H.5 SFRSYM    DATA     BIT       ET2
      00000088H.7 SFRSYM    DATA     BIT       TF1
      000000E8H   SFRSYM    DATA     BYTE      CAN_ET
      000000FCH   SFRSYM    DATA     BYTE      DATA1
      000000C0H.6 SFRSYM    DATA     BIT       TF2
      0000008CH   SFRSYM    DATA     BYTE      TH0
      000000FBH   SFRSYM    DATA     BYTE      DATA2
      000000A8H.0 SFRSYM    DATA     BIT       EX0
      00000098H.0 SFRSYM    DATA     BIT       RI2
      0000008DH   SFRSYM    DATA     BYTE      TH1
      00000088H.0 SFRSYM    DATA     BIT       IT0
      00000091H   SFRSYM    DATA     BYTE      CAN_IR
      000000FAH   SFRSYM    DATA     BYTE      DATA3
      000000CDH   SFRSYM    DATA     BYTE      TH2
      000000A8H.2 SFRSYM    DATA     BIT       EX1
      00000088H.2 SFRSYM    DATA     BIT       IT1
      000000D0H.0 SFRSYM    DATA     BIT       P
      00000098H.1 SFRSYM    DATA     BIT       TI2
      0000008AH   SFRSYM    DATA     BYTE      TL0
      0000008BH   SFRSYM    DATA     BYTE      TL1
      000000CCH   SFRSYM    DATA     BYTE      TL2
      000000F8H.6 SFRSYM    DATA     BIT       APP_EN
      000000D0H.3 SFRSYM    DATA     BIT       RS0
      000000D0H.4 SFRSYM    DATA     BIT       RS1
      00000088H.4 SFRSYM    DATA     BIT       TR0
      00000093H   SFRSYM    DATA     BYTE      DPC
      00000088H.6 SFRSYM    DATA     BIT       TR1
      000000E5H   SFRSYM    DATA     BYTE      MAC_MODE
      000000C8H.0 SFRSYM    DATA     BIT       TR2
      00000080H.0 SFRSYM    DATA     BIT       TR4
      00000080H.1 SFRSYM    DATA     BIT       TR5
      000000A0H.7 SFRSYM    DATA     BIT       Green_LED2
      00000083H   SFRSYM    DATA     BYTE      DPH
      00000082H   SFRSYM    DATA     BYTE      DPL
      00000099H   SFRSYM    DATA     BYTE      SBUF2
      0000009CH   SFRSYM    DATA     BYTE      SBUF3
      000000D8H   SFRSYM    DATA     BYTE      ADCON
      00000098H   SFRSYM    DATA     BYTE      SCON2
      000000C8H   SFRSYM    DATA     BYTE      T2CON
      0000009BH   SFRSYM    DATA     BYTE      SCON3
      000000E6H   SFRSYM    DATA     BYTE      DIV_MODE
      000000F8H.5 SFRSYM    DATA     BIT       APP_RW
      000000CBH   SFRSYM    DATA     BYTE      TRL2H
      0000008EH   SFRSYM    DATA     BYTE      CKCON
      0000009FH   SFRSYM    DATA     BYTE      SBUF4_RX
      000000ADH   SFRSYM    DATA     BYTE      SBUF5_RX
      000000CAH   SFRSYM    DATA     BYTE      TRL2L
      0000009EH   SFRSYM    DATA     BYTE      SBUF4_TX
      000000ACH   SFRSYM    DATA     BYTE      SBUF5_TX
      000000FEH   SFRSYM    DATA     BYTE      EXADR
      000000D0H.5 SFRSYM    DATA     BIT       F0
      000000D0H.1 SFRSYM    DATA     BIT       F1
      000000D0H   SFRSYM    DATA     BYTE      PSW
      000000C0H   SFRSYM    DATA     BYTE      IRCON
      0100DB5AH   SYMBOL    CONST    ---       _?ix1000
      0100DD00H   SYMBOL    CONST    ---       _?ix1010
      0100DB7AH   SYMBOL    CONST    ---       _?ix1001
      0100DEDFH   SYMBOL    CONST    ---       _?ix1020
      0100DD30H   SYMBOL    CONST    ---       _?ix1011
      0100DB9AH   SYMBOL    CONST    ---       _?ix1002
      0100DD53H   SYMBOL    CONST    ---       _?ix1012
      0100DBA2H   SYMBOL    CONST    ---       _?ix1003
      0100DD77H   SYMBOL    CONST    ---       _?ix1013
      0100DBA6H   SYMBOL    CONST    ---       _?ix1004
LX51 LINKER/LOCATER V4.66.97.0                                                        09/27/2023  17:05:17  PAGE 174


      0100DE8FH   SYMBOL    CONST    ---       _?ix1014
      0100DC5BH   SYMBOL    CONST    ---       _?ix1005
      0100DE9FH   SYMBOL    CONST    ---       _?ix1015
      0100DC6CH   SYMBOL    CONST    ---       _?ix1006
      0100DEB3H   SYMBOL    CONST    ---       _?ix1016
      0100DC9DH   SYMBOL    CONST    ---       _?ix1007
      0100DEC3H   SYMBOL    CONST    ---       _?ix1017
      0100DCCEH   SYMBOL    CONST    ---       _?ix1008
      0100DED3H   SYMBOL    CONST    ---       _?ix1018
      0100DCF6H   SYMBOL    CONST    ---       _?ix1009
      0100DEDBH   SYMBOL    CONST    ---       _?ix1019

      01003153H   BLOCK     CODE     ---       LVL=0
      ---         BLOCKEND  ---      ---       LVL=0

      0100CEC5H   BLOCK     CODE     ---       LVL=0
      0200C867H   SYMBOL    XDATA    ---       p_timing_content
      0100CEC5H   LINE      CODE     ---       #29
      0100CECBH   LINE      CODE     ---       #30
      0100CECBH   LINE      CODE     ---       #34
      ---         BLOCKEND  ---      ---       LVL=0

      0100C20BH   BLOCK     CODE     ---       LVL=0
      0100C20BH   BLOCK     CODE     NEAR LAB  LVL=1
      0200C867H   SYMBOL    XDATA    BYTE      i
      ---         BLOCKEND  ---      ---       LVL=1
      0100C20BH   LINE      CODE     ---       #49
      0100C20BH   LINE      CODE     ---       #50
      0100C20BH   LINE      CODE     ---       #51
      0100C210H   LINE      CODE     ---       #52
      0100C221H   LINE      CODE     ---       #53
      0100C221H   LINE      CODE     ---       #54
      0100C22FH   LINE      CODE     ---       #55
      0100C237H   LINE      CODE     ---       #56
      0100C241H   LINE      CODE     ---       #57
      0100C24BH   LINE      CODE     ---       #58
      0100C24BH   LINE      CODE     ---       #59
      0100C24BH   LINE      CODE     ---       #60
      0100C24FH   LINE      CODE     ---       #61
      0100C253H   LINE      CODE     ---       #62
      0100C255H   LINE      CODE     ---       #65
      ---         BLOCKEND  ---      ---       LVL=0

      0100D41FH   BLOCK     CODE     ---       LVL=0
      00000001H   SYMBOL    DATA     ---       p_timing_content
      0100D41FH   LINE      CODE     ---       #67
      0100D41FH   LINE      CODE     ---       #68
      0100D41FH   LINE      CODE     ---       #69
      ---         BLOCKEND  ---      ---       LVL=0

      0100CCB0H   BLOCK     CODE     ---       LVL=0
      0200C863H   SYMBOL    XDATA    ---       p_timing_content
      0100CCB6H   BLOCK     CODE     NEAR LAB  LVL=1
      0200C866H   SYMBOL    XDATA    BYTE      i
      ---         BLOCKEND  ---      ---       LVL=1
      0100CCB0H   LINE      CODE     ---       #72
      0100CCB6H   LINE      CODE     ---       #73
      0100CCB6H   LINE      CODE     ---       #74
      0100CCBBH   LINE      CODE     ---       #75
      0100CCC4H   LINE      CODE     ---       #76
      0100CCC4H   LINE      CODE     ---       #77
      0100CCD1H   LINE      CODE     ---       #78
      0100CCD9H   LINE      CODE     ---       #79
      ---         BLOCKEND  ---      ---       LVL=0

LX51 LINKER/LOCATER V4.66.97.0                                                        09/27/2023  17:05:17  PAGE 175


      0100C9DEH   BLOCK     CODE     ---       LVL=0
      0100C9DEH   BLOCK     CODE     NEAR LAB  LVL=1
      0200C85EH   SYMBOL    XDATA    BYTE      i
      ---         BLOCKEND  ---      ---       LVL=1
      0100C9DEH   LINE      CODE     ---       #80
      0100C9DEH   LINE      CODE     ---       #81
      0100C9DEH   LINE      CODE     ---       #83
      0100C9E3H   LINE      CODE     ---       #85
      0100C9ECH   LINE      CODE     ---       #86
      0100C9ECH   LINE      CODE     ---       #87
      0100C9F1H   LINE      CODE     ---       #88
      0100C9F1H   LINE      CODE     ---       #89
      0100CA02H   LINE      CODE     ---       #90
      0100CA08H   LINE      CODE     ---       #91
      0100CA08H   LINE      CODE     ---       #92
      0100CA10H   LINE      CODE     ---       #93
      0100CA12H   LINE      CODE     ---       #94
      ---         BLOCKEND  ---      ---       LVL=0

      0100D428H   BLOCK     CODE     ---       LVL=0
      0100D428H   LINE      CODE     ---       #96
      0100D428H   LINE      CODE     ---       #97
      0100D428H   LINE      CODE     ---       #99
      ---         BLOCKEND  ---      ---       LVL=0

      0100CEE8H   BLOCK     CODE     ---       LVL=0
      0100CEE8H   LINE      CODE     ---       #102
      0100CEE8H   LINE      CODE     ---       #103
      0100CEE8H   LINE      CODE     ---       #105
      ---         BLOCKEND  ---      ---       LVL=0

      0100D440H   BLOCK     CODE     ---       LVL=0
      0100D440H   LINE      CODE     ---       #108
      0100D440H   LINE      CODE     ---       #109
      0100D440H   LINE      CODE     ---       #110
      ---         BLOCKEND  ---      ---       LVL=0

      0100D012H   BLOCK     CODE     ---       LVL=0
      0200C86DH   SYMBOL    XDATA    ---       p_time_scene_set
      0100D012H   LINE      CODE     ---       #113
      0100D018H   LINE      CODE     ---       #114
      0100D018H   LINE      CODE     ---       #115
      0100D025H   LINE      CODE     ---       #116
      ---         BLOCKEND  ---      ---       LVL=0

      0100988AH   BLOCK     CODE     ---       LVL=0
      0200C873H   SYMBOL    XDATA    WORD      week_enable_adr
      0100988AH   LINE      CODE     ---       #119
      01009892H   LINE      CODE     ---       #120
      01009892H   LINE      CODE     ---       #122
      0100991CH   LINE      CODE     ---       #124
      ---         BLOCKEND  ---      ---       LVL=0

      0100D32AH   BLOCK     CODE     ---       LVL=0
      00000001H   SYMBOL    DATA     ---       p_time_scene_set
      0100D32AH   LINE      CODE     ---       #126
      0100D32AH   LINE      CODE     ---       #127
      0100D32AH   LINE      CODE     ---       #128
      ---         BLOCKEND  ---      ---       LVL=0

      01009E69H   BLOCK     CODE     ---       LVL=0
      0200C867H   SYMBOL    XDATA    ---       p_s_date
      0200C86AH   SYMBOL    XDATA    ---       p_e_data
      0200C86DH   SYMBOL    XDATA    ---       p_time
      0200C870H   SYMBOL    XDATA    ---       p_time_scene_set
LX51 LINKER/LOCATER V4.66.97.0                                                        09/27/2023  17:05:17  PAGE 176


      01009E69H   LINE      CODE     ---       #139
      01009E6FH   LINE      CODE     ---       #140
      01009E6FH   LINE      CODE     ---       #142
      01009E7FH   LINE      CODE     ---       #143
      01009E90H   LINE      CODE     ---       #144
      01009E9DH   LINE      CODE     ---       #145
      01009EAEH   LINE      CODE     ---       #146
      01009EB2H   LINE      CODE     ---       #147
      01009EBCH   LINE      CODE     ---       #148
      01009EBCH   LINE      CODE     ---       #149
      01009EC4H   LINE      CODE     ---       #150
      01009ECCH   LINE      CODE     ---       #151
      01009ED9H   LINE      CODE     ---       #153
      01009EE1H   LINE      CODE     ---       #154
      01009EE9H   LINE      CODE     ---       #155
      01009EF6H   LINE      CODE     ---       #156
      01009EF6H   LINE      CODE     ---       #162
      ---         BLOCKEND  ---      ---       LVL=0

      01007D98H   BLOCK     CODE     ---       LVL=0
      0200C861H   SYMBOL    XDATA    ---       p_time_module_scene_set
      01007D9EH   BLOCK     CODE     NEAR LAB  LVL=1
      0200C864H   SYMBOL    XDATA    BYTE      i
      0200C865H   SYMBOL    XDATA    ---       temp_tab
      ---         BLOCKEND  ---      ---       LVL=1
      01007D98H   LINE      CODE     ---       #170
      01007D9EH   LINE      CODE     ---       #171
      01007D9EH   LINE      CODE     ---       #172
      01007DA3H   LINE      CODE     ---       #173
      01007DAFH   LINE      CODE     ---       #174
      01007DC8H   LINE      CODE     ---       #175
      01007DC8H   LINE      CODE     ---       #176
      01007DC8H   LINE      CODE     ---       #177
      01007DC8H   LINE      CODE     ---       #178
      01007DC8H   LINE      CODE     ---       #179
      01007DC8H   LINE      CODE     ---       #180
      01007DD2H   LINE      CODE     ---       #181
      01007DD2H   LINE      CODE     ---       #182
      01007DE9H   LINE      CODE     ---       #184
      01007DEEH   LINE      CODE     ---       #185
      01007DFDH   LINE      CODE     ---       #186
      01007E07H   LINE      CODE     ---       #187
      01007E07H   LINE      CODE     ---       #188
      01007E1EH   LINE      CODE     ---       #190
      01007E23H   LINE      CODE     ---       #191
      01007E2FH   LINE      CODE     ---       #193
      01007E31H   LINE      CODE     ---       #194
      01007E31H   LINE      CODE     ---       #195
      01007E3BH   LINE      CODE     ---       #196
      01007E3BH   LINE      CODE     ---       #197
      01007E48H   LINE      CODE     ---       #198
      01007E4DH   LINE      CODE     ---       #199
      01007E5DH   LINE      CODE     ---       #200
      01007E67H   LINE      CODE     ---       #202
      01007E69H   LINE      CODE     ---       #203
      01007E69H   LINE      CODE     ---       #204
      01007E73H   LINE      CODE     ---       #205
      01007E73H   LINE      CODE     ---       #206
      01007E80H   LINE      CODE     ---       #207
      01007E85H   LINE      CODE     ---       #208
      01007E95H   LINE      CODE     ---       #210
      01007EA2H   LINE      CODE     ---       #212
      01007EA2H   LINE      CODE     ---       #213
      01007EA2H   LINE      CODE     ---       #214
      ---         BLOCKEND  ---      ---       LVL=0
LX51 LINKER/LOCATER V4.66.97.0                                                        09/27/2023  17:05:17  PAGE 177



      01009A91H   BLOCK     CODE     ---       LVL=0
      0200C861H   SYMBOL    XDATA    ---       p_s_date
      0200C864H   SYMBOL    XDATA    ---       p_e_data
      0200C867H   SYMBOL    XDATA    ---       p_time
      0200C86AH   SYMBOL    XDATA    ---       p_time_scene_set
      01009A91H   LINE      CODE     ---       #216
      01009A97H   LINE      CODE     ---       #217
      01009A97H   LINE      CODE     ---       #218
      01009AA0H   LINE      CODE     ---       #219
      01009AA9H   LINE      CODE     ---       #221
      01009AB4H   LINE      CODE     ---       #222
      01009AC2H   LINE      CODE     ---       #224
      01009ACCH   LINE      CODE     ---       #225
      01009ACCH   LINE      CODE     ---       #226
      01009ADAH   LINE      CODE     ---       #227
      01009AE5H   LINE      CODE     ---       #228
      01009AF0H   LINE      CODE     ---       #230
      01009AFEH   LINE      CODE     ---       #231
      01009B0EH   LINE      CODE     ---       #232
      01009B1EH   LINE      CODE     ---       #233
      01009B1EH   LINE      CODE     ---       #234
      ---         BLOCKEND  ---      ---       LVL=0

      0100D181H   BLOCK     CODE     ---       LVL=0
      00000001H   SYMBOL    DATA     ---       p_timing_content
      0100D181H   LINE      CODE     ---       #236
      0100D181H   LINE      CODE     ---       #237
      0100D181H   LINE      CODE     ---       #239
      0100D192H   LINE      CODE     ---       #242
      ---         BLOCKEND  ---      ---       LVL=0

      0100C457H   BLOCK     CODE     ---       LVL=0
      0200C860H   SYMBOL    XDATA    ---       p_timing_content
      0100C457H   LINE      CODE     ---       #245
      0100C45DH   LINE      CODE     ---       #246
      0100C45DH   LINE      CODE     ---       #247
      0100C47AH   LINE      CODE     ---       #248
      0100C496H   LINE      CODE     ---       #250
      ---         BLOCKEND  ---      ---       LVL=0

      0100B319H   BLOCK     CODE     ---       LVL=0
      0200C863H   SYMBOL    XDATA    ---       p_timing_content
      0200C866H   SYMBOL    XDATA    ---       p_time_scene
      0100B319H   LINE      CODE     ---       #253
      0100B31FH   LINE      CODE     ---       #254
      0100B31FH   LINE      CODE     ---       #256
      0100B340H   LINE      CODE     ---       #257
      0100B372H   LINE      CODE     ---       #258
      ---         BLOCKEND  ---      ---       LVL=0

      010046E1H   BLOCK     CODE     ---       LVL=0
      0200C86DH   SYMBOL    XDATA    ---       p
      0200C870H   SYMBOL    XDATA    ---       p_time_module_scene
      010046E7H   BLOCK     CODE     NEAR LAB  LVL=1
      0200C873H   SYMBOL    XDATA    ---       temp_tab
      ---         BLOCKEND  ---      ---       LVL=1
      010046E1H   LINE      CODE     ---       #261
      010046E7H   LINE      CODE     ---       #262
      010046E7H   LINE      CODE     ---       #265
      010046F4H   LINE      CODE     ---       #266
      01004703H   LINE      CODE     ---       #267
      01004703H   LINE      CODE     ---       #268
      01004709H   LINE      CODE     ---       #269
      0100470BH   LINE      CODE     ---       #270
LX51 LINKER/LOCATER V4.66.97.0                                                        09/27/2023  17:05:17  PAGE 178


      0100471AH   LINE      CODE     ---       #271
      0100471AH   LINE      CODE     ---       #272
      01004723H   LINE      CODE     ---       #273
      01004723H   LINE      CODE     ---       #275
      01004723H   LINE      CODE     ---       #277
      01004723H   LINE      CODE     ---       #279
      0100472FH   LINE      CODE     ---       #280
      01004742H   LINE      CODE     ---       #281
      0100474EH   LINE      CODE     ---       #282
      0100475EH   LINE      CODE     ---       #284
      0100477DH   LINE      CODE     ---       #285
      0100477DH   LINE      CODE     ---       #286
      0100477DH   LINE      CODE     ---       #287
      0100478FH   LINE      CODE     ---       #288
      01004795H   LINE      CODE     ---       #290
      01004795H   LINE      CODE     ---       #291
      0100479BH   LINE      CODE     ---       #292
      0100479DH   LINE      CODE     ---       #293
      0100479DH   LINE      CODE     ---       #294
      0100479DH   LINE      CODE     ---       #295
      010047A3H   LINE      CODE     ---       #297
      010047A3H   LINE      CODE     ---       #298
      010047ACH   LINE      CODE     ---       #299
      010047AEH   LINE      CODE     ---       #300
      010047AEH   LINE      CODE     ---       #301
      010047AEH   LINE      CODE     ---       #302
      010047C1H   LINE      CODE     ---       #304
      010047D3H   LINE      CODE     ---       #305
      010047EBH   LINE      CODE     ---       #306
      010047EEH   LINE      CODE     ---       #307
      010047EEH   LINE      CODE     ---       #308
      010047EEH   LINE      CODE     ---       #309
      01004802H   LINE      CODE     ---       #312
      01004802H   LINE      CODE     ---       #313
      0100481CH   LINE      CODE     ---       #315
      0100481CH   LINE      CODE     ---       #316
      0100481CH   LINE      CODE     ---       #317
      0100482EH   LINE      CODE     ---       #320
      0100482EH   LINE      CODE     ---       #321
      01004837H   LINE      CODE     ---       #323
      01004839H   LINE      CODE     ---       #324
      01004839H   LINE      CODE     ---       #325
      01004839H   LINE      CODE     ---       #326
      01004842H   LINE      CODE     ---       #329
      01004842H   LINE      CODE     ---       #330
      01004851H   LINE      CODE     ---       #332
      01004851H   LINE      CODE     ---       #333
      01004851H   LINE      CODE     ---       #334
      01004860H   LINE      CODE     ---       #337
      01004860H   LINE      CODE     ---       #338
      01004878H   LINE      CODE     ---       #340
      01004878H   LINE      CODE     ---       #341
      01004878H   LINE      CODE     ---       #344
      01004881H   LINE      CODE     ---       #345
      ---         BLOCKEND  ---      ---       LVL=0

      0100758DH   BLOCK     CODE     ---       LVL=0
      0200C86DH   SYMBOL    XDATA    ---       p
      0200C870H   SYMBOL    XDATA    ---       p_time_module_scene
      01007593H   BLOCK     CODE     NEAR LAB  LVL=1
      0200C873H   SYMBOL    XDATA    WORD      scene_dim_enable
      0200C875H   SYMBOL    XDATA    WORD      scene_dim_enable_adr
      0200C877H   SYMBOL    XDATA    WORD      scene_dim_gear_adr
      0200C879H   SYMBOL    XDATA    ---       temp_tab
      0200C881H   SYMBOL    XDATA    ---       dim_tab
LX51 LINKER/LOCATER V4.66.97.0                                                        09/27/2023  17:05:17  PAGE 179


      ---         BLOCKEND  ---      ---       LVL=1
      0100758DH   LINE      CODE     ---       #348
      01007593H   LINE      CODE     ---       #349
      01007593H   LINE      CODE     ---       #350
      01007596H   LINE      CODE     ---       #351
      01007599H   LINE      CODE     ---       #352
      010075AFH   LINE      CODE     ---       #353
      010075BCH   LINE      CODE     ---       #354
      010075BCH   LINE      CODE     ---       #355
      010075C6H   LINE      CODE     ---       #356
      010075CEH   LINE      CODE     ---       #357
      010075D0H   LINE      CODE     ---       #358
      010075D9H   LINE      CODE     ---       #359
      010075D9H   LINE      CODE     ---       #360
      010075E3H   LINE      CODE     ---       #361
      010075EBH   LINE      CODE     ---       #362
      010075EBH   LINE      CODE     ---       #364
      010075EBH   LINE      CODE     ---       #366
      010075EBH   LINE      CODE     ---       #367
      010075F7H   LINE      CODE     ---       #368
      0100760AH   LINE      CODE     ---       #369
      01007616H   LINE      CODE     ---       #370
      01007626H   LINE      CODE     ---       #372
      01007635H   LINE      CODE     ---       #373
      0100766CH   LINE      CODE     ---       #375
      0100767BH   LINE      CODE     ---       #376
      01007690H   LINE      CODE     ---       #377
      0100769FH   LINE      CODE     ---       #378
      010076AEH   LINE      CODE     ---       #379
      010076BDH   LINE      CODE     ---       #382
      ---         BLOCKEND  ---      ---       LVL=0

      01009B3AH   BLOCK     CODE     ---       LVL=0
      0200C864H   SYMBOL    XDATA    ---       p
      01009B3AH   LINE      CODE     ---       #416
      01009B3DH   LINE      CODE     ---       #417
      01009B3DH   LINE      CODE     ---       #418
      01009B43H   LINE      CODE     ---       #419
      01009B53H   LINE      CODE     ---       #420
      01009B69H   LINE      CODE     ---       #421
      01009B7FH   LINE      CODE     ---       #423
      01009BA1H   LINE      CODE     ---       #424
      01009BA1H   LINE      CODE     ---       #425
      01009BA1H   LINE      CODE     ---       #426
      01009BA7H   LINE      CODE     ---       #428
      01009BA9H   LINE      CODE     ---       #429
      01009BA9H   LINE      CODE     ---       #430
      01009BAFH   LINE      CODE     ---       #432
      01009BB1H   LINE      CODE     ---       #433
      01009BB1H   LINE      CODE     ---       #434
      01009BB7H   LINE      CODE     ---       #436
      01009BB9H   LINE      CODE     ---       #437
      01009BB9H   LINE      CODE     ---       #438
      01009BBFH   LINE      CODE     ---       #440
      01009BC1H   LINE      CODE     ---       #441
      01009BC1H   LINE      CODE     ---       #442
      01009BC7H   LINE      CODE     ---       #444
      01009BC9H   LINE      CODE     ---       #445
      01009BC9H   LINE      CODE     ---       #446
      01009BCFH   LINE      CODE     ---       #448
      01009BCFH   LINE      CODE     ---       #449
      01009BD5H   LINE      CODE     ---       #451
      01009BD5H   LINE      CODE     ---       #452
      01009BD5H   LINE      CODE     ---       #453
      01009BD5H   LINE      CODE     ---       #454
LX51 LINKER/LOCATER V4.66.97.0                                                        09/27/2023  17:05:17  PAGE 180


      01009BD5H   LINE      CODE     ---       #455
      ---         BLOCKEND  ---      ---       LVL=0

      0100AD71H   BLOCK     CODE     ---       LVL=0
      0200C864H   SYMBOL    XDATA    ---       p
      0100AD71H   LINE      CODE     ---       #458
      0100AD74H   LINE      CODE     ---       #459
      0100AD74H   LINE      CODE     ---       #460
      0100AD7AH   LINE      CODE     ---       #461
      0100AD8AH   LINE      CODE     ---       #462
      0100ADA0H   LINE      CODE     ---       #463
      0100ADB6H   LINE      CODE     ---       #465
      0100ADC3H   LINE      CODE     ---       #466
      0100ADC3H   LINE      CODE     ---       #467
      0100ADC3H   LINE      CODE     ---       #468
      0100ADCAH   LINE      CODE     ---       #469
      0100ADD0H   LINE      CODE     ---       #470
      0100ADD1H   LINE      CODE     ---       #471
      0100ADD1H   LINE      CODE     ---       #472
      0100ADD8H   LINE      CODE     ---       #473
      0100ADDEH   LINE      CODE     ---       #474
      0100ADDEH   LINE      CODE     ---       #475
      0100ADDEH   LINE      CODE     ---       #476
      0100ADDEH   LINE      CODE     ---       #477
      0100ADDEH   LINE      CODE     ---       #478
      ---         BLOCKEND  ---      ---       LVL=0

      01002A46H   BLOCK     CODE     ---       LVL=0
      0200C867H   SYMBOL    XDATA    ---       p_timing_content
      01002A4CH   BLOCK     CODE     NEAR LAB  LVL=1
      0200C86AH   SYMBOL    XDATA    ---       mod_infom_tab
      0200C91FH   SYMBOL    XDATA    ---       module_name_1
      0200C930H   SYMBOL    XDATA    ---       led_on_tb
      0200C961H   SYMBOL    XDATA    ---       led_off_tb
      0200C992H   SYMBOL    XDATA    WORD      on_sta
      0200C994H   SYMBOL    XDATA    WORD      off_sta
      0200C996H   SYMBOL    XDATA    BYTE      i
      0200C997H   SYMBOL    XDATA    BYTE      j
      0200C998H   SYMBOL    XDATA    BYTE      k
      0200C999H   SYMBOL    XDATA    BYTE      l
      0200C99AH   SYMBOL    XDATA    BYTE      m
      0200C99BH   SYMBOL    XDATA    ---       dim_duty_tb
      0200C9C3H   SYMBOL    XDATA    ---       dim_duty_str
      0200C9CDH   SYMBOL    XDATA    BYTE      str_len_cal
      0200C9CEH   SYMBOL    XDATA    BYTE      str_adr
      0200C9CFH   SYMBOL    XDATA    WORD      str_count
      0200C9D1H   SYMBOL    XDATA    ---       channel
      0200CA01H   SYMBOL    XDATA    ---       week_tb
      0200CA24H   SYMBOL    XDATA    ---       temp_week_tb
      0200CA48H   SYMBOL    XDATA    ---       module_read
      0200CB60H   SYMBOL    XDATA    ---       sce_name
      0200CB70H   SYMBOL    XDATA    ---       scene_name1
      ---         BLOCKEND  ---      ---       LVL=1
      01002A46H   LINE      CODE     ---       #480
      01002A4CH   LINE      CODE     ---       #481
      01002A4CH   LINE      CODE     ---       #482
      01002A59H   LINE      CODE     ---       #483
      01002A66H   LINE      CODE     ---       #484
      01002A71H   LINE      CODE     ---       #485
      01002A7CH   LINE      CODE     ---       #486
      01002A7FH   LINE      CODE     ---       #487
      01002A85H   LINE      CODE     ---       #488
      01002A92H   LINE      CODE     ---       #489
      01002A9FH   LINE      CODE     ---       #490
      01002AA3H   LINE      CODE     ---       #491
LX51 LINKER/LOCATER V4.66.97.0                                                        09/27/2023  17:05:17  PAGE 181


      01002AA3H   LINE      CODE     ---       #492
      01002AA6H   LINE      CODE     ---       #493
      01002AB3H   LINE      CODE     ---       #494
      01002AC0H   LINE      CODE     ---       #495
      01002ACDH   LINE      CODE     ---       #496
      01002ADCH   LINE      CODE     ---       #497
      01002AE7H   LINE      CODE     ---       #498
      01002AF4H   LINE      CODE     ---       #502
      01002B01H   LINE      CODE     ---       #503
      01002B01H   LINE      CODE     ---       #504
      01002B1EH   LINE      CODE     ---       #505
      01002B1EH   LINE      CODE     ---       #506
      01002B38H   LINE      CODE     ---       #508
      01002B50H   LINE      CODE     ---       #510
      01002B5CH   LINE      CODE     ---       #511
      01002B5CH   LINE      CODE     ---       #512
      01002B7AH   LINE      CODE     ---       #513
      01002B7AH   LINE      CODE     ---       #514
      01002B9DH   LINE      CODE     ---       #515
      01002BA3H   LINE      CODE     ---       #516
      01002BA3H   LINE      CODE     ---       #517
      01002BA8H   LINE      CODE     ---       #518
      01002BB9H   LINE      CODE     ---       #519
      01002BB9H   LINE      CODE     ---       #520
      01002BD7H   LINE      CODE     ---       #521
      01002BD7H   LINE      CODE     ---       #522
      01002BFAH   LINE      CODE     ---       #523
      01002C00H   LINE      CODE     ---       #524
      01002C00H   LINE      CODE     ---       #525
      01002C05H   LINE      CODE     ---       #529
      01002C05H   LINE      CODE     ---       #531
      01002C05H   LINE      CODE     ---       #532
      01002C15H   LINE      CODE     ---       #533
      01002C15H   LINE      CODE     ---       #534
      01002C3AH   LINE      CODE     ---       #535
      01002C3AH   LINE      CODE     ---       #537
      01002C73H   LINE      CODE     ---       #539
      01002C81H   LINE      CODE     ---       #541
      01002C96H   LINE      CODE     ---       #542
      01002C9DH   LINE      CODE     ---       #544
      01002CBFH   LINE      CODE     ---       #545
      01002CC8H   LINE      CODE     ---       #546
      01002CCEH   LINE      CODE     ---       #547
      01002CCEH   LINE      CODE     ---       #548
      01002CD4H   LINE      CODE     ---       #551
      01002CD4H   LINE      CODE     ---       #552
      01002CD4H   LINE      CODE     ---       #553
      01002CD4H   LINE      CODE     ---       #554
      01002CD4H   LINE      CODE     ---       #555
      01002CD4H   LINE      CODE     ---       #556
      01002CD4H   LINE      CODE     ---       #557
      01002CD4H   LINE      CODE     ---       #558
      01002CD4H   LINE      CODE     ---       #560
      01002CD4H   LINE      CODE     ---       #561
      01002CD4H   LINE      CODE     ---       #562
      01002CE7H   LINE      CODE     ---       #563
      01002CE7H   LINE      CODE     ---       #564
      01002CFDH   LINE      CODE     ---       #565
      01002CFDH   LINE      CODE     ---       #567
      01002D2DH   LINE      CODE     ---       #569
      01002D33H   LINE      CODE     ---       #570
      01002D33H   LINE      CODE     ---       #571
      01002D38H   LINE      CODE     ---       #574
      01002D5CH   LINE      CODE     ---       #576
      01002D6FH   LINE      CODE     ---       #577
LX51 LINKER/LOCATER V4.66.97.0                                                        09/27/2023  17:05:17  PAGE 182


      01002D88H   LINE      CODE     ---       #579
      01002D96H   LINE      CODE     ---       #580
      01002D96H   LINE      CODE     ---       #581
      01002DAAH   LINE      CODE     ---       #582
      01002DAAH   LINE      CODE     ---       #583
      01002DDCH   LINE      CODE     ---       #584
      01002DDFH   LINE      CODE     ---       #585
      01002DF3H   LINE      CODE     ---       #586
      01002DF3H   LINE      CODE     ---       #587
      01002E17H   LINE      CODE     ---       #588
      01002E1AH   LINE      CODE     ---       #589
      01002E2EH   LINE      CODE     ---       #590
      01002E2EH   LINE      CODE     ---       #591
      01002E57H   LINE      CODE     ---       #592
      01002E5AH   LINE      CODE     ---       #593
      01002E62H   LINE      CODE     ---       #594
      01002E62H   LINE      CODE     ---       #595
      01002E8EH   LINE      CODE     ---       #596
      01002E91H   LINE      CODE     ---       #597
      01002E9BH   LINE      CODE     ---       #598
      01002E9BH   LINE      CODE     ---       #599
      01002EA2H   LINE      CODE     ---       #600
      01002EA2H   LINE      CODE     ---       #601
      01002EA2H   LINE      CODE     ---       #602
      01002EA5H   LINE      CODE     ---       #603
      01002EB1H   LINE      CODE     ---       #604
      01002EB1H   LINE      CODE     ---       #605
      01002EB5H   LINE      CODE     ---       #606
      01002EB8H   LINE      CODE     ---       #608
      01002EB8H   LINE      CODE     ---       #609
      01002EBCH   LINE      CODE     ---       #610
      01002EBCH   LINE      CODE     ---       #611
      01002EBFH   LINE      CODE     ---       #612
      01002EC9H   LINE      CODE     ---       #613
      01002EC9H   LINE      CODE     ---       #614
      01002ECEH   LINE      CODE     ---       #615
      01002ECEH   LINE      CODE     ---       #616
      01002ED4H   LINE      CODE     ---       #617
      01002ED7H   LINE      CODE     ---       #619
      01002ED7H   LINE      CODE     ---       #620
      01002EF4H   LINE      CODE     ---       #622
      01002F23H   LINE      CODE     ---       #626
      01002F23H   LINE      CODE     ---       #627
      01002F26H   LINE      CODE     ---       #630
      01002F26H   LINE      CODE     ---       #631
      01002F44H   LINE      CODE     ---       #632
      01002F44H   LINE      CODE     ---       #633
      01002F47H   LINE      CODE     ---       #635
      01002F47H   LINE      CODE     ---       #636
      01002F5BH   LINE      CODE     ---       #637
      01002F5BH   LINE      CODE     ---       #638
      01002FBDH   LINE      CODE     ---       #639
      01002FC0H   LINE      CODE     ---       #640
      01002FD4H   LINE      CODE     ---       #641
      01002FD4H   LINE      CODE     ---       #642
      01002FF7H   LINE      CODE     ---       #643
      01002FF9H   LINE      CODE     ---       #644
      0100300DH   LINE      CODE     ---       #645
      0100300DH   LINE      CODE     ---       #646
      01003030H   LINE      CODE     ---       #647
      01003032H   LINE      CODE     ---       #648
      0100303AH   LINE      CODE     ---       #649
      0100303AH   LINE      CODE     ---       #650
      01003067H   LINE      CODE     ---       #651
      0100306AH   LINE      CODE     ---       #652
LX51 LINKER/LOCATER V4.66.97.0                                                        09/27/2023  17:05:17  PAGE 183


      01003074H   LINE      CODE     ---       #653
      01003074H   LINE      CODE     ---       #654
      0100307BH   LINE      CODE     ---       #655
      0100307BH   LINE      CODE     ---       #656
      0100308DH   LINE      CODE     ---       #657
      01003090H   LINE      CODE     ---       #658
      0100309CH   LINE      CODE     ---       #659
      0100309CH   LINE      CODE     ---       #660
      010030A0H   LINE      CODE     ---       #661
      010030A2H   LINE      CODE     ---       #663
      010030A2H   LINE      CODE     ---       #664
      010030B2H   LINE      CODE     ---       #665
      010030B2H   LINE      CODE     ---       #666
      010030B4H   LINE      CODE     ---       #667
      010030BEH   LINE      CODE     ---       #668
      010030BEH   LINE      CODE     ---       #669
      010030C5H   LINE      CODE     ---       #670
      010030C5H   LINE      CODE     ---       #671
      010030D5H   LINE      CODE     ---       #672
      010030D7H   LINE      CODE     ---       #674
      010030D7H   LINE      CODE     ---       #675
      010030F1H   LINE      CODE     ---       #676
      010030F1H   LINE      CODE     ---       #677
      010030F3H   LINE      CODE     ---       #679
      010030F3H   LINE      CODE     ---       #680
      01003132H   LINE      CODE     ---       #681
      01003132H   LINE      CODE     ---       #682
      01003132H   LINE      CODE     ---       #685
      ---         BLOCKEND  ---      ---       LVL=0

      0100B79FH   BLOCK     CODE     ---       LVL=0
      0200C861H   SYMBOL    XDATA    ---       p
      00000005H   SYMBOL    DATA     BYTE      key
      0100B79FH   LINE      CODE     ---       #689
      0100B7A5H   LINE      CODE     ---       #690
      0100B7A5H   LINE      CODE     ---       #692
      0100B7C2H   LINE      CODE     ---       #694
      0100B7CAH   LINE      CODE     ---       #695
      0100B7CAH   LINE      CODE     ---       #697
      0100B7CAH   LINE      CODE     ---       #698
      0100B7E0H   LINE      CODE     ---       #699
      0100B7E0H   LINE      CODE     ---       #700
      0100B7E0H   LINE      CODE     ---       #701
      0100B7E0H   LINE      CODE     ---       #702
      0100B7E0H   LINE      CODE     ---       #703
      0100B7E0H   LINE      CODE     ---       #705
      0100B7E3H   LINE      CODE     ---       #706
      0100B7E9H   LINE      CODE     ---       #708
      0100B7EBH   LINE      CODE     ---       #709
      0100B7EBH   LINE      CODE     ---       #710
      0100B7EBH   LINE      CODE     ---       #712
      0100B7F4H   LINE      CODE     ---       #713
      0100B7FDH   LINE      CODE     ---       #715
      0100B7FDH   LINE      CODE     ---       #716
      0100B7FDH   LINE      CODE     ---       #717
      0100B7FDH   LINE      CODE     ---       #719
      0100B7FDH   LINE      CODE     ---       #720
      0100B7FDH   LINE      CODE     ---       #721
      ---         BLOCKEND  ---      ---       LVL=0

      0100C8CDH   BLOCK     CODE     ---       LVL=0
      0200C853H   SYMBOL    XDATA    ---       p
      0100C8D3H   BLOCK     CODE     NEAR LAB  LVL=1
      0200C856H   SYMBOL    XDATA    WORD      key_nb
      ---         BLOCKEND  ---      ---       LVL=1
LX51 LINKER/LOCATER V4.66.97.0                                                        09/27/2023  17:05:17  PAGE 184


      0100C8CDH   LINE      CODE     ---       #723
      0100C8D3H   LINE      CODE     ---       #724
      0100C8D3H   LINE      CODE     ---       #725
      0100C8D6H   LINE      CODE     ---       #726
      0100C8E4H   LINE      CODE     ---       #727
      0100C8ECH   LINE      CODE     ---       #728
      0100C8ECH   LINE      CODE     ---       #729
      0100C8F7H   LINE      CODE     ---       #730
      0100C904H   LINE      CODE     ---       #731
      0100C904H   LINE      CODE     ---       #732
      ---         BLOCKEND  ---      ---       LVL=0

      0100D259H   BLOCK     CODE     ---       LVL=0
      0200C85BH   SYMBOL    XDATA    ---       p_time_scene
      0100D259H   LINE      CODE     ---       #734
      0100D25FH   LINE      CODE     ---       #735
      0100D25FH   LINE      CODE     ---       #736
      ---         BLOCKEND  ---      ---       LVL=0

      0100AD02H   BLOCK     CODE     ---       LVL=0
      0200C85BH   SYMBOL    XDATA    ---       p_timing_content
      0200C85EH   SYMBOL    XDATA    ---       p_time_scene
      0100AD08H   BLOCK     CODE     NEAR LAB  LVL=1
      0200C861H   SYMBOL    XDATA    WORD      key_nb
      ---         BLOCKEND  ---      ---       LVL=1
      0100AD02H   LINE      CODE     ---       #740
      0100AD08H   LINE      CODE     ---       #741
      0100AD08H   LINE      CODE     ---       #742
      0100AD0BH   LINE      CODE     ---       #743
      0100AD19H   LINE      CODE     ---       #744
      0100AD25H   LINE      CODE     ---       #745
      0100AD25H   LINE      CODE     ---       #746
      0100AD32H   LINE      CODE     ---       #747
      0100AD3BH   LINE      CODE     ---       #749
      0100AD67H   LINE      CODE     ---       #750
      0100AD70H   LINE      CODE     ---       #751
      0100AD70H   LINE      CODE     ---       #752
      ---         BLOCKEND  ---      ---       LVL=0

      0100C56BH   BLOCK     CODE     ---       LVL=0
      0200C85BH   SYMBOL    XDATA    ---       p_timing_content
      0100C571H   BLOCK     CODE     NEAR LAB  LVL=1
      0200C85EH   SYMBOL    XDATA    WORD      key_nb
      ---         BLOCKEND  ---      ---       LVL=1
      0100C56BH   LINE      CODE     ---       #754
      0100C571H   LINE      CODE     ---       #755
      0100C571H   LINE      CODE     ---       #756
      0100C574H   LINE      CODE     ---       #757
      0100C582H   LINE      CODE     ---       #758
      0100C58EH   LINE      CODE     ---       #759
      0100C58EH   LINE      CODE     ---       #760
      0100C597H   LINE      CODE     ---       #761
      0100C5A4H   LINE      CODE     ---       #762
      0100C5ADH   LINE      CODE     ---       #763
      0100C5ADH   LINE      CODE     ---       #764
      ---         BLOCKEND  ---      ---       LVL=0

      0100D35FH   BLOCK     CODE     ---       LVL=0
      00000001H   SYMBOL    DATA     ---       p_timing_content
      0100D35FH   LINE      CODE     ---       #765
      0100D35FH   LINE      CODE     ---       #766
      0100D35FH   LINE      CODE     ---       #767
      ---         BLOCKEND  ---      ---       LVL=0

      0100C129H   BLOCK     CODE     ---       LVL=0
LX51 LINKER/LOCATER V4.66.97.0                                                        09/27/2023  17:05:17  PAGE 185


      0200C861H   SYMBOL    XDATA    ---       p_timing_content
      0100C129H   LINE      CODE     ---       #769
      0100C12FH   LINE      CODE     ---       #770
      0100C12FH   LINE      CODE     ---       #771
      0100C136H   LINE      CODE     ---       #772
      0100C13DH   LINE      CODE     ---       #773
      0100C13DH   LINE      CODE     ---       #774
      0100C147H   LINE      CODE     ---       #775
      0100C14AH   LINE      CODE     ---       #776
      0100C14CH   LINE      CODE     ---       #777
      0100C153H   LINE      CODE     ---       #778
      0100C153H   LINE      CODE     ---       #779
      0100C156H   LINE      CODE     ---       #780
      0100C15AH   LINE      CODE     ---       #781
      0100C15CH   LINE      CODE     ---       #783
      0100C15CH   LINE      CODE     ---       #784
      0100C160H   LINE      CODE     ---       #785
      0100C16AH   LINE      CODE     ---       #786
      0100C16AH   LINE      CODE     ---       #787
      ---         BLOCKEND  ---      ---       LVL=0

      0100C256H   BLOCK     CODE     ---       LVL=0
      0200C861H   SYMBOL    XDATA    ---       p_timing_content
      0100C25CH   BLOCK     CODE     NEAR LAB  LVL=1
      0200C864H   SYMBOL    XDATA    ---       scene_name
      ---         BLOCKEND  ---      ---       LVL=1
      0100C256H   LINE      CODE     ---       #789
      0100C25CH   LINE      CODE     ---       #790
      0100C25CH   LINE      CODE     ---       #791
      0100C267H   LINE      CODE     ---       #792
      0100C26EH   LINE      CODE     ---       #793
      0100C28EH   LINE      CODE     ---       #794
      ---         BLOCKEND  ---      ---       LVL=0

      01006F1DH   BLOCK     CODE     ---       LVL=0
      0200C85BH   SYMBOL    XDATA    ---       p_timing_content
      0200C85EH   SYMBOL    XDATA    ---       p_time_scene
      01006F1DH   LINE      CODE     ---       #797
      01006F23H   LINE      CODE     ---       #798
      01006F23H   LINE      CODE     ---       #799
      01006F2CH   LINE      CODE     ---       #801
      01006F35H   LINE      CODE     ---       #802
      01006F43H   LINE      CODE     ---       #804
      01006F4EH   LINE      CODE     ---       #806
      01006F5EH   LINE      CODE     ---       #807
      01006F67H   LINE      CODE     ---       #808
      01006FABH   LINE      CODE     ---       #810
      01006FC3H   LINE      CODE     ---       #811
      01006FC3H   LINE      CODE     ---       #812
      01006FC3H   LINE      CODE     ---       #813
      01006FD8H   LINE      CODE     ---       #814
      01006FEFH   LINE      CODE     ---       #816
      01006FFBH   LINE      CODE     ---       #817
      01007001H   LINE      CODE     ---       #818
      01007004H   LINE      CODE     ---       #819
      01007006H   LINE      CODE     ---       #820
      01007008H   LINE      CODE     ---       #821
      01007008H   LINE      CODE     ---       #822
      01007011H   LINE      CODE     ---       #823
      0100701AH   LINE      CODE     ---       #824
      0100701FH   LINE      CODE     ---       #825
      01007022H   LINE      CODE     ---       #826
      01007025H   LINE      CODE     ---       #827
      01007027H   LINE      CODE     ---       #828
      01007027H   LINE      CODE     ---       #829
LX51 LINKER/LOCATER V4.66.97.0                                                        09/27/2023  17:05:17  PAGE 186


      01007030H   LINE      CODE     ---       #830
      01007039H   LINE      CODE     ---       #831
      01007039H   LINE      CODE     ---       #832
      01007039H   LINE      CODE     ---       #833
      0100703EH   LINE      CODE     ---       #834
      0100703EH   LINE      CODE     ---       #835
      0100703EH   LINE      CODE     ---       #836
      0100703EH   LINE      CODE     ---       #837
      0100703EH   LINE      CODE     ---       #838
      01007046H   LINE      CODE     ---       #839
      0100704EH   LINE      CODE     ---       #840
      0100705CH   LINE      CODE     ---       #841
      ---         BLOCKEND  ---      ---       LVL=0

      0100B919H   BLOCK     CODE     ---       LVL=0
      0200C853H   SYMBOL    XDATA    ---       p_timing_content
      0200C856H   SYMBOL    XDATA    ---       p_time_scene
      0100B91FH   BLOCK     CODE     NEAR LAB  LVL=1
      0200C859H   SYMBOL    XDATA    WORD      key_nb
      ---         BLOCKEND  ---      ---       LVL=1
      0100B919H   LINE      CODE     ---       #843
      0100B91FH   LINE      CODE     ---       #844
      0100B91FH   LINE      CODE     ---       #845
      0100B922H   LINE      CODE     ---       #846
      0100B930H   LINE      CODE     ---       #847
      0100B938H   LINE      CODE     ---       #848
      0100B938H   LINE      CODE     ---       #849
      0100B944H   LINE      CODE     ---       #850
      0100B944H   LINE      CODE     ---       #851
      0100B944H   LINE      CODE     ---       #852
      0100B94AH   LINE      CODE     ---       #854
      0100B94CH   LINE      CODE     ---       #855
      0100B94CH   LINE      CODE     ---       #856
      0100B958H   LINE      CODE     ---       #857
      0100B958H   LINE      CODE     ---       #858
      0100B958H   LINE      CODE     ---       #860
      0100B958H   LINE      CODE     ---       #861
      0100B958H   LINE      CODE     ---       #862
      0100B965H   LINE      CODE     ---       #863
      0100B965H   LINE      CODE     ---       #864
      0100B96BH   LINE      CODE     ---       #865
      ---         BLOCKEND  ---      ---       LVL=0

      0100CA13H   BLOCK     CODE     ---       LVL=0
      0200C867H   SYMBOL    XDATA    ---       p_module
      0200C86AH   SYMBOL    XDATA    ---       p_timing_content
      0100CA13H   LINE      CODE     ---       #868
      0100CA19H   LINE      CODE     ---       #869
      0100CA19H   LINE      CODE     ---       #878
      0100CA25H   LINE      CODE     ---       #879
      0100CA31H   LINE      CODE     ---       #880
      0100CA3FH   LINE      CODE     ---       #881
      ---         BLOCKEND  ---      ---       LVL=0

      01009F09H   BLOCK     CODE     ---       LVL=0
      0200C85EH   SYMBOL    XDATA    ---       p_module
      0200C861H   SYMBOL    XDATA    ---       p_timing_content
      0200C864H   SYMBOL    XDATA    ---       p_time_scene_set
      01009F09H   LINE      CODE     ---       #883
      01009F0FH   LINE      CODE     ---       #884
      01009F0FH   LINE      CODE     ---       #885
      01009F1BH   LINE      CODE     ---       #886
      01009F2CH   LINE      CODE     ---       #887
      01009F4DH   LINE      CODE     ---       #889
      01009F5FH   LINE      CODE     ---       #890
LX51 LINKER/LOCATER V4.66.97.0                                                        09/27/2023  17:05:17  PAGE 187


      01009F65H   LINE      CODE     ---       #891
      01009F6BH   LINE      CODE     ---       #892
      01009F71H   LINE      CODE     ---       #894
      01009F74H   LINE      CODE     ---       #896
      01009F84H   LINE      CODE     ---       #897
      01009F84H   LINE      CODE     ---       #898
      01009F90H   LINE      CODE     ---       #899
      01009F90H   LINE      CODE     ---       #901
      01009F92H   LINE      CODE     ---       #903
      01009F92H   LINE      CODE     ---       #904
      01009F98H   LINE      CODE     ---       #905
      01009F9FH   LINE      CODE     ---       #906
      01009F9FH   LINE      CODE     ---       #907
      ---         BLOCKEND  ---      ---       LVL=0

      0100D36CH   BLOCK     CODE     ---       LVL=0
      0100D36CH   LINE      CODE     ---       #908
      0100D36CH   LINE      CODE     ---       #909
      0100D36CH   LINE      CODE     ---       #910
      0100D36FH   LINE      CODE     ---       #911
      ---         BLOCKEND  ---      ---       LVL=0

      0100C6F3H   BLOCK     CODE     ---       LVL=0
      0200C867H   SYMBOL    XDATA    ---       p_time_scene
      0100C6F3H   LINE      CODE     ---       #913
      0100C6F9H   LINE      CODE     ---       #914
      0100C6F9H   LINE      CODE     ---       #916
      0100C6FFH   LINE      CODE     ---       #917
      0100C6FFH   LINE      CODE     ---       #918
      0100C707H   LINE      CODE     ---       #920
      0100C707H   LINE      CODE     ---       #921
      0100C712H   LINE      CODE     ---       #922
      0100C720H   LINE      CODE     ---       #923
      0100C730H   LINE      CODE     ---       #924
      ---         BLOCKEND  ---      ---       LVL=0

      0100B37BH   BLOCK     CODE     ---       LVL=0
      0200C85EH   SYMBOL    XDATA    ---       p_time_scene
      0200C861H   SYMBOL    XDATA    ---       p_timing_content
      0200C864H   SYMBOL    XDATA    ---       p_time_scene_set
      0100B37BH   LINE      CODE     ---       #925
      0100B381H   LINE      CODE     ---       #926
      0100B381H   LINE      CODE     ---       #927
      0100B38DH   LINE      CODE     ---       #928
      0100B39EH   LINE      CODE     ---       #929
      0100B3BFH   LINE      CODE     ---       #931
      0100B3C8H   LINE      CODE     ---       #932
      0100B3D1H   LINE      CODE     ---       #933
      0100B3D4H   LINE      CODE     ---       #934
      ---         BLOCKEND  ---      ---       LVL=0

      0100BD58H   BLOCK     CODE     ---       LVL=0
      0200C867H   SYMBOL    XDATA    ---       p_time_scene
      0100BD5EH   BLOCK     CODE     NEAR LAB  LVL=1
      0200C86AH   SYMBOL    XDATA    BYTE      on_sta
      00000007H   SYMBOL    DATA     BYTE      off_sta
      ---         BLOCKEND  ---      ---       LVL=1
      0100BD58H   LINE      CODE     ---       #938
      0100BD5EH   LINE      CODE     ---       #939
      0100BD5EH   LINE      CODE     ---       #940
      0100BD63H   LINE      CODE     ---       #941
      0100BD6FH   LINE      CODE     ---       #942
      0100BD76H   LINE      CODE     ---       #943
      0100BD80H   LINE      CODE     ---       #944
      0100BD80H   LINE      CODE     ---       #945
LX51 LINKER/LOCATER V4.66.97.0                                                        09/27/2023  17:05:17  PAGE 188


      0100BD87H   LINE      CODE     ---       #946
      0100BD88H   LINE      CODE     ---       #947
      0100BD8AH   LINE      CODE     ---       #948
      0100BD8FH   LINE      CODE     ---       #949
      0100BD8FH   LINE      CODE     ---       #950
      0100BD97H   LINE      CODE     ---       #951
      0100BD99H   LINE      CODE     ---       #952
      0100BD9BH   LINE      CODE     ---       #953
      0100BDA0H   LINE      CODE     ---       #954
      0100BDA0H   LINE      CODE     ---       #955
      0100BDA8H   LINE      CODE     ---       #956
      0100BDADH   LINE      CODE     ---       #957
      0100BDADH   LINE      CODE     ---       #958
      ---         BLOCKEND  ---      ---       LVL=0

      0100B2B6H   BLOCK     CODE     ---       LVL=0
      0200C85EH   SYMBOL    XDATA    ---       p_time_scene
      0200C861H   SYMBOL    XDATA    ---       p_timing_content
      0200C864H   SYMBOL    XDATA    ---       p_time_scene_set
      0100B2B6H   LINE      CODE     ---       #959
      0100B2BCH   LINE      CODE     ---       #960
      0100B2BCH   LINE      CODE     ---       #961
      0100B2C9H   LINE      CODE     ---       #962
      0100B2DAH   LINE      CODE     ---       #963
      0100B2FBH   LINE      CODE     ---       #965
      0100B304H   LINE      CODE     ---       #966
      0100B30DH   LINE      CODE     ---       #967
      0100B316H   LINE      CODE     ---       #968
      ---         BLOCKEND  ---      ---       LVL=0

      010097DAH   BLOCK     CODE     ---       LVL=0
      0200C853H   SYMBOL    XDATA    ---       p_module
      0200C856H   SYMBOL    XDATA    ---       p_timing_content
      0200C859H   SYMBOL    XDATA    ---       p_time_scene_set
      010097E0H   BLOCK     CODE     NEAR LAB  LVL=1
      0200C85CH   SYMBOL    XDATA    WORD      key_nb
      ---         BLOCKEND  ---      ---       LVL=1
      010097DAH   LINE      CODE     ---       #970
      010097E0H   LINE      CODE     ---       #971
      010097E0H   LINE      CODE     ---       #972
      010097E7H   LINE      CODE     ---       #973
      010097EDH   LINE      CODE     ---       #974
      010097F8H   LINE      CODE     ---       #975
      010097F8H   LINE      CODE     ---       #976
      01009810H   LINE      CODE     ---       #977
      01009810H   LINE      CODE     ---       #978
      01009810H   LINE      CODE     ---       #979
      01009828H   LINE      CODE     ---       #981
      0100982AH   LINE      CODE     ---       #982
      0100982AH   LINE      CODE     ---       #983
      0100982AH   LINE      CODE     ---       #984
      0100982CH   LINE      CODE     ---       #985
      0100982CH   LINE      CODE     ---       #986
      01009854H   LINE      CODE     ---       #989
      01009856H   LINE      CODE     ---       #990
      01009856H   LINE      CODE     ---       #991
      0100987EH   LINE      CODE     ---       #993
      01009880H   LINE      CODE     ---       #994
      01009883H   LINE      CODE     ---       #996
      01009883H   LINE      CODE     ---       #997
      01009883H   LINE      CODE     ---       #998
      01009883H   LINE      CODE     ---       #999
      01009883H   LINE      CODE     ---       #1000
      01009889H   LINE      CODE     ---       #1001
      01009889H   LINE      CODE     ---       #1002
LX51 LINKER/LOCATER V4.66.97.0                                                        09/27/2023  17:05:17  PAGE 189


      ---         BLOCKEND  ---      ---       LVL=0

      01007EA3H   BLOCK     CODE     ---       LVL=0
      0200C853H   SYMBOL    XDATA    ---       p_module
      0200C856H   SYMBOL    XDATA    ---       p_timing_content
      01007EA9H   BLOCK     CODE     NEAR LAB  LVL=1
      0200C859H   SYMBOL    XDATA    WORD      key_nb
      ---         BLOCKEND  ---      ---       LVL=1
      01007EA3H   LINE      CODE     ---       #1004
      01007EA9H   LINE      CODE     ---       #1005
      01007EA9H   LINE      CODE     ---       #1006
      01007EB0H   LINE      CODE     ---       #1008
      01007EB6H   LINE      CODE     ---       #1009
      01007EC1H   LINE      CODE     ---       #1010
      01007EC1H   LINE      CODE     ---       #1011
      01007ED9H   LINE      CODE     ---       #1012
      01007ED9H   LINE      CODE     ---       #1013
      01007ED9H   LINE      CODE     ---       #1014
      01007EDFH   LINE      CODE     ---       #1015
      01007EE2H   LINE      CODE     ---       #1016
      01007EE5H   LINE      CODE     ---       #1017
      01007EEAH   LINE      CODE     ---       #1018
      01007EECH   LINE      CODE     ---       #1020
      01007EF4H   LINE      CODE     ---       #1021
      01007EF4H   LINE      CODE     ---       #1022
      01007EF7H   LINE      CODE     ---       #1023
      01007EF9H   LINE      CODE     ---       #1025
      01007EF9H   LINE      CODE     ---       #1026
      01007F03H   LINE      CODE     ---       #1027
      01007F03H   LINE      CODE     ---       #1028
      01007F09H   LINE      CODE     ---       #1029
      01007F09H   LINE      CODE     ---       #1030
      01007F09H   LINE      CODE     ---       #1031
      01007F09H   LINE      CODE     ---       #1032
      01007F0BH   LINE      CODE     ---       #1034
      01007F0BH   LINE      CODE     ---       #1035
      01007F10H   LINE      CODE     ---       #1036
      01007F10H   LINE      CODE     ---       #1037
      01007F12H   LINE      CODE     ---       #1038
      01007F12H   LINE      CODE     ---       #1039
      01007F1CH   LINE      CODE     ---       #1040
      01007F29H   LINE      CODE     ---       #1041
      01007F2CH   LINE      CODE     ---       #1042
      01007F31H   LINE      CODE     ---       #1043
      01007F35H   LINE      CODE     ---       #1045
      01007F3BH   LINE      CODE     ---       #1046
      01007F3BH   LINE      CODE     ---       #1047
      01007F41H   LINE      CODE     ---       #1048
      01007F45H   LINE      CODE     ---       #1049
      01007F47H   LINE      CODE     ---       #1051
      01007F47H   LINE      CODE     ---       #1052
      01007F4EH   LINE      CODE     ---       #1053
      01007F53H   LINE      CODE     ---       #1054
      01007F53H   LINE      CODE     ---       #1056
      01007F55H   LINE      CODE     ---       #1057
      01007F55H   LINE      CODE     ---       #1058
      01007F58H   LINE      CODE     ---       #1059
      01007F5BH   LINE      CODE     ---       #1060
      01007F68H   LINE      CODE     ---       #1062
      01007F68H   LINE      CODE     ---       #1063
      01007F68H   LINE      CODE     ---       #1064
      01007F6EH   LINE      CODE     ---       #1065
      01007F6EH   LINE      CODE     ---       #1066
      01007F74H   LINE      CODE     ---       #1067
      01007F78H   LINE      CODE     ---       #1068
LX51 LINKER/LOCATER V4.66.97.0                                                        09/27/2023  17:05:17  PAGE 190


      01007F7AH   LINE      CODE     ---       #1070
      01007F7AH   LINE      CODE     ---       #1071
      01007F81H   LINE      CODE     ---       #1072
      01007F89H   LINE      CODE     ---       #1073
      01007F89H   LINE      CODE     ---       #1074
      01007F89H   LINE      CODE     ---       #1075
      01007F89H   LINE      CODE     ---       #1076
      01007F8FH   LINE      CODE     ---       #1077
      01007F8FH   LINE      CODE     ---       #1078
      ---         BLOCKEND  ---      ---       LVL=0

      01009519H   BLOCK     CODE     ---       LVL=0
      0200C853H   SYMBOL    XDATA    ---       p_time_scene_set
      0100951FH   BLOCK     CODE     NEAR LAB  LVL=1
      0200C856H   SYMBOL    XDATA    WORD      key_nb
      0200C858H   SYMBOL    XDATA    ---       scene_name
      ---         BLOCKEND  ---      ---       LVL=1
      01009519H   LINE      CODE     ---       #1080
      0100951FH   LINE      CODE     ---       #1081
      0100951FH   LINE      CODE     ---       #1082
      01009526H   LINE      CODE     ---       #1083
      01009534H   LINE      CODE     ---       #1084
      0100953AH   LINE      CODE     ---       #1085
      01009545H   LINE      CODE     ---       #1086
      01009545H   LINE      CODE     ---       #1087
      01009565H   LINE      CODE     ---       #1088
      01009578H   LINE      CODE     ---       #1089
      0100957EH   LINE      CODE     ---       #1090
      01009590H   LINE      CODE     ---       #1091
      01009590H   LINE      CODE     ---       #1092
      010095A0H   LINE      CODE     ---       #1093
      010095ADH   LINE      CODE     ---       #1094
      010095AFH   LINE      CODE     ---       #1096
      010095AFH   LINE      CODE     ---       #1097
      010095B9H   LINE      CODE     ---       #1098
      010095C2H   LINE      CODE     ---       #1099
      010095C2H   LINE      CODE     ---       #1100
      010095C9H   LINE      CODE     ---       #1101
      010095C9H   LINE      CODE     ---       #1102
      ---         BLOCKEND  ---      ---       LVL=0

      0100B7FEH   BLOCK     CODE     ---       LVL=0
      0100B7FEH   BLOCK     CODE     NEAR LAB  LVL=1
      0200C853H   SYMBOL    XDATA    WORD      key_nb
      ---         BLOCKEND  ---      ---       LVL=1
      0100B7FEH   LINE      CODE     ---       #1104
      0100B7FEH   LINE      CODE     ---       #1105
      0100B7FEH   LINE      CODE     ---       #1106
      0100B805H   LINE      CODE     ---       #1108
      0100B80BH   LINE      CODE     ---       #1109
      0100B813H   LINE      CODE     ---       #1110
      0100B813H   LINE      CODE     ---       #1111
      0100B81EH   LINE      CODE     ---       #1112
      0100B81EH   LINE      CODE     ---       #1113
      0100B81EH   LINE      CODE     ---       #1114
      0100B82BH   LINE      CODE     ---       #1115
      0100B82DH   LINE      CODE     ---       #1116
      0100B834H   LINE      CODE     ---       #1117
      0100B836H   LINE      CODE     ---       #1118
      0100B836H   LINE      CODE     ---       #1119
      0100B843H   LINE      CODE     ---       #1120
      0100B845H   LINE      CODE     ---       #1121
      0100B84CH   LINE      CODE     ---       #1122
      0100B84CH   LINE      CODE     ---       #1123
      0100B84CH   LINE      CODE     ---       #1124
LX51 LINKER/LOCATER V4.66.97.0                                                        09/27/2023  17:05:17  PAGE 191


      0100B852H   LINE      CODE     ---       #1125
      0100B852H   LINE      CODE     ---       #1126
      ---         BLOCKEND  ---      ---       LVL=0

      0100A399H   BLOCK     CODE     ---       LVL=0
      0200C853H   SYMBOL    XDATA    ---       p
      0100A399H   LINE      CODE     ---       #1128
      0100A39FH   LINE      CODE     ---       #1129
      0100A39FH   LINE      CODE     ---       #1130
      0100A3AFH   LINE      CODE     ---       #1131
      0100A3AFH   LINE      CODE     ---       #1132
      0100A3BBH   LINE      CODE     ---       #1133
      0100A3BDH   LINE      CODE     ---       #1135
      0100A3BDH   LINE      CODE     ---       #1136
      0100A3E3H   LINE      CODE     ---       #1137
      0100A3E3H   LINE      CODE     ---       #1138
      0100A3F2H   LINE      CODE     ---       #1139
      0100A3FFH   LINE      CODE     ---       #1140
      0100A411H   LINE      CODE     ---       #1141
      0100A41AH   LINE      CODE     ---       #1142
      ---         BLOCKEND  ---      ---       LVL=0

      0100C632H   BLOCK     CODE     ---       LVL=0
      0200C853H   SYMBOL    XDATA    ---       p
      0100C632H   LINE      CODE     ---       #1145
      0100C638H   LINE      CODE     ---       #1146
      0100C638H   LINE      CODE     ---       #1147
      0100C650H   LINE      CODE     ---       #1148
      0100C662H   LINE      CODE     ---       #1149
      ---         BLOCKEND  ---      ---       LVL=0

      0100AC92H   BLOCK     CODE     ---       LVL=0
      0200C853H   SYMBOL    XDATA    ---       p
      0100AC92H   LINE      CODE     ---       #1152
      0100AC98H   LINE      CODE     ---       #1153
      0100AC98H   LINE      CODE     ---       #1154
      0100ACA5H   LINE      CODE     ---       #1155
      0100ACA5H   LINE      CODE     ---       #1156
      0100ACB2H   LINE      CODE     ---       #1157
      0100ACBCH   LINE      CODE     ---       #1158
      0100ACBCH   LINE      CODE     ---       #1159
      0100ACBEH   LINE      CODE     ---       #1160
      0100ACCBH   LINE      CODE     ---       #1161
      0100ACCBH   LINE      CODE     ---       #1162
      0100ACD8H   LINE      CODE     ---       #1163
      0100ACE5H   LINE      CODE     ---       #1164
      0100ACF0H   LINE      CODE     ---       #1165
      0100ACF0H   LINE      CODE     ---       #1166
      ---         BLOCKEND  ---      ---       LVL=0

      010057F0H   BLOCK     CODE     ---       LVL=0
      010057F0H   BLOCK     CODE     NEAR LAB  LVL=1
      0200C853H   SYMBOL    XDATA    BYTE      i
      0200C854H   SYMBOL    XDATA    ---       sys_time
      02009410H   SYMBOL    XDATA    BYTE      sec_bak
      0200C85CH   SYMBOL    XDATA    ---       temp_date
      0200C860H   SYMBOL    XDATA    ---       temp_time
      0200C863H   SYMBOL    XDATA    BYTE      week
      ---         BLOCKEND  ---      ---       LVL=1
      010057F0H   LINE      CODE     ---       #1169
      010057F0H   LINE      CODE     ---       #1170
      010057F0H   LINE      CODE     ---       #1171
      010057F5H   LINE      CODE     ---       #1172
      01005800H   LINE      CODE     ---       #1174
      0100580BH   LINE      CODE     ---       #1175
LX51 LINKER/LOCATER V4.66.97.0                                                        09/27/2023  17:05:17  PAGE 192


      0100581EH   LINE      CODE     ---       #1176
      01005823H   LINE      CODE     ---       #1177
      0100582CH   LINE      CODE     ---       #1178
      01005839H   LINE      CODE     ---       #1179
      01005841H   LINE      CODE     ---       #1180
      01005849H   LINE      CODE     ---       #1181
      01005863H   LINE      CODE     ---       #1182
      0100586BH   LINE      CODE     ---       #1183
      01005873H   LINE      CODE     ---       #1184
      0100587CH   LINE      CODE     ---       #1186
      01005886H   LINE      CODE     ---       #1187
      01005886H   LINE      CODE     ---       #1188
      0100588EH   LINE      CODE     ---       #1189
      0100589EH   LINE      CODE     ---       #1190
      0100589EH   LINE      CODE     ---       #1191
      010058A6H   LINE      CODE     ---       #1192
      010058A6H   LINE      CODE     ---       #1193
      010058B5H   LINE      CODE     ---       #1194
      010058B5H   LINE      CODE     ---       #1196
      010058DAH   LINE      CODE     ---       #1197
      010058DAH   LINE      CODE     ---       #1199
      01005929H   LINE      CODE     ---       #1200
      01005929H   LINE      CODE     ---       #1201
      01005932H   LINE      CODE     ---       #1202
      01005942H   LINE      CODE     ---       #1203
      01005942H   LINE      CODE     ---       #1204
      01005942H   LINE      CODE     ---       #1205
      01005945H   LINE      CODE     ---       #1207
      01005945H   LINE      CODE     ---       #1208
      010059D3H   LINE      CODE     ---       #1209
      010059D3H   LINE      CODE     ---       #1210
      01005A08H   LINE      CODE     ---       #1211
      01005A08H   LINE      CODE     ---       #1212
      01005A63H   LINE      CODE     ---       #1213
      01005A63H   LINE      CODE     ---       #1214
      01005A81H   LINE      CODE     ---       #1215
      01005A81H   LINE      CODE     ---       #1216
      01005A81H   LINE      CODE     ---       #1217
      01005A81H   LINE      CODE     ---       #1218
      01005A81H   LINE      CODE     ---       #1219
      01005A8AH   LINE      CODE     ---       #1220
      01005A8AH   LINE      CODE     ---       #1221
      ---         BLOCKEND  ---      ---       LVL=0

      0100875FH   BLOCK     CODE     ---       LVL=0
      0100875FH   BLOCK     CODE     NEAR LAB  LVL=1
      02009411H   SYMBOL    XDATA    BYTE      i
      ---         BLOCKEND  ---      ---       LVL=1
      0100875FH   LINE      CODE     ---       #1222
      0100875FH   LINE      CODE     ---       #1223
      0100875FH   LINE      CODE     ---       #1225
      01008784H   LINE      CODE     ---       #1226
      01008784H   LINE      CODE     ---       #1228
      01008791H   LINE      CODE     ---       #1229
      01008791H   LINE      CODE     ---       #1230
      010087A7H   LINE      CODE     ---       #1231
      010087A7H   LINE      CODE     ---       #1233
      010087AFH   LINE      CODE     ---       #1234
      010087C9H   LINE      CODE     ---       #1236
      010087E2H   LINE      CODE     ---       #1237
      010087E2H   LINE      CODE     ---       #1238
      010087E2H   LINE      CODE     ---       #1239
      010087E6H   LINE      CODE     ---       #1240
      010087F7H   LINE      CODE     ---       #1241
      010087F9H   LINE      CODE     ---       #1242
LX51 LINKER/LOCATER V4.66.97.0                                                        09/27/2023  17:05:17  PAGE 193


      010087F9H   LINE      CODE     ---       #1243
      010087FDH   LINE      CODE     ---       #1244
      01008806H   LINE      CODE     ---       #1246
      01008808H   LINE      CODE     ---       #1247
      01008808H   LINE      CODE     ---       #1248
      01008811H   LINE      CODE     ---       #1249
      0100881EH   LINE      CODE     ---       #1250
      0100881EH   LINE      CODE     ---       #1251
      0100881EH   LINE      CODE     ---       #1252
      0100881EH   LINE      CODE     ---       #1253
      0100881EH   LINE      CODE     ---       #1254
      0100881EH   LINE      CODE     ---       #1255
      0100881EH   LINE      CODE     ---       #1256
      0100881EH   LINE      CODE     ---       #1257
      01008820H   LINE      CODE     ---       #1259
      01008820H   LINE      CODE     ---       #1260
      01008826H   LINE      CODE     ---       #1262
      01008826H   LINE      CODE     ---       #1263
      01008830H   LINE      CODE     ---       #1264
      01008830H   LINE      CODE     ---       #1265
      01008832H   LINE      CODE     ---       #1268
      01008832H   LINE      CODE     ---       #1269
      ---         BLOCKEND  ---      ---       LVL=0

      0100AA46H   BLOCK     CODE     ---       LVL=0
      00000006H   SYMBOL    DATA     WORD      year_adr
      0200C853H   SYMBOL    XDATA    WORD      month_adr
      0200C855H   SYMBOL    XDATA    WORD      day_adr
      0100AA54H   BLOCK     CODE     NEAR LAB  LVL=1
      0200C857H   SYMBOL    XDATA    BYTE      day
      0200C858H   SYMBOL    XDATA    BYTE      month
      0200C859H   SYMBOL    XDATA    WORD      year
      ---         BLOCKEND  ---      ---       LVL=1
      0100AA46H   LINE      CODE     ---       #1270
      0100AA54H   LINE      CODE     ---       #1271
      0100AA54H   LINE      CODE     ---       #1272
      0100AA55H   LINE      CODE     ---       #1273
      0100AA55H   LINE      CODE     ---       #1274
      0100AA58H   LINE      CODE     ---       #1275
      0100AA63H   LINE      CODE     ---       #1276
      0100AA73H   LINE      CODE     ---       #1277
      0100AA7AH   LINE      CODE     ---       #1278
      0100AA8FH   LINE      CODE     ---       #1283
      0100AAA7H   LINE      CODE     ---       #1284
      0100AAA7H   LINE      CODE     ---       #1285
      0100AAAEH   LINE      CODE     ---       #1286
      0100AABEH   LINE      CODE     ---       #1287
      0100AABEH   LINE      CODE     ---       #1289
      ---         BLOCKEND  ---      ---       LVL=0

      0100D070H   BLOCK     CODE     ---       LVL=0
      0100D070H   LINE      CODE     ---       #1290
      0100D070H   LINE      CODE     ---       #1291
      0100D070H   LINE      CODE     ---       #1292
      0100D07FH   LINE      CODE     ---       #1293
      ---         BLOCKEND  ---      ---       LVL=0

      0100B18CH   BLOCK     CODE     ---       LVL=0
      0100B18CH   LINE      CODE     ---       #1296
      0100B18CH   LINE      CODE     ---       #1297
      0100B18CH   LINE      CODE     ---       #1298
      0100B195H   LINE      CODE     ---       #1299
      0100B1A8H   LINE      CODE     ---       #1300
      0100B1D1H   LINE      CODE     ---       #1301
      0100B1D4H   LINE      CODE     ---       #1302
LX51 LINKER/LOCATER V4.66.97.0                                                        09/27/2023  17:05:17  PAGE 194


      0100B1DDH   LINE      CODE     ---       #1303
      ---         BLOCKEND  ---      ---       LVL=0

      ---         MODULE    ---      ---       ?C_INIT
      01009D82H   PUBLIC    CODE     ---       ?C_START

      ---         MODULE    ---      ---       ?C?COPY
      01002249H   PUBLIC    CODE     ---       ?C?COPY

      ---         MODULE    ---      ---       ?C?CLDPTR
      0100226FH   PUBLIC    CODE     ---       ?C?CLDPTR

      ---         MODULE    ---      ---       ?C?CLDOPTR
      01002288H   PUBLIC    CODE     ---       ?C?CLDOPTR

      ---         MODULE    ---      ---       ?C?CSTPTR
      010022B5H   PUBLIC    CODE     ---       ?C?CSTPTR

      ---         MODULE    ---      ---       ?C?CSTOPTR
      010022C7H   PUBLIC    CODE     ---       ?C?CSTOPTR

      ---         MODULE    ---      ---       ?C?IMUL
      010022E9H   PUBLIC    CODE     ---       ?C?IMUL

      ---         MODULE    ---      ---       ?C?UIDIV
      010022FBH   PUBLIC    CODE     ---       ?C?UIDIV

      ---         MODULE    ---      ---       ?C?SIDIV
      01002350H   PUBLIC    CODE     ---       ?C?SIDIV

      ---         MODULE    ---      ---       ?C?IILDX
      01002386H   PUBLIC    CODE     ---       ?C?IILDX

      ---         MODULE    ---      ---       ?C?ILDIX
      0100239CH   PUBLIC    CODE     ---       ?C?ILDIX

      ---         MODULE    ---      ---       ?C?ILDPTR
      010023B2H   PUBLIC    CODE     ---       ?C?ILDPTR

      ---         MODULE    ---      ---       ?C?ILDOPTR
      010023DDH   PUBLIC    CODE     ---       ?C?ILDOPTR

      ---         MODULE    ---      ---       ?C?ISTPTR
      01002415H   PUBLIC    CODE     ---       ?C?ISTPTR

      ---         MODULE    ---      ---       ?C?ISTOPTR
      01002434H   PUBLIC    CODE     ---       ?C?ISTOPTR

      ---         MODULE    ---      ---       ?C?LADD
      01002461H   PUBLIC    CODE     ---       ?C?LADD

      ---         MODULE    ---      ---       ?C?ULDIV
      010024AAH   PUBLIC    CODE     ---       ?C?ULDIV

      ---         MODULE    ---      ---       ?C?ULCMP
      0100253CH   PUBLIC    CODE     ---       ?C?ULCMP

      ---         MODULE    ---      ---       ?C?ULSHR
      0100254DH   PUBLIC    CODE     ---       ?C?ULSHR

      ---         MODULE    ---      ---       ?C?SLSHR
      01002560H   PUBLIC    CODE     ---       ?C?SLSHR

      ---         MODULE    ---      ---       ?C?LLDXDATA
      01002574H   PUBLIC    CODE     ---       ?C?LLDXDATA
LX51 LINKER/LOCATER V4.66.97.0                                                        09/27/2023  17:05:17  PAGE 195



      ---         MODULE    ---      ---       ?C?LLDXDATA0
      01002580H   PUBLIC    CODE     ---       ?C?LLDXDATA0

      ---         MODULE    ---      ---       ?C?LSTXDATA
      0100258CH   PUBLIC    CODE     ---       ?C?LSTXDATA

      ---         MODULE    ---      ---       ?C?LSTKXDATA
      01002598H   PUBLIC    CODE     ---       ?C?LSTKXDATA

      ---         MODULE    ---      ---       ?C?OFFXADD
      010025C9H   PUBLIC    CODE     ---       ?C?OFFXADD

      ---         MODULE    ---      ---       ?C?PLDXDATA
      010025D5H   PUBLIC    CODE     ---       ?C?PLDXDATA

      ---         MODULE    ---      ---       ?C?PLDIXDATA
      010025DEH   PUBLIC    CODE     ---       ?C?PLDIXDATA

      ---         MODULE    ---      ---       ?C?PSTXDATA
      010025F5H   PUBLIC    CODE     ---       ?C?PSTXDATA

      ---         MODULE    ---      ---       ?C?PLDOPTR
      010025FEH   PUBLIC    CODE     ---       ?C?PLDOPTR

      ---         MODULE    ---      ---       ?C?PSTOPTR
      0100262EH   PUBLIC    CODE     ---       ?C?PSTOPTR

      ---         MODULE    ---      ---       ?C?CCASE
      01002687H   PUBLIC    CODE     ---       ?C?CCASE

      ---         MODULE    ---      ---       PRINTF
      0200CB84H   PUBLIC    XDATA    ---       ?_PRINTF517?BYTE
      0200CB84H   PUBLIC    XDATA    ---       ?_PRINTF?BYTE
      0200CB84H   PUBLIC    XDATA    ---       ?_SPRINTF517?BYTE
      0200CB84H   PUBLIC    XDATA    ---       ?_SPRINTF?BYTE
      01004F40H   PUBLIC    CODE     ---       _PRINTF
      01004F40H   PUBLIC    CODE     ---       _PRINTF517
      01004F3AH   PUBLIC    CODE     ---       _SPRINTF
      01004F3AH   PUBLIC    CODE     ---       _SPRINTF517

      ---         MODULE    ---      ---       ?C?STRCMP
      0100282BH   PUBLIC    CODE     ---       ?C?STRCMP

      ---         MODULE    ---      ---       STRNCPY
      0200CB84H   PUBLIC    XDATA    ---       ?_STRNCPY?BYTE
      0100AF8CH   PUBLIC    CODE     ---       _STRNCPY

      ---         MODULE    ---      ---       STRLEN
      0100D284H   PUBLIC    CODE     ---       _STRLEN

      ---         MODULE    ---      ---       STRCHR

      ---         MODULE    ---      ---       STRSTR
      0200CB90H   PUBLIC    XDATA    ---       ?_STRSTR?BYTE
      01009184H   PUBLIC    CODE     ---       _STRSTR

      ---         MODULE    ---      ---       ?C?MEMSET
      01002848H   PUBLIC    CODE     ---       ?C?MEMSET

      ---         MODULE    ---      ---       ?C?MEMMOVE
      010029EEH   PUBLIC    CODE     ---       ?C?MEMMOVE

      ---         MODULE    ---      ---       ?C?PLDIDATA
      01002A16H   PUBLIC    CODE     ---       ?C?PLDIDATA
LX51 LINKER/LOCATER V4.66.97.0                                                        09/27/2023  17:05:17  PAGE 196



      ---         MODULE    ---      ---       ?C?PSTIDATA
      01002A1FH   PUBLIC    CODE     ---       ?C?PSTIDATA

      ---         MODULE    ---      ---       ?C?PLDPDATA
      01002A28H   PUBLIC    CODE     ---       ?C?PLDPDATA

      ---         MODULE    ---      ---       ?C?PSTPDATA
      01002A31H   PUBLIC    CODE     ---       ?C?PSTPDATA

      ---         MODULE    ---      ---       ?C?PLDCODE
      01002A3AH   PUBLIC    CODE     ---       ?C?PLDCODE



*** WARNING L48: IGNORED RECURSIVE CALL
    CALLED:  _I2CBW/I2C
    CALLER:  I2CSTOP/I2C

*** WARNING L48: IGNORED RECURSIVE CALL
    CALLED:  _I2CBW/I2C
    CALLER:  I2C

*** WARNING L48: IGNORED RECURSIVE CALL
    CALLED:  _RX8130_WRIT_BYTE/I2C
    CALLER:  RX8130_STOP/I2C

Program Size: data=16.1 xdata=20425 const=6495 code=54377
LX51 RUN COMPLETE.  3 WARNING(S),  0 ERROR(S)
