LX51 LINKER/LOCATER V4.66.97.0                                                          11/04/2023  11:13:39  PAGE 1


LX51 LINKER/LOCATER V4.66.97.0, INVOKED BY:
C:\KEIL_C51\C51\BIN\LX51.EXE .\OBJ\STARTUP_M5.obj, .\OBJ\main.obj, .\OBJ\sys.obj, .\OBJ\crc16.obj, .\OBJ\i2c.obj, .\OBJ\
>> Uart.obj, .\OBJ\T5LLIB.obj, .\OBJ\module.obj, .\OBJ\mb_user.obj, .\OBJ\mb_crc.obj, .\OBJ\mb_hook.obj, .\OBJ\mb_host.o
>> bj, .\OBJ\mb_port.obj, .\OBJ\nor_flash.obj, .\OBJ\scene.obj, .\OBJ\time_scene.obj, .\OBJ\touch_panel.obj TO .\OBJ\T5L
>> 51 PRINT (.\OBJ\T5L51.map) REMOVEUNUSED CLASSES (XDATA (X:0X8000-X:0XFFFF), HDATA (X:0X8000-X:0XFFFF))




PROGRAM RECURSIONS REMOVED FROM CALL TREE
=========================================
+--> _I2CBW/I2C
<--+ I2CSTOP/I2C


+--> _I2CBW/I2C
<--+ I2C


+--> _RX8130_WRIT_BYTE/I2C
<--+ RX8130_STOP/I2C



CPU MODE:     8051 MODE
MEMORY MODEL: LARGE


INPUT MODULES INCLUDED:
  .\OBJ\STARTUP_M5.obj (?C_STARTUP)
         COMMENT TYPE 1: A51 / ASM51 Assembler
  .\OBJ\main.obj (MAIN)
         COMMENT TYPE 0: C51 V9.60.0.0
  .\OBJ\sys.obj (SYS)
         COMMENT TYPE 0: C51 V9.60.0.0
  .\OBJ\crc16.obj (CRC16)
         COMMENT TYPE 0: C51 V9.60.0.0
  .\OBJ\i2c.obj (I2C)
         COMMENT TYPE 0: C51 V9.60.0.0
  .\OBJ\Uart.obj (UART)
         COMMENT TYPE 0: C51 V9.60.0.0
  .\OBJ\T5LLIB.obj (T5LLIB)
         COMMENT TYPE 0: C51 V9.60.0.0
  .\OBJ\module.obj (MODULE)
         COMMENT TYPE 0: C51 V9.60.0.0
  .\OBJ\mb_user.obj (MB_USER)
         COMMENT TYPE 0: C51 V9.60.0.0
  .\OBJ\mb_crc.obj (MB_CRC)
         COMMENT TYPE 0: C51 V9.60.0.0
  .\OBJ\mb_hook.obj (MB_HOOK)
         COMMENT TYPE 0: C51 V9.60.0.0
  .\OBJ\mb_host.obj (MB_HOST)
         COMMENT TYPE 0: C51 V9.60.0.0
  .\OBJ\mb_port.obj (MB_PORT)
         COMMENT TYPE 0: C51 V9.60.0.0
  .\OBJ\nor_flash.obj (NOR_FLASH)
         COMMENT TYPE 0: C51 V9.60.0.0
  .\OBJ\scene.obj (SCENE)
         COMMENT TYPE 0: C51 V9.60.0.0
  .\OBJ\time_scene.obj (TIME_SCENE)
         COMMENT TYPE 0: C51 V9.60.0.0
  .\OBJ\touch_panel.obj (TOUCH_PANEL)
         COMMENT TYPE 0: C51 V9.60.0.0
  C:\KEIL_C51\C51\LIB\C51L.LIB (?C_INIT)
         COMMENT TYPE 1: A51 / ASM51 Assembler
  C:\KEIL_C51\C51\LIB\C51L.LIB (?C?COPY)
LX51 LINKER/LOCATER V4.66.97.0                                                        11/04/2023  11:13:39  PAGE 2


         COMMENT TYPE 1: A51 / ASM51 Assembler
  C:\KEIL_C51\C51\LIB\C51L.LIB (?C?CLDPTR)
         COMMENT TYPE 1: A51 / ASM51 Assembler
  C:\KEIL_C51\C51\LIB\C51L.LIB (?C?CLDOPTR)
         COMMENT TYPE 1: A51 / ASM51 Assembler
  C:\KEIL_C51\C51\LIB\C51L.LIB (?C?CSTPTR)
         COMMENT TYPE 1: A51 / ASM51 Assembler
  C:\KEIL_C51\C51\LIB\C51L.LIB (?C?CSTOPTR)
         COMMENT TYPE 1: A51 / ASM51 Assembler
  C:\KEIL_C51\C51\LIB\C51L.LIB (?C?IMUL)
         COMMENT TYPE 1: A51 / ASM51 Assembler
  C:\KEIL_C51\C51\LIB\C51L.LIB (?C?UIDIV)
         COMMENT TYPE 1: A51 / ASM51 Assembler
  C:\KEIL_C51\C51\LIB\C51L.LIB (?C?SIDIV)
         COMMENT TYPE 1: A51 / ASM51 Assembler
  C:\KEIL_C51\C51\LIB\C51L.LIB (?C?IILDX)
         COMMENT TYPE 1: A51 / ASM51 Assembler
  C:\KEIL_C51\C51\LIB\C51L.LIB (?C?ILDIX)
         COMMENT TYPE 1: A51 / ASM51 Assembler
  C:\KEIL_C51\C51\LIB\C51L.LIB (?C?ILDPTR)
         COMMENT TYPE 1: A51 / ASM51 Assembler
  C:\KEIL_C51\C51\LIB\C51L.LIB (?C?ILDOPTR)
         COMMENT TYPE 1: A51 / ASM51 Assembler
  C:\KEIL_C51\C51\LIB\C51L.LIB (?C?ISTPTR)
         COMMENT TYPE 1: A51 / ASM51 Assembler
  C:\KEIL_C51\C51\LIB\C51L.LIB (?C?ISTOPTR)
         COMMENT TYPE 1: A51 / ASM51 Assembler
  C:\KEIL_C51\C51\LIB\C51L.LIB (?C?LADD)
         COMMENT TYPE 1: A51 / ASM51 Assembler
  C:\KEIL_C51\C51\LIB\C51L.LIB (?C?ULDIV)
         COMMENT TYPE 1: A51 / ASM51 Assembler
  C:\KEIL_C51\C51\LIB\C51L.LIB (?C?ULCMP)
         COMMENT TYPE 1: A51 / ASM51 Assembler
  C:\KEIL_C51\C51\LIB\C51L.LIB (?C?ULSHR)
         COMMENT TYPE 1: A51 / ASM51 Assembler
  C:\KEIL_C51\C51\LIB\C51L.LIB (?C?SLSHR)
         COMMENT TYPE 1: A51 / ASM51 Assembler
  C:\KEIL_C51\C51\LIB\C51L.LIB (?C?LLDXDATA)
         COMMENT TYPE 1: A51 / ASM51 Assembler
  C:\KEIL_C51\C51\LIB\C51L.LIB (?C?LLDXDATA0)
         COMMENT TYPE 1: A51 / ASM51 Assembler
  C:\KEIL_C51\C51\LIB\C51L.LIB (?C?LSTXDATA)
         COMMENT TYPE 1: A51 / ASM51 Assembler
  C:\KEIL_C51\C51\LIB\C51L.LIB (?C?LSTKXDATA)
         COMMENT TYPE 1: A51 / ASM51 Assembler
  C:\KEIL_C51\C51\LIB\C51L.LIB (?C?OFFXADD)
         COMMENT TYPE 1: A51 / ASM51 Assembler
  C:\KEIL_C51\C51\LIB\C51L.LIB (?C?PLDXDATA)
         COMMENT TYPE 1: A51 / ASM51 Assembler
  C:\KEIL_C51\C51\LIB\C51L.LIB (?C?PLDIXDATA)
         COMMENT TYPE 1: A51 / ASM51 Assembler
  C:\KEIL_C51\C51\LIB\C51L.LIB (?C?PSTXDATA)
         COMMENT TYPE 1: A51 / ASM51 Assembler
  C:\KEIL_C51\C51\LIB\C51L.LIB (?C?PLDOPTR)
         COMMENT TYPE 1: A51 / ASM51 Assembler
  C:\KEIL_C51\C51\LIB\C51L.LIB (?C?PSTOPTR)
         COMMENT TYPE 1: A51 / ASM51 Assembler
  C:\KEIL_C51\C51\LIB\C51L.LIB (?C?CCASE)
         COMMENT TYPE 1: A51 / ASM51 Assembler
  C:\KEIL_C51\C51\LIB\C51L.LIB (PRINTF)
         COMMENT TYPE 1: A51 / ASM51 Assembler
  C:\KEIL_C51\C51\LIB\C51L.LIB (?C?STRCMP)
         COMMENT TYPE 1: A51 / ASM51 Assembler
  C:\KEIL_C51\C51\LIB\C51L.LIB (STRNCPY)
         COMMENT TYPE 1: C51 Compiler
LX51 LINKER/LOCATER V4.66.97.0                                                        11/04/2023  11:13:39  PAGE 3


  C:\KEIL_C51\C51\LIB\C51L.LIB (STRLEN)
         COMMENT TYPE 1: A51 / ASM51 Assembler
  C:\KEIL_C51\C51\LIB\C51L.LIB (STRCHR)
         COMMENT TYPE 1: A51 / ASM51 Assembler
  C:\KEIL_C51\C51\LIB\C51L.LIB (STRSTR)
         COMMENT TYPE 1: C51 Compiler
  C:\KEIL_C51\C51\LIB\C51L.LIB (?C?MEMSET)
         COMMENT TYPE 1: A51 / ASM51 Assembler
  C:\KEIL_C51\C51\LIB\C51L.LIB (?C?MEMMOVE)
         COMMENT TYPE 1: A51 / ASM51 Assembler
  C:\KEIL_C51\C51\LIB\C51L.LIB (?C?PLDIDATA)
         COMMENT TYPE 1: A51 / ASM51 Assembler
  C:\KEIL_C51\C51\LIB\C51L.LIB (?C?PSTIDATA)
         COMMENT TYPE 1: A51 / ASM51 Assembler
  C:\KEIL_C51\C51\LIB\C51L.LIB (?C?PLDPDATA)
         COMMENT TYPE 1: A51 / ASM51 Assembler
  C:\KEIL_C51\C51\LIB\C51L.LIB (?C?PSTPDATA)
         COMMENT TYPE 1: A51 / ASM51 Assembler
  C:\KEIL_C51\C51\LIB\C51L.LIB (?C?PLDCODE)
         COMMENT TYPE 1: A51 / ASM51 Assembler


ACTIVE MEMORY CLASSES OF MODULE:  .\OBJ\T5L51 (?C_STARTUP)

BASE        START       END         USED      MEMORY CLASS
==========================================================
X:000000H   X:008000H   X:00FFFFH   004FB1H   XDATA
X:000000H   X:008000H   X:00FFFFH             HDATA
C:000000H   C:000000H   C:00FFFFH   00D720H   CODE
I:000000H   I:000000H   I:0000FFH   000001H   IDATA
C:000000H   C:000000H   C:00FFFFH   001ADDH   CONST
I:000020H.0 I:000020H.0 I:00002FH.7 000002H.1 BIT
I:000000H   I:000000H   I:00007FH   00000DH   DATA


MEMORY MAP OF MODULE:  .\OBJ\T5L51 (?C_STARTUP)


START     STOP      LENGTH    ALIGN  RELOC    MEMORY CLASS   SEGMENT NAME
=========================================================================

* * * * * * * * * * *   D A T A   M E M O R Y   * * * * * * * * * * * * *
000000H   000007H   000008H   ---    AT..     DATA           "REG BANK 0"
000008H   00000CH   000005H   BYTE   UNIT     DATA           _DATA_GROUP_
00000DH.0 00001FH.7 000013H.0 ---    ---      **GAP**
000020H.0 000021H.0 000001H.1 BIT    UNIT     BIT            _BIT_GROUP_
000021H.1 000021H.7 000000H.7 BIT    UNIT     BIT            ?BI?UART
000022H.0 000022H.0 000000H.1 BIT    UNIT     BIT            ?BI?SYS
000022H.1 000022H   000000H.7 ---    ---      **GAP**
000023H   000023H   000001H   BYTE   UNIT     IDATA          ?STACK

* * * * * * * * * * *   C O D E   M E M O R Y   * * * * * * * * * * * * *
000000H   000002H   000003H   ---    OFFS..   CODE           ?CO??C_STARTUP?0
000003H   000022H   000020H   BYTE   UNIT     CODE           ?PR?_SYS_DELAY_ABOUT_MS?SYS
000023H   000025H   000003H   BYTE   OFFS..   CODE           ?UART?00023
000026H   00002AH   000005H   BYTE   UNIT     CODE           ?PR?_MB_PORT_GETCHAR?MB_PORT
00002BH   00002DH   000003H   BYTE   OFFS..   CODE           ?SYS?0002B
00002EH   000052H   000025H   BYTE   UNIT     CODE           ?PR?READ_PIC?MODULE
000053H   000055H   000003H   BYTE   OFFS..   CODE           ?UART?00053
000056H   000059H   000004H   BYTE   UNIT     CODE           ?PR?SDA_IN?I2C
00005AH   00005AH   000001H   BYTE   UNIT     CODE           ?PR?MB_PORT_TIMERENABLE?MB_PORT
00005BH   00005DH   000003H   BYTE   OFFS..   CODE           ?UART?0005B
00005EH   000061H   000004H   BYTE   UNIT     CODE           ?PR?SDA_OUT?I2C
000062H   000062H   000001H   ---    ---      **GAP**
000063H   000065H   000003H   BYTE   OFFS..   CODE           ?UART?00063
LX51 LINKER/LOCATER V4.66.97.0                                                        11/04/2023  11:13:39  PAGE 4


000066H   000068H   000003H   BYTE   UNIT     CODE           ?PR?MB_SET_RECEIVE_STATE?MB_PORT
000069H   00006AH   000002H   ---    ---      **GAP**
00006BH   00006DH   000003H   BYTE   OFFS..   CODE           ?UART?0006B
00006EH   000082H   000015H   BYTE   UNIT     CODE           ?PR?_CLEAR_SINGLE_SCENE?SCENE
000083H   000085H   000003H   BYTE   OFFS..   CODE           ?UART?00083
000086H   0000F5H   000070H   BYTE   UNIT     CODE           ?PR?FACTORY_DATA_RESET?MODULE
0000F6H   0000F7H   000002H   ---    ---      **GAP**
0000F8H   0000FFH   000008H   ---    OFFS..   CODE           ?CO??C_STARTUP?1
000100H   00216CH   00206DH   BYTE   UNIT     CODE           ?C_INITSEG
00216DH   002A39H   0008CDH   BYTE   UNIT     CODE           ?C?LIB_CODE
002A3AH   003160H   000727H   BYTE   UNIT     CODE           ?PR?_DISPLAY_TIMING_SCENE_INFOR?TIME_SCENE
003161H   003749H   0005E9H   BYTE   UNIT     CODE           ?PR?SCENE
00374AH   003D13H   0005CAH   BYTE   UNIT     CODE           ?PR?TIME_SCENE
003D14H   00425DH   00054AH   BYTE   UNIT     CODE           ?PR?MODULE
00425EH   0046FEH   0004A1H   BYTE   UNIT     CODE           ?PR?_MODULE_RELAY_SCENE_SET?SCENE
0046FFH   004B71H   000473H   BYTE   UNIT     CODE           ?PR?_TIMING_MODULE_RELAY_SCENE_SET?TIME_SCENE
004B72H   004EF2H   000381H   BYTE   UNIT     CODE           ?PR?_DISPLAY_SCENE_INFOR?SCENE
004EF3H   005257H   000365H   BYTE   UNIT     CODE           ?PR?PRINTF?PRINTF
005258H   005539H   0002E2H   BYTE   UNIT     CODE           ?PR?_TIMING_MODULE_PARAMETER_TIME_FRAME_CHANNEL_SEND?MODUL
                                                             -E
00553AH   00580BH   0002D2H   BYTE   UNIT     CODE           ?PR?_TIMING_MODULE_PARAMETER_ONGITUDE_LATITUDE_SEND?MODULE
00580CH   005AC3H   0002B8H   BYTE   UNIT     CODE           ?PR?MAIN?MAIN
005AC4H   005D5EH   00029BH   BYTE   UNIT     CODE           ?PR?TIMING_AUTO_DETECT?TIME_SCENE
005D5FH   005FE3H   000285H   BYTE   UNIT     CODE           ?PR?_ADD_MODULE_SCENE_INFOR?SCENE
005FE4H   006242H   00025FH   BYTE   UNIT     CODE           ?PR?_DIM_SINGLE_CTRL?MODULE
006243H   00641FH   0001DDH   BYTE   UNIT     CODE           ?PR?_RELAY_SINGLE_CTRL?MODULE
006420H   0065D6H   0001B7H   BYTE   UNIT     CODE           ?PR?_MODBUS_MASTER_SEND?MB_USER
0065D7H   006789H   0001B3H   BYTE   UNIT     CODE           ?PR?MODULE_ALL_CTRL?MODULE
00678AH   006930H   0001A7H   BYTE   UNIT     CODE           ?PR?_DEAL_83_CMD?UART
006931H   006AD7H   0001A7H   BYTE   UNIT     CODE           ?PR?_DISPLAY_TIMING_MODULE_PARAMETER?MODULE
006AD8H   006C5CH   000185H   BYTE   UNIT     CODE           ?PR?UART
006C5DH   006DDEH   000182H   BYTE   UNIT     CODE           ?PR?_SAVE_MODULE_INFORMATION?MODULE
006DDFH   006F60H   000182H   BYTE   UNIT     CODE           ?PR?_DISPLAY_EDIT_INTERFACE?MODULE
006F61H   0070DDH   00017DH   BYTE   UNIT     CODE           ?PR?_TIMING_SCENE_MODTIFY?TIME_SCENE
0070DEH   00724CH   00016FH   BYTE   UNIT     CODE           ?PR?_DEAL_82_CMD?UART
00724DH   0073AEH   000162H   BYTE   UNIT     CODE           ?PR?_MODULE_DIM_SCENE_SET?SCENE
0073AFH   0074E7H   000139H   BYTE   UNIT     CODE           ?PR?SYS_TIMER2_ISR?SYS
0074E8H   00761EH   000137H   BYTE   UNIT     CODE           ?PR?_SCENE_NAME_MODIFY?SCENE
00761FH   007751H   000133H   BYTE   UNIT     CODE           ?PR?_SCENE_INFOR_DELETE_CTRL?SCENE
007752H   007882H   000131H   BYTE   UNIT     CODE           ?PR?_TIMING_MODULE_DIM_SCENE_SET?TIME_SCENE
007883H   0079B1H   00012FH   BYTE   UNIT     CODE           ?PR?SET_MODULE_TYPE?MODULE
0079B2H   007ADEH   00012DH   BYTE   UNIT     CODE           ?PR?_DIM_ALL_CTRL?MODULE
007ADFH   007C08H   00012AH   BYTE   UNIT     CODE           ?PR?_MODULE_SCENE_INFOR_DIS?SCENE
007C09H   007D31H   000129H   BYTE   UNIT     CODE           ?PR?_TIMING_MODULE_PARAMETER_SOLAR_CHANNEL_SEND?MODULE
007D32H   007E46H   000115H   BYTE   UNIT     CODE           ?PR?ALL_DIM_ON_OFF?MODULE
007E47H   007F51H   00010BH   BYTE   UNIT     CODE           ?PR?_DIS_MODULE_SCENE_INFOR?TIME_SCENE
007F52H   00805BH   00010AH   BYTE   UNIT     CODE           ?PR?_OPERAND_CTRL?TIME_SCENE
00805CH   008164H   000109H   BYTE   UNIT     CODE           ?PR?_MBH_EXEC?MB_HOST
008165H   00826AH   000106H   BYTE   UNIT     CODE           ?PR?_RTC_GET_WEEK?I2C
00826BH   00836BH   000101H   BYTE   UNIT     CODE           ?PR?RTC_SET_TIME?I2C
00836CH   00846CH   000101H   BYTE   UNIT     CODE           ?PR?_MODIFYING_MODULE_INFORMATION?MODULE
00846DH   00856BH   0000FFH   BYTE   UNIT     CODE           ?PR?CLEAR_SELECT_MODULE_INFORMATION?MODULE
00856CH   008665H   0000FAH   BYTE   UNIT     CODE           ?PR?I2C
008666H   008749H   0000E4H   BYTE   UNIT     CODE           ?PR?MBH_POLL?MB_HOST
00874AH   00882AH   0000E1H   BYTE   UNIT     CODE           ?PR?_DEAL_UART_DATA?UART
00882BH   00890BH   0000E1H   BYTE   UNIT     CODE           ?PR?TIMED_AUTO_SEND?TIME_SCENE
00890CH   0089EBH   0000E0H   BYTE   UNIT     CODE           ?PR?_DISPLAY_MODULE_INFORMATION?MODULE
0089ECH   008ABFH   0000D4H   BYTE   UNIT     CODE           ?PR?_TIMING_MODULE_PARAMETER_WEEK_ENABLE_CHANNEL_SEND?MODU
                                                             -LE
008AC0H   008B8EH   0000CFH   BYTE   UNIT     CODE           ?PR?AUTO_ADD_MODULE?MODULE
008B8FH   008C5CH   0000CEH   BYTE   UNIT     CODE           ?PR?_SET_BOX_SELECT?MODULE
008C5DH   008D25H   0000C9H   BYTE   UNIT     CODE           ?PR?_RELAY_ALL_CTRL?MODULE
008D26H   008DECH   0000C7H   BYTE   UNIT     CODE           ?PR?_SCENE_INFOR_KEY_CTRL?SCENE
008DEDH   008EB1H   0000C5H   BYTE   UNIT     CODE           ?PR?_SCENE_INFOR_MODULE_CONFIM_KEY?TIME_SCENE
008EB2H   008F75H   0000C4H   BYTE   UNIT     CODE           ?PR?_SCENE_NAME_KEY_CTRL?SCENE
LX51 LINKER/LOCATER V4.66.97.0                                                        11/04/2023  11:13:39  PAGE 5


008F76H   009036H   0000C1H   BYTE   UNIT     CODE           ?PR?_SCENE_NAME_CTRL_SEND?SCENE
009037H   0090F5H   0000BFH   BYTE   UNIT     CODE           ?PR?_DISPLAY_RELAY_INTERFACE?MODULE
0090F6H   0091B4H   0000BFH   BYTE   UNIT     CODE           ?PR?ALL_MODULE_ON_OFF?MODULE
0091B5H   009273H   0000BFH   BYTE   UNIT     CODE           ?PR?MODULE_MODIFY?MODULE
009274H   009332H   0000BFH   BYTE   UNIT     CODE           ?PR?_STRSTR?STRSTR
009333H   0093EEH   0000BCH   BYTE   UNIT     CODE           ?PR?INIT_BACK_LIGHT_PARAMETERS?MODULE
0093EFH   0094AAH   0000BCH   BYTE   UNIT     CODE           ?PR?_MODULE_DIM_SCENE_SEND?SCENE
0094ABH   009565H   0000BBH   BYTE   UNIT     CODE           ?PR?_TIMING_SCENE_INFOR_CTRL?TIME_SCENE
009566H   00961AH   0000B5H   BYTE   UNIT     CODE           ?PR?_SELECT_EITHER_OR_SINGLE?MODULE
00961BH   0096CDH   0000B3H   BYTE   UNIT     CODE           ?PR?_STRRPL?SYS
0096CEH   009780H   0000B3H   BYTE   UNIT     CODE           ?PR?_TIMING_MODULE_PARAMETER_CTRL?MODULE
009781H   009832H   0000B2H   BYTE   UNIT     CODE           ?PR?CHECK_RTC_SET?I2C
009833H   0098E3H   0000B1H   BYTE   UNIT     CODE           ?PR?_TIMING_SCENE_SELECT_CTRL?TIME_SCENE
0098E4H   009993H   0000B0H   BYTE   UNIT     CODE           ?PR?_TIMING_MODULE_PARAMETER_TIME_SEND?MODULE
009994H   009A43H   0000B0H   BYTE   UNIT     CODE           ?PR?BATCH_SET_TIME_PARAMETERS?MODULE
009A44H   009AF3H   0000B0H   BYTE   UNIT     CODE           ?PR?_SCENE_DELETE_CTRL_SEND?SCENE
009AF4H   009BA1H   0000AEH   BYTE   UNIT     CODE           ?PR?_GET_TIMING_WEEK_ENABLE?TIME_SCENE
009BA2H   009C4DH   0000ACH   BYTE   UNIT     CODE           ?PR?READ_TIME?I2C
009C4EH   009CF6H   0000A9H   BYTE   UNIT     CODE           ?PR?_SET_TIMING_SET_INFOR?TIME_SCENE
009CF7H   009D9BH   0000A5H   BYTE   UNIT     CODE           ?PR?_DISPLAY_RELAY_TIMING_SCENE_INTERFACE?TIME_SCENE
009D9CH   009E3EH   0000A3H   BYTE   UNIT     CODE           ?PR?_MODULE_SCENE_SELECT_CTRL?SCENE
009E3FH   009EE0H   0000A2H   BYTE   UNIT     CODE           ?C_C51STARTUP
009EE1H   009F82H   0000A2H   BYTE   UNIT     CODE           ?PR?_MODULE_RELAY_SCENE_SEND?SCENE
009F83H   00A022H   0000A0H   BYTE   UNIT     CODE           ?PR?_GET_TIMING_SET_INFOR?TIME_SCENE
00A023H   00A0C1H   00009FH   BYTE   UNIT     CODE           ?PR?CLEAR_ALL_MODULE_INFORMATION?MODULE
00A0C2H   00A156H   000095H   BYTE   UNIT     CODE           ?PR?_CHANGE_PWD?MODULE
00A157H   00A1EBH   000095H   BYTE   UNIT     CODE           ?PR?MB_HOST
00A1ECH   00A27FH   000094H   BYTE   UNIT     CODE           ?PR?_RTC_GET_WEEK_1?I2C
00A280H   00A30FH   000090H   BYTE   UNIT     CODE           ?PR?TIMING_MODULE_PARAMETER_BATCH_SEND?MODULE
00A310H   00A39DH   00008EH   BYTE   UNIT     CODE           ?PR?INIT_RTC_1?I2C
00A39EH   00A42AH   00008DH   BYTE   UNIT     CODE           ?PR?UART_FRAME_DEAL?UART
00A42BH   00A4B7H   00008DH   BYTE   UNIT     CODE           ?PR?_MODULE_TIMING_SEND?TIME_SCENE
00A4B8H   00A540H   000089H   BYTE   UNIT     CODE           ?PR?_GET_DAYS_IN_MONTH?SYS
00A541H   00A5C9H   000089H   BYTE   UNIT     CODE           ?PR?RDTIME?I2C
00A5CAH   00A652H   000089H   BYTE   UNIT     CODE           ?PR?_MBH_HOOK_REC03?MB_HOOK
00A653H   00A6DBH   000089H   BYTE   UNIT     CODE           ?PR?_MBH_SEND?MB_HOST
00A6DCH   00A760H   000085H   BYTE   UNIT     CODE           ?PR?_DISPLAY_RELAY_SCENE_INTERFACE?SCENE
00A761H   00A7E4H   000084H   BYTE   UNIT     CODE           ?PR?SELECT_BEEP_ENABLE?MODULE
00A7E5H   00A866H   000082H   BYTE   UNIT     CODE           ?PR?MODULE_SCENE_SEND?SCENE
00A867H   00A8E6H   000080H   BYTE   UNIT     CODE           ?PR?_RTC_CONFIG?I2C
00A8E7H   00A965H   00007FH   BYTE   UNIT     CODE           ?PR?_WRITE_DGUSII_VP?T5LLIB
00A966H   00A9E4H   00007FH   BYTE   UNIT     CODE           ?PR?SCENE_NAME_CLEAR_FLASH?SCENE
00A9E5H   00AA62H   00007EH   BYTE   UNIT     CODE           ?PR?_SET_MODULE_INFORMATION?MODULE
00AA63H   00AADFH   00007DH   BYTE   UNIT     CODE           ?PR?READ_DGUS_TIME?MODULE
00AAE0H   00AB56H   000077H   BYTE   UNIT     CODE           ?PR?INIT_BEEP_ENABLE?MODULE
00AB57H   00ABCDH   000077H   BYTE   UNIT     CODE           ?PR?_SHORT_COPY_XCH?MB_USER
00ABCEH   00AC43H   000076H   BYTE   UNIT     CODE           ?PR?INIT_PWD_F?MODULE
00AC44H   00ACB8H   000075H   BYTE   UNIT     CODE           ?PR?_SET_THE_RIGHT_NUMBER_OF_DAYS?TIME_SCENE
00ACB9H   00AD2BH   000073H   BYTE   UNIT     CODE           ?PR?MBH_UARTTXISR?MB_HOST
00AD2CH   00AD9BH   000070H   BYTE   UNIT     CODE           ?PR?AUTOMATICALLY_RETRIEVE?MODULE
00AD9CH   00AE0BH   000070H   BYTE   UNIT     CODE           ?PR?_ALL_ON_OFF_TIMING_SEND?TIME_SCENE
00AE0CH   00AE7AH   00006FH   BYTE   UNIT     CODE           ?PR?_TIMING_SCENE_DELETE?TIME_SCENE
00AE7BH   00AEE8H   00006EH   BYTE   UNIT     CODE           ?PR?_DISPLAY_DIM_TIMING_SCENE_INTERFACE?TIME_SCENE
00AEE9H   00AF54H   00006CH   BYTE   UNIT     CODE           ?PR?_POP_MENU_KEY_CTRL?SCENE
00AF55H   00AFBFH   00006BH   BYTE   UNIT     CODE           ?PR?_RX8130_WRIT_BYTE?I2C
00AFC0H   00B027H   000068H   BYTE   UNIT     CODE           ?PR?_STRNCPY?STRNCPY
00B028H   00B08EH   000067H   BYTE   UNIT     CODE           ?PR?T5LLIB
00B08FH   00B0F5H   000067H   BYTE   UNIT     CODE           ?PR?_TIMING_MODULE_PARAMETER_KEY_CTRL?MODULE
00B0F6H   00B15CH   000067H   BYTE   UNIT     CODE           ?PR?_SCENE_NAME_WRITE_DGUSII?SCENE
00B15DH   00B1C3H   000067H   BYTE   UNIT     CODE           ?PR?_SCENE_INFOR_CONFIRM_CTRL?SCENE
00B1C4H   00B229H   000066H   BYTE   UNIT     CODE           ?PR?_DISPLAY_WEEK_PARAMETER?MODULE
00B22AH   00B28FH   000066H   BYTE   UNIT     CODE           ?PR?_DISPLAY_SOLAR_PARAMETER?MODULE
00B290H   00B2F5H   000066H   BYTE   UNIT     CODE           ?PR?SIMULATE_TOUCH?MODULE
00B2F6H   00B35AH   000065H   BYTE   UNIT     CODE           ?PR?_MB_PORT_TIMERINIT?MB_PORT
00B35BH   00B3BEH   000064H   BYTE   UNIT     CODE           ?PR?TIMING_SCENE_RUN?TIME_SCENE
LX51 LINKER/LOCATER V4.66.97.0                                                        11/04/2023  11:13:39  PAGE 6


00B3BFH   00B421H   000063H   BYTE   UNIT     CODE           ?PR?BACK_LIGHT_SET?MODULE
00B422H   00B484H   000063H   BYTE   UNIT     CODE           ?PR?NOR_FLASH
00B485H   00B4E7H   000063H   BYTE   UNIT     CODE           ?PR?_ALL_ON_OFF_SCENE_CONFIM_KEY?TIME_SCENE
00B4E8H   00B549H   000062H   BYTE   UNIT     CODE           ?PR?_TIMING_SCENE_INFOR_DELETE?TIME_SCENE
00B54AH   00B5ABH   000062H   BYTE   UNIT     CODE           ?PR?_SPECIFIED_SCENE_CONFIM_KEY?TIME_SCENE
00B5ACH   00B60CH   000061H   BYTE   UNIT     CODE           ?PR?UART3_RISR?UART
00B60DH   00B66DH   000061H   BYTE   UNIT     CODE           ?PR?_STARUP_PAGE_PWD?MODULE
00B66EH   00B6CEH   000061H   BYTE   UNIT     CODE           ?PR?LOCK_SCREEN_ENABLE_CTRL?MODULE
00B6CFH   00B72FH   000061H   BYTE   UNIT     CODE           ?PR?_SCENE_TOUCH_CTRL?SCENE
00B730H   00B790H   000061H   BYTE   UNIT     CODE           ?PR?_BACK_LIGHT_CTRL?SCENE
00B791H   00B7F0H   000060H   BYTE   UNIT     CODE           ?PR?MB_USER
00B7F1H   00B850H   000060H   BYTE   UNIT     CODE           ?PR?_NORFLASH_READ?NOR_FLASH
00B851H   00B8AFH   00005FH   BYTE   UNIT     CODE           ?PR?_T5L_FLASH?T5LLIB
00B8B0H   00B90EH   00005FH   BYTE   UNIT     CODE           ?PR?_DISPLAY_TIME_FRAME_PARAMETER?MODULE
00B90FH   00B96DH   00005FH   BYTE   UNIT     CODE           ?PR?_SYS_LED_CONFIG?SCENE
00B96EH   00B9CCH   00005FH   BYTE   UNIT     CODE           ?PR?_MODULE_TIMING_SCENE_SELECT?TIME_SCENE
00B9CDH   00BA2BH   00005FH   BYTE   UNIT     CODE           ?PR?TIMING_ALL_ON_OFF_CTRL?TIME_SCENE
00BA2CH   00BA89H   00005EH   BYTE   UNIT     CODE           ?PR?_DISPLAY_DIM_SCENE_INTERFACE?SCENE
00BA8AH   00BAE7H   00005EH   BYTE   UNIT     CODE           ?PR?_SCENE_EDIT_STA_CLEAR_INFOR?SCENE
00BAE8H   00BB44H   00005DH   BYTE   UNIT     CODE           ?PR?SAVE_BACK_LIGHT_PARAMETERS?MODULE
00BB45H   00BBA1H   00005DH   BYTE   UNIT     CODE           ?PR?_BEEP_CTRL?SCENE
00BBA2H   00BBFDH   00005CH   BYTE   UNIT     CODE           ?PR?UART4_RISR?UART
00BBFEH   00BC59H   00005CH   BYTE   UNIT     CODE           ?PR?SELECT_PASSWORD_ENABLE?MODULE
00BC5AH   00BCB5H   00005CH   BYTE   UNIT     CODE           ?PR?_SCENE_INFOR_MODIFY_CTRL?SCENE
00BCB6H   00BD10H   00005BH   BYTE   UNIT     CODE           ?PR?RETURN_PAGE?MODULE
00BD11H   00BD6AH   00005AH   BYTE   UNIT     CODE           ?PR?_PRINTF_TAB?SYS
00BD6BH   00BDC4H   00005AH   BYTE   UNIT     CODE           ?PR?INIT_RTC?I2C
00BDC5H   00BE1EH   00005AH   BYTE   UNIT     CODE           ?PR?UART2_RISR?UART
00BE1FH   00BE76H   000058H   BYTE   UNIT     CODE           ?PR?_PIC_SET?MODULE
00BE77H   00BECEH   000058H   BYTE   UNIT     CODE           ?PR?SCENE_TOUCH_RUN?SCENE
00BECFH   00BF25H   000057H   BYTE   UNIT     CODE           ?PR?_UART_SEND_BYTE?UART
00BF26H   00BF7BH   000056H   BYTE   UNIT     CODE           ?PR?_NORFLASH_WRITE?NOR_FLASH
00BF7CH   00BFD1H   000056H   BYTE   UNIT     CODE           ?PR?_TIMING_ALL_ON_OFF_SCENE_SET?TIME_SCENE
00BFD2H   00C026H   000055H   BYTE   UNIT     CODE           ?PR?_GET_CHANNEL_SET?MODULE
00C027H   00C07BH   000055H   BYTE   UNIT     CODE           ?PR?_SCENE_NAME_ADD?SCENE
00C07CH   00C0CFH   000054H   BYTE   UNIT     CODE           ?PR?_DISPLAY_INTERFACE?MODULE
00C0D0H   00C122H   000053H   BYTE   UNIT     CODE           ?PR?_CHECK_WHETHER_DATA_EXISTS?MODULE
00C123H   00C174H   000052H   BYTE   UNIT     CODE           ?PR?_READ_DGUSII_VP?T5LLIB
00C175H   00C1C6H   000052H   BYTE   UNIT     CODE           ?PR?_DISPLAY_DIM_INTERFACE?MODULE
00C1C7H   00C217H   000051H   BYTE   UNIT     CODE           ?PR?_TIMING_SCENE_EDIT?TIME_SCENE
00C218H   00C267H   000050H   BYTE   UNIT     CODE           ?PR?_CRC16TABLE?CRC16
00C268H   00C2B7H   000050H   BYTE   UNIT     CODE           ?PR?_READ_TIMING_MODULE_SET_PARAMETER?MODULE
00C2B8H   00C307H   000050H   BYTE   UNIT     CODE           ?PR?_MB_CRC16?MB_CRC
00C308H   00C356H   00004FH   BYTE   UNIT     CODE           ?PR?UART5_RISR?UART
00C357H   00C3A4H   00004EH   BYTE   UNIT     CODE           ?PR?_SCENE_NAME_DELETE_FLASH?SCENE
00C3A5H   00C3F1H   00004DH   BYTE   UNIT     CODE           ?PR?_MODTIFY_MB_INFOM?MB_USER
00C3F2H   00C43DH   00004CH   BYTE   UNIT     CODE           ?PR?_DISPLAY_ALL_ON_OFF_INTERFACE?TIME_SCENE
00C43EH   00C488H   00004BH   BYTE   UNIT     CODE           ?PR?MBH_UARTRXISR?MB_HOST
00C489H   00C4D3H   00004BH   BYTE   UNIT     CODE           ?PR?CLEAR_TIMING_SCENE_VAR?TIME_SCENE
00C4D4H   00C51EH   00004BH   BYTE   UNIT     CODE           ?PR?_DISPLAY_SCENE_TIME_INTERFACE?TIME_SCENE
00C51FH   00C568H   00004AH   BYTE   UNIT     CODE           ?PR?_FIND_INDEX?MODULE
00C569H   00C5B2H   00004AH   BYTE   UNIT     CODE           ?PR?SET_CHANNEL_NB?MODULE
00C5B3H   00C5FAH   000048H   BYTE   UNIT     CODE           ?PR?SELECT_EITHER_OR_ALL?MODULE
00C5FBH   00C642H   000048H   BYTE   UNIT     CODE           ?PR?_RUN_TIMING_MODULE_PARAMETER_SET?MODULE
00C643H   00C68AH   000048H   BYTE   UNIT     CODE           ?PR?_MODBUS_SEND_DATA?MB_USER
00C68BH   00C6D2H   000048H   BYTE   UNIT     CODE           ?PR?_TIMING_SCENE_INFOR_CLEAR?TIME_SCENE
00C6D3H   00C719H   000047H   BYTE   UNIT     CODE           ?PR?_CLEAR_KEY_VALUE?MODULE
00C71AH   00C75FH   000046H   BYTE   UNIT     CODE           ?PR?_SCENE_INFOR_DELETE_FLASH?SCENE
00C760H   00C7A4H   000045H   BYTE   UNIT     CODE           ?PR?_DISPLAY_SCENE_INTERFACE?SCENE
00C7A5H   00C7E8H   000044H   BYTE   UNIT     CODE           ?PR?_I2CBW?I2C
00C7E9H   00C82BH   000043H   BYTE   UNIT     CODE           ?PR?_DIM_REFESH?MODULE
00C82CH   00C86EH   000043H   BYTE   UNIT     CODE           ?PR?_TIMING_SCENE_CLEAR?TIME_SCENE
00C86FH   00C8B0H   000042H   BYTE   UNIT     CODE           ?PR?BLACK_SCREEN_SWITCHES_TO_HOME_PAGE?MODULE
00C8B1H   00C8F2H   000042H   BYTE   UNIT     CODE           ?PR?_SCENE_NAME_DELETE?SCENE
00C8F3H   00C934H   000042H   BYTE   UNIT     CODE           ?PR?_SCENE_TIMING_SEND?TIME_SCENE
LX51 LINKER/LOCATER V4.66.97.0                                                        11/04/2023  11:13:39  PAGE 7


00C935H   00C973H   00003FH   BYTE   UNIT     CODE           ?PR?_MB_DATA_INIT?MB_USER
00C974H   00C9B1H   00003EH   BYTE   UNIT     CODE           ?PR?_TIMING_SPECIFIED_SCENE_SET?TIME_SCENE
00C9B2H   00C9EDH   00003CH   BYTE   UNIT     CODE           ?PR?SYS_CPU_INIT?SYS
00C9EEH   00CA29H   00003CH   BYTE   UNIT     CODE           ?PR?_READ_DGUS?SYS
00CA2AH   00CA65H   00003CH   BYTE   UNIT     CODE           ?PR?_WRITE_DGUS?SYS
00CA66H   00CAA1H   00003CH   BYTE   UNIT     CODE           ?PR?_RELAY_INTERFACE_TRIGGER?MODULE
00CAA2H   00CADCH   00003BH   BYTE   UNIT     CODE           ?PR?GET_BLANK_TIMING_SCENE_INFOR_INDEX?TIME_SCENE
00CADDH   00CB16H   00003AH   BYTE   UNIT     CODE           ?PR?_GET_BOX_SELECT_NUMBER?MODULE
00CB17H   00CB4FH   000039H   BYTE   UNIT     CODE           ?PR?_ADD_ARR_DATA?SYS
00CB50H   00CB88H   000039H   BYTE   UNIT     CODE           ?PR?GET_BLANK_SCENE_NAME_INDEX?SCENE
00CB89H   00CBC0H   000038H   BYTE   UNIT     CODE           ?PR?_MODULE_TIMING_SCENE_SELECT_CTRL?TIME_SCENE
00CBC1H   00CBF7H   000037H   BYTE   UNIT     CODE           ?PR?_UART2_INIT?UART
00CBF8H   00CC2EH   000037H   BYTE   UNIT     CODE           ?PR?_PACK_DATA_SEND?MB_USER
00CC2FH   00CC65H   000037H   BYTE   UNIT     CODE           ?PR?_TIMING_SCENE_ADD?TIME_SCENE
00CC66H   00CC9BH   000036H   BYTE   UNIT     CODE           ?PR?_CLEAR_ALL_MODULE_VAR_EN?SCENE
00CC9CH   00CCD1H   000036H   BYTE   UNIT     CODE           ?PR?SCENE_MODIFY?SCENE
00CCD2H   00CD06H   000035H   BYTE   UNIT     CODE           ?PR?_SCENE_NAME_CLEAR?SCENE
00CD07H   00CD3BH   000035H   BYTE   UNIT     CODE           ?PR?_TIMING_MODULE_SCENE_SET?TIME_SCENE
00CD3CH   00CD6FH   000034H   BYTE   UNIT     CODE           ?PR?MAIN
00CD70H   00CDA3H   000034H   BYTE   UNIT     CODE           ?PR?_WAIT_OK?T5LLIB
00CDA4H   00CDD6H   000033H   BYTE   UNIT     CODE           ?PR?_RELAY_REFESH?MODULE
00CDD7H   00CE09H   000033H   BYTE   UNIT     CODE           ?PR?MBH_TIMER3T5ISR?MB_HOST
00CE0AH   00CE3BH   000032H   BYTE   UNIT     CODE           ?PR?CLOCK?I2C
00CE3CH   00CE6AH   00002FH   BYTE   UNIT     CODE           ?PR?_CHECK_OR_NOT_FRAME?MODULE
00CE6BH   00CE98H   00002EH   BYTE   UNIT     CODE           ?PR?SYS
00CE99H   00CEC6H   00002EH   BYTE   UNIT     CODE           ?PR?_SCENE_INFOR_CANCEL_CTRL?SCENE
00CEC7H   00CEF3H   00002DH   BYTE   UNIT     CODE           ?PR?RX8130_READ_BYTE?I2C
00CEF4H   00CF1FH   00002CH   BYTE   UNIT     CODE           ?PR?MODULE_TOUCH_CTRL?MODULE
00CF20H   00CF49H   00002AH   BYTE   UNIT     CODE           ?PR?AUTOMATICALLY_RETRIEVE_CMD?MODULE
00CF4AH   00CF73H   00002AH   BYTE   UNIT     CODE           ?PR?_CLEAR_ALL_TIMING_SCENE_CONTENT?TIME_SCENE
00CF74H   00CF9CH   000029H   BYTE   UNIT     CODE           ?PR?_FIND_NUB_INDEX?SYS
00CF9DH   00CFC5H   000029H   BYTE   UNIT     CODE           ?PR?INIT_FLASH_PARAMETERS?MODULE
00CFC6H   00CFEDH   000028H   BYTE   UNIT     CODE           ?PR?_DELAYUS?I2C
00CFEEH   00D014H   000027H   BYTE   UNIT     CODE           ?PR?IF_ALL_SCENE_NAME_BLANK?SCENE
00D015H   00D03BH   000027H   BYTE   UNIT     CODE           ?PR?_MODULE_SCENE_SELECT?SCENE
00D03CH   00D061H   000026H   BYTE   UNIT     CODE           ?PR?I2CBR?I2C
00D062H   00D087H   000026H   BYTE   UNIT     CODE           ?PR?CLEAR_BATCH_SET_VAR?MODULE
00D088H   00D0ABH   000024H   BYTE   UNIT     CODE           ?PR?_CHECK_WHETHER_THE_PASSWORDS_ARE_CONSISTENT?MODULE
00D0ACH   00D0CFH   000024H   BYTE   UNIT     CODE           ?PR?_SCENE_INFOR_SAVE_FLASH?SCENE
00D0D0H   00D0F3H   000024H   BYTE   UNIT     CODE           ?PR?_SCENE_INFOR_CLEAR_CTRL?SCENE
00D0F4H   00D116H   000023H   BYTE   UNIT     CODE           ?PR?RX8130_CACK?I2C
00D117H   00D139H   000023H   BYTE   UNIT     CODE           ?PR?CACK?I2C
00D13AH   00D15CH   000023H   BYTE   UNIT     CODE           ?PR?_PRINTF_TEMP_TIMING_CONTENT?TIME_SCENE
00D15DH   00D17FH   000023H   BYTE   UNIT     CODE           ?PR?SET_TIMING_SCENE_NAME_SELECT_SEQUENCE_NUMBER?TIME_SCEN
                                                             -E
00D180H   00D1A1H   000022H   BYTE   UNIT     CODE           ?PR?_DELAY_US?MODULE
00D1A2H   00D1C2H   000021H   BYTE   UNIT     CODE           ?PR?RX8130_STOP?I2C
00D1C3H   00D1E3H   000021H   BYTE   UNIT     CODE           ?PR?_UART4_INIT?UART
00D1E4H   00D204H   000021H   BYTE   UNIT     CODE           ?PR?_UART5_INIT?UART
00D205H   00D225H   000021H   BYTE   UNIT     CODE           ?PR?UART_INIT?UART
00D226H   00D246H   000021H   BYTE   UNIT     CODE           ?PR?_IF_SCENE_NAME_EXISTS?SCENE
00D247H   00D267H   000021H   BYTE   UNIT     CODE           ?PR?_SCENE_NAME_READ_FLASH?SCENE
00D268H   00D287H   000020H   BYTE   UNIT     CODE           ?PR?I2CSTOP?I2C
00D288H   00D2A7H   000020H   BYTE   UNIT     CODE           ?PR?_MBH_INIT?MB_HOST
00D2A8H   00D2C7H   000020H   BYTE   UNIT     CODE           ?PR?_SET_TIMING_DATA_ENABLE?TIME_SCENE
00D2C8H   00D2E6H   00001FH   BYTE   UNIT     CODE           ?PR?_DIM_READ?MODULE
00D2E7H   00D305H   00001FH   BYTE   UNIT     CODE           ?PR?SET_SCENE_INFOR_PAGE?SCENE
00D306H   00D323H   00001EH   BYTE   UNIT     CODE           ?PR?_CLEAR_ARR_DATA?SYS
00D324H   00D341H   00001EH   BYTE   UNIT     CODE           ?PR?RIGHT_NUMBER_OF_DAYS_CTRL?TIME_SCENE
00D342H   00D35DH   00001CH   BYTE   UNIT     CODE           ?PR?IF_ALL_SCENE_INFOR_BLANK?SCENE
00D35EH   00D379H   00001CH   BYTE   UNIT     CODE           ?PR?SET_SCENE_INFOR_SELECT_SEQUENCE_NUMBER?SCENE
00D37AH   00D395H   00001CH   BYTE   UNIT     CODE           ?PR?SET_SCENE_NAME_SELECT_SEQUENCE_NUMBER?SCENE
00D396H   00D3B0H   00001BH   BYTE   UNIT     CODE           ?PR?_SET_MASTER_SEND_HR?MB_USER
00D3B1H   00D3CAH   00001AH   BYTE   UNIT     CODE           ?PR?I2CSTART?I2C
00D3CBH   00D3E4H   00001AH   BYTE   UNIT     CODE           ?PR?CLOCK_1?I2C
LX51 LINKER/LOCATER V4.66.97.0                                                        11/04/2023  11:13:39  PAGE 8


00D3E5H   00D3FEH   00001AH   BYTE   UNIT     CODE           ?PR?CLEAR_TOUCH_STA?MODULE
00D3FFH   00D418H   00001AH   BYTE   UNIT     CODE           ?PR?CLEAR_ALL_SCENE_INFOR?SCENE
00D419H   00D432H   00001AH   BYTE   UNIT     CODE           ?PR?CLEAR_SCENE_LIST_NAME?SCENE
00D433H   00D44CH   00001AH   BYTE   UNIT     CODE           ?PR?_TIMING_SCENE_INFOR_SAVE_FLASH?TIME_SCENE
00D44DH   00D465H   000019H   BYTE   UNIT     CODE           ?PR?_MODULE_TOUCH?MODULE
00D466H   00D47DH   000018H   BYTE   UNIT     CODE           ?PR?_RELAY_CTRL?MODULE
00D47EH   00D495H   000018H   BYTE   UNIT     CODE           ?PR?_DIM_CTRL?MODULE
00D496H   00D4ADH   000018H   BYTE   UNIT     CODE           ?PR?_SCENE_NAME_SAVE_FLASH?SCENE
00D4AEH   00D4C5H   000018H   BYTE   UNIT     CODE           ?PR?_SCENE_NAME_SAVE?SCENE
00D4C6H   00D4DCH   000017H   BYTE   UNIT     CODE           ?PR?_DELETE_ARR_DATA?SYS
00D4DDH   00D4F3H   000017H   BYTE   UNIT     CODE           ?PR?DELAYUS?I2C
00D4F4H   00D50AH   000017H   BYTE   UNIT     CODE           ?PR?MBH_RESEND_TIME_RUN?MB_HOOK
00D50BH   00D51FH   000015H   BYTE   UNIT     CODE           ?PR?_DELETE_SCENE_LIST_NAME?SCENE
00D520H   00D534H   000015H   BYTE   UNIT     CODE           ?PR?_STRLEN?STRLEN
00D535H   00D548H   000014H   BYTE   UNIT     CODE           ?PR?RX8130_START?I2C
00D549H   00D55CH   000014H   BYTE   UNIT     CODE           ?PR?_MBH_HOOK_TIMESERR?MB_HOOK
00D55DH   00D570H   000014H   BYTE   UNIT     CODE           ?PR?GET_BLANK_SCENE_INFOR_INDEX?SCENE
00D571H   00D583H   000013H   BYTE   UNIT     CODE           ?PR?_CHECK_CONSTANT?SYS
00D584H   00D595H   000012H   BYTE   UNIT     CODE           ?PR?_RELAY_READ?MODULE
00D596H   00D5A7H   000012H   BYTE   UNIT     CODE           ?PR?_READ_DEVICE_INFORMATION?MODULE
00D5A8H   00D5B6H   00000FH   BYTE   UNIT     CODE           ?PR?MACK?I2C
00D5B7H   00D5C5H   00000FH   BYTE   UNIT     CODE           ?PR?SET_DEFAULT_SCENE_NAME?SCENE
00D5C6H   00D5D4H   00000FH   BYTE   UNIT     CODE           ?PR?CLEAR_TEMP_SCENC_INFOR?SCENE
00D5D5H   00D5E2H   00000EH   BYTE   UNIT     CODE           ?PR?_SET_TIMING_WEEK_ENABLE?TIME_SCENE
00D5E3H   00D5EFH   00000DH   BYTE   UNIT     CODE           ?PR?RX8130_MACK?I2C
00D5F0H   00D5FCH   00000DH   BYTE   UNIT     CODE           ?PR?MNAK?I2C
00D5FDH   00D609H   00000DH   BYTE   UNIT     CODE           ?PR?_READ_SYS_TIME?MODULE
00D60AH   00D616H   00000DH   BYTE   UNIT     CODE           ?PR?_COPY_TO_TEMP_TIMING_CONTENT?TIME_SCENE
00D617H   00D623H   00000DH   BYTE   UNIT     CODE           ?PR?SCENE_INFOR_CANCLE_KEY?TIME_SCENE
00D624H   00D62FH   00000CH   BYTE   UNIT     CODE           ?PR?_PUTCHAR?UART
00D630H   00D63BH   00000CH   BYTE   UNIT     CODE           ?PR?MB_PORT
00D63CH   00D646H   00000BH   BYTE   UNIT     CODE           ?PR?RX8130_MNAK?I2C
00D647H   00D651H   00000BH   BYTE   UNIT     CODE           ?PR?_MB_PORT_PUTCHAR?MB_PORT
00D652H   00D65CH   00000BH   BYTE   UNIT     CODE           ?PR?_PRINTF_TEMP_SCENC_INFOR?SCENE
00D65DH   00D666H   00000AH   BYTE   UNIT     CODE           ?PR?RETURN_TO_PREVIOUS_PAGE?MODULE
00D667H   00D66FH   000009H   BYTE   UNIT     CODE           ?PR?_BCD?I2C
00D670H   00D678H   000009H   BYTE   UNIT     CODE           ?PR?_MBH_HOOK_REC01?MB_HOOK
00D679H   00D681H   000009H   BYTE   UNIT     CODE           ?PR?_MBH_HOOK_REC02?MB_HOOK
00D682H   00D68AH   000009H   BYTE   UNIT     CODE           ?PR?_MBH_HOOK_REC04?MB_HOOK
00D68BH   00D693H   000009H   BYTE   UNIT     CODE           ?PR?_MBH_HOOK_REC05?MB_HOOK
00D694H   00D69CH   000009H   BYTE   UNIT     CODE           ?PR?_MBH_HOOK_REC06?MB_HOOK
00D69DH   00D6A5H   000009H   BYTE   UNIT     CODE           ?PR?_MBH_HOOK_REC15?MB_HOOK
00D6A6H   00D6AEH   000009H   BYTE   UNIT     CODE           ?PR?_MBH_HOOK_REC16?MB_HOOK
00D6AFH   00D6B7H   000009H   BYTE   UNIT     CODE           ?PR?_MB_PORT_UARTENABLE?MB_PORT
00D6B8H   00D6C0H   000009H   BYTE   UNIT     CODE           ?PR?GET_SCENE_INFOR_SELECT_SEQUENCE_NUMBER?SCENE
00D6C1H   00D6C9H   000009H   BYTE   UNIT     CODE           ?PR?GET_SCENE_NAME_SELECT_SEQUENCE_NUMBER?SCENE
00D6CAH   00D6D2H   000009H   BYTE   UNIT     CODE           ?PR?_CLEAR_SINGLE_TIMING_SCENE_CONTENT?TIME_SCENE
00D6D3H   00D6DBH   000009H   BYTE   UNIT     CODE           ?PR?GET_TIMING_SCENE_NAME_SELECT_SEQUENCE_NUMBER?TIME_SCEN
                                                             -E
00D6DCH   00D6E3H   000008H   BYTE   UNIT     CODE           ?PR?_GET_KEY_VALUE?MODULE
00D6E4H   00D6EAH   000007H   BYTE   UNIT     CODE           ?PR?_CLEAR_PWD?MODULE
00D6EBH   00D6F1H   000007H   BYTE   UNIT     CODE           ?PR?GET_TIMING_DATA_ENABLE?TIME_SCENE
00D6F2H   00D6F7H   000006H   BYTE   UNIT     CODE           ?PR?UART4_TISR?UART
00D6F8H   00D6FDH   000006H   BYTE   UNIT     CODE           ?PR?UART5_TISR?UART
00D6FEH   00D703H   000006H   BYTE   UNIT     CODE           ?PR?MBH_GETSTATE?MB_HOST
00D704H   00D709H   000006H   BYTE   UNIT     CODE           ?PR?MBH_GETRECHOOKSTATE?MB_HOST
00D70AH   00D70FH   000006H   BYTE   UNIT     CODE           ?PR?MBH_CLEARRECHOOKSTATE?MB_HOST
00D710H   00D715H   000006H   BYTE   UNIT     CODE           ?PR?_MB_PORT_UARTINIT?MB_PORT
00D716H   00D71BH   000006H   BYTE   UNIT     CODE           ?PR?GET_MODULE_SCENE_EDIT_STA?SCENE
00D71CH   00D721H   000006H   BYTE   UNIT     CODE           ?PR?_CLEAR_SINGLE_MODULE_VAR_EN?SCENE
00D722H   00D724H   000003H   BYTE   UNIT     CODE           ?PR?MB_SET_SEND_STATE?MB_PORT
00D725H   00E1E6H   000AC2H   BYTE   UNIT     CONST          ?CO?TIME_SCENE
00E1E7H   00E83BH   000655H   BYTE   UNIT     CONST          ?CO?SCENE
00E83CH   00ED9AH   00055FH   BYTE   UNIT     CONST          ?CO?MODULE
00ED9BH   00EF6BH   0001D1H   BYTE   UNIT     CONST          ?CO?MAIN
LX51 LINKER/LOCATER V4.66.97.0                                                        11/04/2023  11:13:39  PAGE 9


00EF6CH   00F131H   0001C6H   BYTE   UNIT     CONST          ?CO?UART
00F132H   00F199H   000068H   BYTE   UNIT     CONST          ?CO?MB_HOST
00F19AH   00F1C6H   00002DH   BYTE   UNIT     CONST          ?CO?SYS
00F1C7H   00F1F2H   00002CH   BYTE   UNIT     CONST          ?CO?MB_USER
00F1F3H   00F201H   00000FH   BYTE   UNIT     CONST          ?CO?I2C

* * * * * * * * * * *  X D A T A   M E M O R Y  * * * * * * * * * * * * *
008000H   00940FH   001410H   BYTE   UNIT     XDATA          ?XD?UART
009410H   00A758H   001349H   BYTE   UNIT     XDATA          ?XD?TIME_SCENE
00A759H   00AFB1H   000859H   BYTE   UNIT     XDATA          ?XD?MODULE
00AFB2H   00B7CDH   00081CH   BYTE   UNIT     XDATA          ?XD?MB_USER
00B7CEH   00BFDFH   000812H   BYTE   UNIT     XDATA          ?XD?MB_HOST
00BFE0H   00C6D7H   0006F8H   BYTE   UNIT     XDATA          ?XD?SCENE
00C6D8H   00CB93H   0004BCH   BYTE   UNIT     XDATA          _XDATA_GROUP_
00CB94H   00CD93H   000200H   BYTE   UNIT     XDATA          ?XD?CRC16
00CD94H   00CF93H   000200H   BYTE   UNIT     XDATA          ?XD?MB_CRC
00CF94H   00CFA4H   000011H   BYTE   UNIT     XDATA          ?XD?SYS
00CFA5H   00CFACH   000008H   BYTE   UNIT     XDATA          ?XD?NOR_FLASH
00CFADH   00CFAFH   000003H   BYTE   UNIT     XDATA          ?XD?MAIN
00CFB0H   00CFB0H   000001H   BYTE   UNIT     XDATA          ?XD?I2C

* * * * * * * * *   R E M O V E D     S E G M E N T S   * * * * * * * *
   *DEL*:           000037H   BYTE   UNIT     CODE           ?PR?_NUM_STRCHR?UART
   *DEL*:           000006H   BYTE   UNIT     XDATA          ?XD?_NUM_STRCHR?UART
   *DEL*:           000123H   BYTE   UNIT     CODE           ?PR?_BASE64_DECODE?UART
   *DEL*:           000012H   BYTE   UNIT     XDATA          ?XD?_BASE64_DECODE?UART
   *DEL*:           00012EH   BYTE   UNIT     CODE           ?PR?_UART_DATA_SEND?UART
   *DEL*:           000009H   BYTE   UNIT     XDATA          ?XD?_UART_DATA_SEND?UART
   *DEL*:           000000H.2 BIT    UNIT     BIT            ?BI?_UART_DATA_SEND?UART
   *DEL*:           000109H   BYTE   UNIT     CODE           ?PR?SW_DATA_SEND?UART
   *DEL*:           00006BH   BYTE   UNIT     XDATA          ?XD?SW_DATA_SEND?UART
   *DEL*:           000007H   BYTE   UNIT     CODE           ?PR?_USER_UART_SEND?UART
   *DEL*:           000025H   BYTE   UNIT     CODE           ?PR?_UART5_SENDSTRING?UART
   *DEL*:           000003H   BYTE   UNIT     XDATA          ?XD?_UART5_SENDSTRING?UART
   *DEL*:           0000DBH   BYTE   UNIT     CODE           ?PR?_SET_SELECTED_SEQUENCE_NUMBER?MODULE
   *DEL*:           000008H   BYTE   UNIT     XDATA          ?XD?_SET_SELECTED_SEQUENCE_NUMBER?MODULE
   *DEL*:           00003EH   BYTE   UNIT     CODE           ?PR?_GET_SELECTED_SEQUENCE_NUMBER?MODULE
   *DEL*:           000004H   BYTE   UNIT     XDATA          ?XD?_GET_SELECTED_SEQUENCE_NUMBER?MODULE
   *DEL*:           000017H   BYTE   UNIT     CODE           ?PR?_READ_TIMING_MODULE_PARAMETER?MODULE
   *DEL*:           000003H   BYTE   UNIT     XDATA          ?XD?_READ_TIMING_MODULE_PARAMETER?MODULE
   *DEL*:           000028H   BYTE   UNIT     CODE           ?PR?_CLEAR_LED_STA?MODULE
   *DEL*:           000003H   BYTE   UNIT     XDATA          ?XD?_CLEAR_LED_STA?MODULE
   *DEL*:           000006H   BYTE   UNIT     CODE           ?PR?CLEAR_MBH_REC_ONE_FRAME_STA?MB_HOST
   *DEL*:           000021H   BYTE   UNIT     CODE           ?PR?GET_MBH_REC_ONE_FRAME_STA?MB_HOST
   *DEL*:           000001H   BYTE   UNIT     CODE           ?PR?MB_PORT_TIMERDISABLE?MB_PORT
   *DEL*:           000014H   BYTE   UNIT     CODE           ?PR?GET_MODULE_SCENE_MODULE_SELECT?SCENE
   *DEL*:           00002EH   BYTE   UNIT     CODE           ?PR?_SCENE_INIT?SCENE
   *DEL*:           000006H   BYTE   UNIT     XDATA          ?XD?_SCENE_INIT?SCENE
   *DEL*:           00003AH   BYTE   UNIT     CODE           ?PR?_SCENE_EDIT_CLEAR_INFOR?SCENE
   *DEL*:           000003H   BYTE   UNIT     XDATA          ?XD?_SCENE_EDIT_CLEAR_INFOR?SCENE
   *DEL*:           000022H   BYTE   UNIT     CODE           ?PR?_SCENE_INFOR_CLEAR_FLASH?SCENE
   *DEL*:           000003H   BYTE   UNIT     XDATA          ?XD?_SCENE_INFOR_CLEAR_FLASH?SCENE
   *DEL*:           000001H   BYTE   UNIT     CODE           ?PR?TIME_SCENE_INIT?TIME_SCENE
   *DEL*:           00006DH   BYTE   UNIT     CODE           ?PR?_PRINTF_TIMING_CONTENT?TIME_SCENE
   *DEL*:           000002H   BYTE   UNIT     XDATA          ?XD?_PRINTF_TIMING_CONTENT?TIME_SCENE
   *DEL*:           000050H   BYTE   UNIT     CODE           ?PR?_TIMING_MODULE_RELAY_SCENE_SEND?TIME_SCENE
   *DEL*:           000003H   BYTE   UNIT     XDATA          ?XD?_TIMING_MODULE_RELAY_SCENE_SEND?TIME_SCENE
   *DEL*:           000084H   BYTE   UNIT     CODE           ?PR?_TIMING_MODULE_DIM_SCENE_SEND?TIME_SCENE
   *DEL*:           000003H   BYTE   UNIT     XDATA          ?XD?_TIMING_MODULE_DIM_SCENE_SEND?TIME_SCENE
   *DEL*:           00001CH   BYTE   UNIT     CODE           ?PR?_STRCHR?STRCHR



OVERLAY MAP OF MODULE:   .\OBJ\T5L51 (?C_STARTUP)

LX51 LINKER/LOCATER V4.66.97.0                                                        11/04/2023  11:13:39  PAGE 10



FUNCTION/MODULE                                BIT_GROUP   DATA_GROUP   XDATA_GROUP
--> CALLED FUNCTION/MODULE                    START  STOP  START  STOP  START  STOP
===================================================================================
?C_C51STARTUP                                 ----- -----  ----- -----  ----- -----
  +--> MAIN/MAIN
  +--> ?C_INITSEG

MAIN/MAIN                                     ----- -----  ----- -----  C6D8H C839H
  +--> MAIN
  +--> SYS_CPU_INIT/SYS
  +--> UART_INIT/UART
  +--> _MBH_INIT/MB_HOST
  +--> _MB_DATA_INIT/MB_USER
  +--> RDTIME/I2C
  +--> INIT_FLASH_PARAMETERS/MODULE
  +--> _NORFLASH_READ/NOR_FLASH
  +--> _WRITE_DGUSII_VP/T5LLIB
  +--> _DISPLAY_MODULE_INFORMATION/MODULE
  +--> _ADD_ARR_DATA/SYS
  +--> _PRINTF_TAB/SYS
  +--> _DISPLAY_TIMING_SCENE_INFOR/TIME_SCENE
  +--> PRINTF/PRINTF
  +--> _WRITE_DGUS/SYS
  +--> SIMULATE_TOUCH/MODULE
  +--> CLOCK/I2C
  +--> UART_FRAME_DEAL/UART
  +--> READ_DGUS_TIME/MODULE
  +--> TIMING_AUTO_DETECT/TIME_SCENE
  +--> MODULE_MODIFY/MODULE
  +--> SET_SCENE_INFOR_SELECT_SEQUENCE_NUMBER/SCENE
  +--> SET_SCENE_NAME_SELECT_SEQUENCE_NUMBER/SCENE
  +--> SET_TIMING_SCENE_NAME_SELECT_SEQUENCE_NUMBER/TIME_SCENE
  +--> _RELAY_CTRL/MODULE
  +--> _READ_TIMING_MODULE_SET_PARAMETER/MODULE
  +--> ALL_MODULE_ON_OFF/MODULE
  +--> ALL_DIM_ON_OFF/MODULE
  +--> SCENE_MODIFY/SCENE
  +--> SCENE_TOUCH_RUN/SCENE
  +--> SELECT_PASSWORD_ENABLE/MODULE
  +--> LOCK_SCREEN_ENABLE_CTRL/MODULE
  +--> RIGHT_NUMBER_OF_DAYS_CTRL/TIME_SCENE
  +--> _DIM_CTRL/MODULE
  +--> MODULE_SCENE_SEND/SCENE
  +--> _SCENE_DELETE_CTRL_SEND/SCENE
  +--> _SCENE_NAME_CTRL_SEND/SCENE
  +--> MODULE_TOUCH_CTRL/MODULE
  +--> MBH_UARTTXISR/MB_HOST
  +--> MBH_POLL/MB_HOST
  +--> FACTORY_DATA_RESET/MODULE
  +--> TIMING_SCENE_RUN/TIME_SCENE
  +--> TIMED_AUTO_SEND/TIME_SCENE
  +--> TIMING_MODULE_PARAMETER_BATCH_SEND/MODULE
  +--> AUTOMATICALLY_RETRIEVE/MODULE
  +--> AUTO_ADD_MODULE/MODULE

MAIN                                          ----- -----  ----- -----  ----- -----

SYS_CPU_INIT/SYS                              ----- -----  ----- -----  ----- -----

UART_INIT/UART                                ----- -----  ----- -----  ----- -----
  +--> _UART2_INIT/UART
  +--> _UART4_INIT/UART
  +--> _UART5_INIT/UART

LX51 LINKER/LOCATER V4.66.97.0                                                        11/04/2023  11:13:39  PAGE 11


_UART2_INIT/UART                              ----- -----  ----- -----  C83AH C83DH

_UART4_INIT/UART                              ----- -----  ----- -----  C83AH C83DH
  +--> UART

UART                                          ----- -----  ----- -----  ----- -----
  +--> _UART_SEND_BYTE/UART

_UART_SEND_BYTE/UART                          ----- -----  ----- -----  ----- -----

_UART5_INIT/UART                              ----- -----  ----- -----  C83AH C83DH
  +--> UART

_MBH_INIT/MB_HOST                             ----- -----  ----- -----  C83AH C83EH
  +--> _MB_PORT_UARTINIT/MB_PORT
  +--> _MB_PORT_TIMERINIT/MB_PORT

_MB_PORT_UARTINIT/MB_PORT                     ----- -----  ----- -----  C83FH C843H

_MB_PORT_TIMERINIT/MB_PORT                    ----- -----  ----- -----  C83FH C84AH
  +--> MB_PORT

MB_PORT                                       ----- -----  ----- -----  ----- -----

_MB_DATA_INIT/MB_USER                         ----- -----  ----- -----  C83AH C83CH
  +--> MB_USER

MB_USER                                       ----- -----  ----- -----  ----- -----

RDTIME/I2C                                    ----- -----  ----- -----  C83AH C843H
  +--> _I2CBW/I2C
  +--> I2C
  +--> I2CBR/I2C
  +--> MACK/I2C
  +--> _WRITE_DGUSII_VP/T5LLIB

_I2CBW/I2C                                    ----- -----  ----- -----  ----- -----
  +--> I2CSTART/I2C
  +--> I2CSTOP/I2C
  +--> SDA_OUT/I2C
  +--> I2C
  +--> _DELAYUS/I2C
  +--> CACK/I2C

I2CSTART/I2C                                  ----- -----  ----- -----  ----- -----
  +--> SDA_OUT/I2C
  +--> _DELAYUS/I2C

SDA_OUT/I2C                                   ----- -----  ----- -----  ----- -----

_DELAYUS/I2C                                  ----- -----  ----- -----  ----- -----

I2CSTOP/I2C                                   ----- -----  ----- -----  ----- -----
  +--> _I2CBW/I2C
  +--> SDA_OUT/I2C
  +--> _DELAYUS/I2C
  +--> SDA_IN/I2C

SDA_IN/I2C                                    ----- -----  ----- -----  ----- -----

I2C                                           ----- -----  ----- -----  ----- -----
  +--> _I2CBW/I2C
  +--> I2CSTART/I2C
  +--> I2CSTOP/I2C
  +--> MNAK/I2C
LX51 LINKER/LOCATER V4.66.97.0                                                        11/04/2023  11:13:39  PAGE 12


  +--> _DELAYUS/I2C

MNAK/I2C                                      ----- -----  ----- -----  ----- -----
  +--> SDA_OUT/I2C
  +--> _DELAYUS/I2C

CACK/I2C                                      ----- -----  ----- -----  ----- -----
  +--> SDA_IN/I2C
  +--> _DELAYUS/I2C
  +--> I2C
  +--> SDA_OUT/I2C

I2CBR/I2C                                     ----- -----  ----- -----  ----- -----
  +--> SDA_IN/I2C
  +--> I2C
  +--> _DELAYUS/I2C

MACK/I2C                                      ----- -----  ----- -----  ----- -----
  +--> SDA_OUT/I2C
  +--> _DELAYUS/I2C

_WRITE_DGUSII_VP/T5LLIB                       ----- -----  ----- -----  CB74H CB7AH
  +--> T5LLIB

T5LLIB                                        ----- -----  ----- -----  ----- -----

INIT_FLASH_PARAMETERS/MODULE                  ----- -----  ----- -----  ----- -----
  +--> INIT_PWD_F/MODULE
  +--> INIT_BEEP_ENABLE/MODULE
  +--> INIT_BACK_LIGHT_PARAMETERS/MODULE
  +--> PRINTF/PRINTF

INIT_PWD_F/MODULE                             ----- -----  ----- -----  C83AH C83EH
  +--> MODULE
  +--> _NORFLASH_READ/NOR_FLASH
  +--> _READ_DGUS/SYS
  +--> _T5L_FLASH/T5LLIB

MODULE                                        ----- -----  ----- -----  ----- -----

_NORFLASH_READ/NOR_FLASH                      ----- -----  ----- -----  CB6BH CB73H
  +--> NOR_FLASH
  +--> _WRITE_DGUSII_VP/T5LLIB
  +--> _READ_DGUSII_VP/T5LLIB
  +--> _SYS_DELAY_ABOUT_MS/SYS

NOR_FLASH                                     ----- -----  ----- -----  ----- -----

_READ_DGUSII_VP/T5LLIB                        ----- -----  ----- -----  CB74H CB7AH
  +--> T5LLIB

_SYS_DELAY_ABOUT_MS/SYS                       ----- -----  ----- -----  ----- -----

_READ_DGUS/SYS                                ----- -----  ----- -----  ----- -----

_T5L_FLASH/T5LLIB                             ----- -----  ----- -----  C850H C858H
  +--> T5LLIB
  +--> _WAIT_OK/T5LLIB

_WAIT_OK/T5LLIB                               ----- -----  ----- -----  ----- -----

INIT_BEEP_ENABLE/MODULE                       ----- -----  ----- -----  C83AH C83EH
  +--> MODULE
  +--> _NORFLASH_READ/NOR_FLASH
  +--> PRINTF/PRINTF
LX51 LINKER/LOCATER V4.66.97.0                                                        11/04/2023  11:13:39  PAGE 13


  +--> _T5L_FLASH/T5LLIB
  +--> _READ_DGUS/SYS
  +--> _SYS_DELAY_ABOUT_MS/SYS
  +--> _BEEP_CTRL/SCENE

PRINTF/PRINTF                                 20H.0 21H.0  0008H 000CH  CB6BH CB92H
  +--> _PUTCHAR/UART

_PUTCHAR/UART                                 ----- -----  ----- -----  ----- -----
  +--> _UART_SEND_BYTE/UART

_BEEP_CTRL/SCENE                              ----- -----  ----- -----  C8A8H C8ACH
  +--> SCENE
  +--> _READ_DGUSII_VP/T5LLIB
  +--> _SYS_DELAY_ABOUT_MS/SYS
  +--> _WRITE_DGUSII_VP/T5LLIB

SCENE                                         ----- -----  ----- -----  ----- -----

INIT_BACK_LIGHT_PARAMETERS/MODULE             ----- -----  ----- -----  C83AH C841H
  +--> MODULE
  +--> _NORFLASH_READ/NOR_FLASH
  +--> PRINTF/PRINTF
  +--> _T5L_FLASH/T5LLIB
  +--> _READ_DGUS/SYS
  +--> _SYS_DELAY_ABOUT_MS/SYS
  +--> _BACK_LIGHT_CTRL/SCENE
  +--> _SYS_LED_CONFIG/SCENE

_BACK_LIGHT_CTRL/SCENE                        ----- -----  ----- -----  C842H C846H
  +--> SCENE
  +--> _READ_DGUSII_VP/T5LLIB
  +--> _SYS_DELAY_ABOUT_MS/SYS
  +--> _WRITE_DGUSII_VP/T5LLIB

_SYS_LED_CONFIG/SCENE                         ----- -----  ----- -----  C842H C849H
  +--> SCENE
  +--> _WRITE_DGUSII_VP/T5LLIB

_DISPLAY_MODULE_INFORMATION/MODULE            ----- -----  ----- -----  C841H C891H
  +--> MODULE
  +--> _STRNCPY/STRNCPY
  +--> _STRRPL/SYS
  +--> PRINTF/PRINTF
  +--> _WRITE_DGUSII_VP/T5LLIB

_STRNCPY/STRNCPY                              ----- -----  ----- -----  CB6BH CB74H

_STRRPL/SYS                                   ----- -----  ----- -----  CB6BH CB76H
  +--> _STRSTR/STRSTR
  +--> _STRLEN/STRLEN

_STRSTR/STRSTR                                ----- -----  ----- -----  CB77H CB82H

_STRLEN/STRLEN                                ----- -----  ----- -----  ----- -----

_ADD_ARR_DATA/SYS                             ----- -----  ----- -----  C841H C845H
  +--> SYS
  +--> PRINTF/PRINTF

SYS                                           ----- -----  ----- -----  ----- -----

_PRINTF_TAB/SYS                               ----- -----  ----- -----  C88FH C895H
  +--> PRINTF/PRINTF
  +--> SYS
LX51 LINKER/LOCATER V4.66.97.0                                                        11/04/2023  11:13:39  PAGE 14



_DISPLAY_TIMING_SCENE_INFOR/TIME_SCENE        ----- -----  ----- -----  C84EH CB6AH
  +--> TIME_SCENE
  +--> _STRNCPY/STRNCPY
  +--> PRINTF/PRINTF
  +--> _STRLEN/STRLEN
  +--> _NORFLASH_READ/NOR_FLASH
  +--> _STRRPL/SYS
  +--> _READ_DGUSII_VP/T5LLIB
  +--> _WRITE_DGUSII_VP/T5LLIB

TIME_SCENE                                    ----- -----  ----- -----  ----- -----

_WRITE_DGUS/SYS                               ----- -----  ----- -----  ----- -----
  +--> SYS

SIMULATE_TOUCH/MODULE                         ----- -----  ----- -----  C83AH C83BH
  +--> _WRITE_DGUS/SYS
  +--> _READ_DGUS/SYS

CLOCK/I2C                                     20H.0 20H.0  ----- -----  ----- -----
  +--> INIT_RTC/I2C
  +--> I2C
  +--> READ_TIME/I2C
  +--> RTC_SET_TIME/I2C
  +--> CLOCK_1/I2C

INIT_RTC/I2C                                  ----- -----  ----- -----  ----- -----
  +--> _RX8130_WRIT_BYTE/I2C
  +--> RX8130_STOP/I2C
  +--> RX8130_START/I2C
  +--> RX8130_READ_BYTE/I2C
  +--> RX8130_MACK/I2C
  +--> RX8130_MNAK/I2C

_RX8130_WRIT_BYTE/I2C                         ----- -----  ----- -----  ----- -----
  +--> RX8130_START/I2C
  +--> RX8130_STOP/I2C
  +--> SDA_OUT/I2C
  +--> DELAYUS/I2C
  +--> RX8130_CACK/I2C

RX8130_START/I2C                              ----- -----  ----- -----  ----- -----
  +--> SDA_OUT/I2C
  +--> DELAYUS/I2C

DELAYUS/I2C                                   ----- -----  ----- -----  ----- -----

RX8130_STOP/I2C                               ----- -----  ----- -----  ----- -----
  +--> _RX8130_WRIT_BYTE/I2C
  +--> SDA_OUT/I2C
  +--> DELAYUS/I2C
  +--> SDA_IN/I2C

RX8130_CACK/I2C                               ----- -----  ----- -----  ----- -----
  +--> SDA_IN/I2C
  +--> DELAYUS/I2C
  +--> SDA_OUT/I2C

RX8130_READ_BYTE/I2C                          ----- -----  ----- -----  ----- -----
  +--> SDA_IN/I2C
  +--> DELAYUS/I2C

RX8130_MACK/I2C                               ----- -----  ----- -----  ----- -----
  +--> SDA_OUT/I2C
LX51 LINKER/LOCATER V4.66.97.0                                                        11/04/2023  11:13:39  PAGE 15


  +--> DELAYUS/I2C

RX8130_MNAK/I2C                               ----- -----  ----- -----  ----- -----
  +--> SDA_OUT/I2C
  +--> DELAYUS/I2C

READ_TIME/I2C                                 ----- -----  ----- -----  C83AH C843H
  +--> _RX8130_WRIT_BYTE/I2C
  +--> RX8130_STOP/I2C
  +--> RX8130_START/I2C
  +--> RX8130_READ_BYTE/I2C
  +--> I2C
  +--> RX8130_MACK/I2C
  +--> RX8130_MNAK/I2C
  +--> _RTC_GET_WEEK/I2C
  +--> _WRITE_DGUS/SYS

_RTC_GET_WEEK/I2C                             ----- -----  ----- -----  C844H C848H
  +--> I2C

RTC_SET_TIME/I2C                              20H.1 20H.1  ----- -----  C83AH C844H
  +--> _READ_DGUS/SYS
  +--> I2C
  +--> _WRITE_DGUS/SYS
  +--> _RX8130_WRIT_BYTE/I2C
  +--> RX8130_STOP/I2C

CLOCK_1/I2C                                   ----- -----  ----- -----  ----- -----
  +--> INIT_RTC_1/I2C
  +--> I2C
  +--> RDTIME/I2C
  +--> CHECK_RTC_SET/I2C

INIT_RTC_1/I2C                                ----- -----  ----- -----  C83AH C83AH
  +--> _I2CBW/I2C
  +--> I2C
  +--> I2CBR/I2C
  +--> MACK/I2C
  +--> I2CSTOP/I2C

CHECK_RTC_SET/I2C                             ----- -----  ----- -----  C83AH C849H
  +--> _READ_DGUSII_VP/T5LLIB
  +--> _BCD/I2C
  +--> _RTC_GET_WEEK_1/I2C
  +--> _RTC_CONFIG/I2C
  +--> _WRITE_DGUSII_VP/T5LLIB

_BCD/I2C                                      ----- -----  ----- -----  ----- -----
  +--> I2C

_RTC_GET_WEEK_1/I2C                           ----- -----  ----- -----  C84AH C84EH

_RTC_CONFIG/I2C                               ----- -----  ----- -----  C84AH C84EH
  +--> _I2CBW/I2C
  +--> I2C
  +--> I2CBR/I2C
  +--> MACK/I2C
  +--> I2CSTOP/I2C

UART_FRAME_DEAL/UART                          ----- -----  ----- -----  ----- -----
  +--> UART
  +--> _DEAL_UART_DATA/UART

_DEAL_UART_DATA/UART                          20H.0 20H.2  ----- -----  C83AH C941H
  +--> UART
LX51 LINKER/LOCATER V4.66.97.0                                                        11/04/2023  11:13:39  PAGE 16


  +--> _DEAL_82_CMD/UART
  +--> _DEAL_83_CMD/UART

_DEAL_82_CMD/UART                             ----- -----  ----- -----  C942H C952H
  +--> UART
  +--> _WRITE_DGUSII_VP/T5LLIB
  +--> _CRC16TABLE/CRC16

_CRC16TABLE/CRC16                             ----- -----  ----- -----  C953H C957H

_DEAL_83_CMD/UART                             ----- -----  ----- -----  C942H C94DH
  +--> UART
  +--> _UART_SEND_BYTE/UART
  +--> _CRC16TABLE/CRC16
  +--> _READ_DGUSII_VP/T5LLIB

READ_DGUS_TIME/MODULE                         ----- -----  ----- -----  C83AH C843H
  +--> MODULE
  +--> _GET_KEY_VALUE/MODULE
  +--> _READ_SYS_TIME/MODULE
  +--> _PRINTF_TAB/SYS
  +--> PRINTF/PRINTF
  +--> _READ_DGUS/SYS
  +--> _CLEAR_KEY_VALUE/MODULE
  +--> _WRITE_DGUSII_VP/T5LLIB

_GET_KEY_VALUE/MODULE                         ----- -----  ----- -----  ----- -----
  +--> MODULE
  +--> _READ_DGUSII_VP/T5LLIB

_READ_SYS_TIME/MODULE                         ----- -----  ----- -----  ----- -----
  +--> MODULE
  +--> _READ_DGUSII_VP/T5LLIB

_CLEAR_KEY_VALUE/MODULE                       ----- -----  ----- -----  C88FH C895H
  +--> MODULE
  +--> PRINTF/PRINTF
  +--> _WRITE_DGUSII_VP/T5LLIB

TIMING_AUTO_DETECT/TIME_SCENE                 ----- -----  ----- -----  C83AH C84AH
  +--> TIME_SCENE
  +--> _READ_SYS_TIME/MODULE
  +--> PRINTF/PRINTF

MODULE_MODIFY/MODULE                          ----- -----  ----- -----  C83AH C83BH
  +--> READ_PIC/MODULE
  +--> SET_MODULE_TYPE/MODULE
  +--> MODULE
  +--> _SAVE_MODULE_INFORMATION/MODULE
  +--> _SET_BOX_SELECT/MODULE
  +--> _MODIFYING_MODULE_INFORMATION/MODULE
  +--> CLEAR_SELECT_MODULE_INFORMATION/MODULE
  +--> CLEAR_ALL_MODULE_INFORMATION/MODULE
  +--> _TIMING_MODULE_PARAMETER_KEY_CTRL/MODULE
  +--> _DISPLAY_TIMING_MODULE_PARAMETER/MODULE
  +--> SELECT_EITHER_OR_ALL/MODULE
  +--> _READ_DGUS/SYS
  +--> _STARUP_PAGE_PWD/MODULE
  +--> _CHANGE_PWD/MODULE
  +--> SELECT_BEEP_ENABLE/MODULE
  +--> BACK_LIGHT_SET/MODULE
  +--> BLACK_SCREEN_SWITCHES_TO_HOME_PAGE/MODULE
  +--> BATCH_SET_TIME_PARAMETERS/MODULE
  +--> AUTOMATICALLY_RETRIEVE_CMD/MODULE
  +--> MODULE_ALL_CTRL/MODULE
LX51 LINKER/LOCATER V4.66.97.0                                                        11/04/2023  11:13:39  PAGE 17


  +--> RETURN_PAGE/MODULE

READ_PIC/MODULE                               ----- -----  ----- -----  C85DH C85EH
  +--> _READ_DGUS/SYS
  +--> _SYS_DELAY_ABOUT_MS/SYS

SET_MODULE_TYPE/MODULE                        ----- -----  ----- -----  C83CH C83DH
  +--> MODULE
  +--> _READ_DGUSII_VP/T5LLIB
  +--> _WRITE_DGUSII_VP/T5LLIB
  +--> SET_CHANNEL_NB/MODULE

SET_CHANNEL_NB/MODULE                         ----- -----  ----- -----  ----- -----
  +--> MODULE
  +--> _READ_DGUSII_VP/T5LLIB
  +--> _WRITE_DGUSII_VP/T5LLIB

_SAVE_MODULE_INFORMATION/MODULE               ----- -----  ----- -----  C83CH C840H
  +--> _SYS_DELAY_ABOUT_MS/SYS
  +--> MODULE
  +--> _READ_DGUSII_VP/T5LLIB
  +--> _WRITE_DGUSII_VP/T5LLIB
  +--> _PRINTF_TAB/SYS
  +--> _FIND_NUB_INDEX/SYS
  +--> _POP_MENU_KEY_CTRL/SCENE
  +--> PRINTF/PRINTF
  +--> _SET_MODULE_INFORMATION/MODULE
  +--> _ADD_ARR_DATA/SYS
  +--> _NORFLASH_WRITE/NOR_FLASH
  +--> _DISPLAY_MODULE_INFORMATION/MODULE
  +--> _PIC_SET/MODULE

_FIND_NUB_INDEX/SYS                           ----- -----  ----- -----  C841H C843H
  +--> SYS

_POP_MENU_KEY_CTRL/SCENE                      ----- -----  ----- -----  C89FH C8A7H
  +--> SCENE
  +--> _BEEP_CTRL/SCENE
  +--> _SYS_DELAY_ABOUT_MS/SYS
  +--> _WRITE_DGUSII_VP/T5LLIB
  +--> _READ_DGUS/SYS

_SET_MODULE_INFORMATION/MODULE                ----- -----  ----- -----  C841H C848H
  +--> MODULE
  +--> _READ_DGUSII_VP/T5LLIB

_NORFLASH_WRITE/NOR_FLASH                     ----- -----  ----- -----  C84EH C856H
  +--> NOR_FLASH
  +--> _WRITE_DGUSII_VP/T5LLIB
  +--> _READ_DGUSII_VP/T5LLIB
  +--> _SYS_DELAY_ABOUT_MS/SYS

_PIC_SET/MODULE                               ----- -----  ----- -----  C85BH C85EH
  +--> MODULE
  +--> _WRITE_DGUSII_VP/T5LLIB
  +--> _READ_DGUSII_VP/T5LLIB
  +--> _DELAY_US/MODULE

_DELAY_US/MODULE                              ----- -----  ----- -----  ----- -----

_SET_BOX_SELECT/MODULE                        ----- -----  ----- -----  C83CH C849H
  +--> MODULE
  +--> _GET_KEY_VALUE/MODULE
  +--> _WRITE_DGUS/SYS
  +--> _CLEAR_KEY_VALUE/MODULE
LX51 LINKER/LOCATER V4.66.97.0                                                        11/04/2023  11:13:39  PAGE 18



_MODIFYING_MODULE_INFORMATION/MODULE          ----- -----  ----- -----  C83CH C841H
  +--> MODULE
  +--> _GET_KEY_VALUE/MODULE
  +--> _CLEAR_KEY_VALUE/MODULE
  +--> PRINTF/PRINTF
  +--> _FIND_INDEX/MODULE
  +--> _POP_MENU_KEY_CTRL/SCENE
  +--> _PIC_SET/MODULE
  +--> _WRITE_DGUSII_VP/T5LLIB
  +--> _WRITE_DGUS/SYS
  +--> _GET_BOX_SELECT_NUMBER/MODULE
  +--> _CHECK_WHETHER_DATA_EXISTS/MODULE
  +--> _NORFLASH_READ/NOR_FLASH
  +--> _DISPLAY_EDIT_INTERFACE/MODULE
  +--> _DELETE_ARR_DATA/SYS

_FIND_INDEX/MODULE                            ----- -----  ----- -----  C842H C848H
  +--> MODULE
  +--> _CHECK_WHETHER_DATA_EXISTS/MODULE

_CHECK_WHETHER_DATA_EXISTS/MODULE             ----- -----  ----- -----  C849H C851H
  +--> MODULE
  +--> _NORFLASH_READ/NOR_FLASH

_GET_BOX_SELECT_NUMBER/MODULE                 ----- -----  ----- -----  C84AH C84DH
  +--> MODULE
  +--> _READ_DGUS/SYS

_DISPLAY_EDIT_INTERFACE/MODULE                ----- -----  ----- -----  C842H C844H
  +--> PRINTF/PRINTF
  +--> MODULE
  +--> _WRITE_DGUS/SYS
  +--> _WRITE_DGUSII_VP/T5LLIB
  +--> _PIC_SET/MODULE

_DELETE_ARR_DATA/SYS                          ----- -----  ----- -----  ----- -----
  +--> SYS

CLEAR_SELECT_MODULE_INFORMATION/MODULE        ----- -----  ----- -----  C83CH C83EH
  +--> MODULE
  +--> _GET_KEY_VALUE/MODULE
  +--> _GET_BOX_SELECT_NUMBER/MODULE
  +--> _T5L_FLASH/T5LLIB
  +--> _WRITE_DGUSII_VP/T5LLIB
  +--> _DELETE_ARR_DATA/SYS
  +--> _PRINTF_TAB/SYS
  +--> _CLEAR_ALL_MODULE_VAR_EN/SCENE
  +--> _CLEAR_KEY_VALUE/MODULE

_CLEAR_ALL_MODULE_VAR_EN/SCENE                ----- -----  ----- -----  C848H C84BH
  +--> _CLEAR_SINGLE_MODULE_VAR_EN/SCENE

_CLEAR_SINGLE_MODULE_VAR_EN/SCENE             ----- -----  ----- -----  ----- -----
  +--> _WRITE_DGUS/SYS

CLEAR_ALL_MODULE_INFORMATION/MODULE           ----- -----  ----- -----  C83CH C83EH
  +--> MODULE
  +--> _GET_KEY_VALUE/MODULE
  +--> PRINTF/PRINTF
  +--> _T5L_FLASH/T5LLIB
  +--> _CLEAR_ARR_DATA/SYS
  +--> _CLEAR_KEY_VALUE/MODULE

_CLEAR_ARR_DATA/SYS                           ----- -----  ----- -----  C83FH C841H
LX51 LINKER/LOCATER V4.66.97.0                                                        11/04/2023  11:13:39  PAGE 19


  +--> _DELETE_ARR_DATA/SYS

_TIMING_MODULE_PARAMETER_KEY_CTRL/MODULE      ----- -----  ----- -----  C83CH C841H
  +--> MODULE
  +--> _GET_KEY_VALUE/MODULE
  +--> RETURN_TO_PREVIOUS_PAGE/MODULE
  +--> _POP_MENU_KEY_CTRL/SCENE
  +--> _CLEAR_KEY_VALUE/MODULE
  +--> _TIMING_MODULE_PARAMETER_CTRL/MODULE

RETURN_TO_PREVIOUS_PAGE/MODULE                ----- -----  ----- -----  ----- -----
  +--> _PIC_SET/MODULE

_TIMING_MODULE_PARAMETER_CTRL/MODULE          ----- -----  ----- -----  C842H C848H
  +--> MODULE
  +--> _GET_KEY_VALUE/MODULE
  +--> _TIMING_MODULE_PARAMETER_ONGITUDE_LATITUDE_SEND/MODULE
  +--> _TIMING_MODULE_PARAMETER_TIME_SEND/MODULE
  +--> _TIMING_MODULE_PARAMETER_WEEK_ENABLE_CHANNEL_SEND/MODULE
  +--> _TIMING_MODULE_PARAMETER_SOLAR_CHANNEL_SEND/MODULE
  +--> _TIMING_MODULE_PARAMETER_TIME_FRAME_CHANNEL_SEND/MODULE
  +--> _CLEAR_KEY_VALUE/MODULE

_TIMING_MODULE_PARAMETER_ONGITUDE_LATITU+     ----- -----  ----- -----  C849H C84BH
... DE_SEND/MODULE
  +--> _READ_DGUS/SYS
  +--> MODULE
  +--> _SET_MASTER_SEND_HR/MB_USER
  +--> _PACK_DATA_SEND/MB_USER

_SET_MASTER_SEND_HR/MB_USER                   ----- -----  ----- -----  C8A2H C8A8H

_PACK_DATA_SEND/MB_USER                       ----- -----  ----- -----  C8A2H C8A9H
  +--> _MODTIFY_MB_INFOM/MB_USER
  +--> _MODBUS_SEND_DATA/MB_USER

_MODTIFY_MB_INFOM/MB_USER                     ----- -----  ----- -----  C8AAH C8B1H
  +--> MB_USER
  +--> _MODBUS_MASTER_SEND/MB_USER
  +--> PRINTF/PRINTF

_MODBUS_MASTER_SEND/MB_USER                   ----- -----  ----- -----  C8B2H C8BFH
  +--> MB_USER
  +--> _SHORT_COPY_XCH/MB_USER

_SHORT_COPY_XCH/MB_USER                       ----- -----  ----- -----  C8C0H C8CEH
  +--> MB_USER

_MODBUS_SEND_DATA/MB_USER                     ----- -----  ----- -----  C8AAH C8ACH
  +--> MB_USER
  +--> _MBH_SEND/MB_HOST
  +--> PRINTF/PRINTF

_MBH_SEND/MB_HOST                             ----- -----  ----- -----  C8ADH C8B3H
  +--> MB_HOST
  +--> PRINTF/PRINTF
  +--> _MB_CRC16/MB_CRC
  +--> _MB_PORT_UARTENABLE/MB_PORT

MB_HOST                                       ----- -----  ----- -----  ----- -----

_MB_CRC16/MB_CRC                              ----- -----  ----- -----  C8B4H C8B8H

_MB_PORT_UARTENABLE/MB_PORT                   ----- -----  ----- -----  C8B4H C8B5H

LX51 LINKER/LOCATER V4.66.97.0                                                        11/04/2023  11:13:39  PAGE 20


_TIMING_MODULE_PARAMETER_TIME_SEND/MODUL+     ----- -----  ----- -----  C849H C84BH
... E
  +--> MODULE
  +--> _SET_MASTER_SEND_HR/MB_USER
  +--> _READ_DGUS/SYS
  +--> _PACK_DATA_SEND/MB_USER

_TIMING_MODULE_PARAMETER_WEEK_ENABLE_CHA+     ----- -----  ----- -----  C849H C852H
... NNEL_SEND/MODULE
  +--> MODULE
  +--> _GET_TIMING_WEEK_ENABLE/TIME_SCENE
  +--> _GET_CHANNEL_SET/MODULE
  +--> _SET_MASTER_SEND_HR/MB_USER
  +--> _PACK_DATA_SEND/MB_USER

_GET_TIMING_WEEK_ENABLE/TIME_SCENE            ----- -----  ----- -----  C85AH C85BH
  +--> _READ_DGUS/SYS

_GET_CHANNEL_SET/MODULE                       ----- -----  ----- -----  C864H C868H
  +--> MODULE

_TIMING_MODULE_PARAMETER_SOLAR_CHANNEL_S+     ----- -----  ----- -----  C849H C855H
... END/MODULE
  +--> MODULE
  +--> _READ_DGUS/SYS
  +--> _GET_CHANNEL_SET/MODULE
  +--> _SET_MASTER_SEND_HR/MB_USER
  +--> _PACK_DATA_SEND/MB_USER

_TIMING_MODULE_PARAMETER_TIME_FRAME_CHAN+     ----- -----  ----- -----  C849H C863H
... NEL_SEND/MODULE
  +--> MODULE
  +--> _GET_CHANNEL_SET/MODULE
  +--> _SET_MASTER_SEND_HR/MB_USER
  +--> _PACK_DATA_SEND/MB_USER
  +--> _READ_DGUS/SYS

_DISPLAY_TIMING_MODULE_PARAMETER/MODULE       ----- -----  ----- -----  C83CH C85CH
  +--> MODULE
  +--> READ_PIC/MODULE
  +--> MBH_GETRECHOOKSTATE/MB_HOST
  +--> _PRINTF_TAB/SYS
  +--> MBH_CLEARRECHOOKSTATE/MB_HOST
  +--> PRINTF/PRINTF
  +--> _WRITE_DGUS/SYS
  +--> _DISPLAY_WEEK_PARAMETER/MODULE
  +--> _DISPLAY_SOLAR_PARAMETER/MODULE
  +--> _DISPLAY_TIME_FRAME_PARAMETER/MODULE

MBH_GETRECHOOKSTATE/MB_HOST                   ----- -----  ----- -----  ----- -----

MBH_CLEARRECHOOKSTATE/MB_HOST                 ----- -----  ----- -----  ----- -----

_DISPLAY_WEEK_PARAMETER/MODULE                ----- -----  ----- -----  C85DH C860H
  +--> MODULE
  +--> PRINTF/PRINTF
  +--> _WRITE_DGUS/SYS

_DISPLAY_SOLAR_PARAMETER/MODULE               ----- -----  ----- -----  C85DH C863H
  +--> _WRITE_DGUS/SYS

_DISPLAY_TIME_FRAME_PARAMETER/MODULE          ----- -----  ----- -----  C85DH C862H
  +--> MODULE
  +--> _WRITE_DGUS/SYS

LX51 LINKER/LOCATER V4.66.97.0                                                        11/04/2023  11:13:39  PAGE 21


SELECT_EITHER_OR_ALL/MODULE                   ----- -----  ----- -----  ----- -----
  +--> _SELECT_EITHER_OR_SINGLE/MODULE

_SELECT_EITHER_OR_SINGLE/MODULE               ----- -----  ----- -----  C83CH C843H
  +--> MODULE
  +--> _GET_KEY_VALUE/MODULE
  +--> _WRITE_DGUS/SYS
  +--> _CLEAR_KEY_VALUE/MODULE
  +--> _READ_DGUS/SYS

_STARUP_PAGE_PWD/MODULE                       ----- -----  ----- -----  C83CH C83EH
  +--> MODULE
  +--> _GET_KEY_VALUE/MODULE
  +--> _POP_MENU_KEY_CTRL/SCENE
  +--> _PIC_SET/MODULE
  +--> _CLEAR_KEY_VALUE/MODULE
  +--> _READ_DGUS/SYS
  +--> _CHECK_WHETHER_THE_PASSWORDS_ARE_CONSISTENT/MODULE

_CHECK_WHETHER_THE_PASSWORDS_ARE_CONSIST+     ----- -----  ----- -----  ----- -----
... ENT/MODULE
  +--> _PIC_SET/MODULE
  +--> _CLEAR_PWD/MODULE

_CLEAR_PWD/MODULE                             ----- -----  ----- -----  ----- -----
  +--> _WRITE_DGUS/SYS

_CHANGE_PWD/MODULE                            ----- -----  ----- -----  C83CH C844H
  +--> MODULE
  +--> _GET_KEY_VALUE/MODULE
  +--> _CLEAR_KEY_VALUE/MODULE
  +--> _T5L_FLASH/T5LLIB
  +--> _NORFLASH_WRITE/NOR_FLASH
  +--> PRINTF/PRINTF
  +--> _PRINTF_TAB/SYS
  +--> _READ_DGUS/SYS

SELECT_BEEP_ENABLE/MODULE                     ----- -----  ----- -----  C83CH C842H
  +--> MODULE
  +--> _GET_KEY_VALUE/MODULE
  +--> _CHECK_OR_NOT_FRAME/MODULE
  +--> _CHECK_CONSTANT/SYS
  +--> _T5L_FLASH/T5LLIB
  +--> _NORFLASH_WRITE/NOR_FLASH
  +--> _BEEP_CTRL/SCENE
  +--> _CLEAR_KEY_VALUE/MODULE

_CHECK_OR_NOT_FRAME/MODULE                    ----- -----  ----- -----  C843H C845H
  +--> _READ_DGUS/SYS
  +--> _SYS_DELAY_ABOUT_MS/SYS
  +--> MODULE
  +--> _WRITE_DGUS/SYS

_CHECK_CONSTANT/SYS                           ----- -----  ----- -----  ----- -----

BACK_LIGHT_SET/MODULE                         ----- -----  ----- -----  C83CH C841H
  +--> MODULE
  +--> _GET_KEY_VALUE/MODULE
  +--> _READ_DGUS/SYS
  +--> _SYS_DELAY_ABOUT_MS/SYS
  +--> _SYS_LED_CONFIG/SCENE
  +--> _CLEAR_KEY_VALUE/MODULE
  +--> PRINTF/PRINTF
  +--> SAVE_BACK_LIGHT_PARAMETERS/MODULE
  +--> _POP_MENU_KEY_CTRL/SCENE
LX51 LINKER/LOCATER V4.66.97.0                                                        11/04/2023  11:13:39  PAGE 22



SAVE_BACK_LIGHT_PARAMETERS/MODULE             ----- -----  ----- -----  C842H C845H
  +--> MODULE
  +--> _T5L_FLASH/T5LLIB
  +--> _NORFLASH_WRITE/NOR_FLASH
  +--> PRINTF/PRINTF

BLACK_SCREEN_SWITCHES_TO_HOME_PAGE/MODUL+     ----- -----  ----- -----  C83CH C83DH
... E
  +--> MODULE
  +--> _READ_DGUSII_VP/T5LLIB
  +--> _PIC_SET/MODULE

BATCH_SET_TIME_PARAMETERS/MODULE              ----- -----  ----- -----  C83CH C83DH
  +--> MODULE
  +--> _GET_KEY_VALUE/MODULE
  +--> _READ_DGUS/SYS
  +--> _POP_MENU_KEY_CTRL/SCENE
  +--> _CLEAR_KEY_VALUE/MODULE

AUTOMATICALLY_RETRIEVE_CMD/MODULE             ----- -----  ----- -----  C83CH C83DH
  +--> MODULE
  +--> _GET_KEY_VALUE/MODULE
  +--> _POP_MENU_KEY_CTRL/SCENE
  +--> _CLEAR_KEY_VALUE/MODULE

MODULE_ALL_CTRL/MODULE                        ----- -----  ----- -----  C83CH C83DH
  +--> MODULE
  +--> _SET_MASTER_SEND_HR/MB_USER
  +--> _CLEAR_KEY_VALUE/MODULE
  +--> _PACK_DATA_SEND/MB_USER
  +--> _GET_KEY_VALUE/MODULE

RETURN_PAGE/MODULE                            ----- -----  ----- -----  C83CH C83DH
  +--> MODULE
  +--> _GET_KEY_VALUE/MODULE
  +--> _CLEAR_KEY_VALUE/MODULE
  +--> _PIC_SET/MODULE
  +--> PRINTF/PRINTF

SET_SCENE_INFOR_SELECT_SEQUENCE_NUMBER/S+     ----- -----  ----- -----  ----- -----
... CENE
  +--> SCENE
  +--> _SET_BOX_SELECT/MODULE

SET_SCENE_NAME_SELECT_SEQUENCE_NUMBER/SC+     ----- -----  ----- -----  ----- -----
... ENE
  +--> SCENE
  +--> _SET_BOX_SELECT/MODULE

SET_TIMING_SCENE_NAME_SELECT_SEQUENCE_NU+     ----- -----  ----- -----  ----- -----
... MBER/TIME_SCENE
  +--> _SET_BOX_SELECT/MODULE

_RELAY_CTRL/MODULE                            ----- -----  ----- -----  C83AH C83CH
  +--> MODULE
  +--> _RELAY_SINGLE_CTRL/MODULE
  +--> _RELAY_ALL_CTRL/MODULE
  +--> _RELAY_REFESH/MODULE

_RELAY_SINGLE_CTRL/MODULE                     ----- -----  ----- -----  C83DH C88EH
  +--> MODULE
  +--> _GET_KEY_VALUE/MODULE
  +--> PRINTF/PRINTF
  +--> _WRITE_DGUSII_VP/T5LLIB
LX51 LINKER/LOCATER V4.66.97.0                                                        11/04/2023  11:13:39  PAGE 23


  +--> MBH_GETSTATE/MB_HOST
  +--> _PRINTF_TAB/SYS
  +--> _SET_MASTER_SEND_HR/MB_USER
  +--> _PACK_DATA_SEND/MB_USER
  +--> _CLEAR_KEY_VALUE/MODULE

MBH_GETSTATE/MB_HOST                          ----- -----  ----- -----  ----- -----

_RELAY_ALL_CTRL/MODULE                        ----- -----  ----- -----  C83DH C842H
  +--> MODULE
  +--> _GET_KEY_VALUE/MODULE
  +--> _WRITE_DGUSII_VP/T5LLIB
  +--> _SET_MASTER_SEND_HR/MB_USER
  +--> _PACK_DATA_SEND/MB_USER
  +--> _CLEAR_KEY_VALUE/MODULE

_RELAY_REFESH/MODULE                          ----- -----  ----- -----  C83DH C841H
  +--> MODULE
  +--> _GET_KEY_VALUE/MODULE
  +--> _PACK_DATA_SEND/MB_USER
  +--> _CLEAR_KEY_VALUE/MODULE

_READ_TIMING_MODULE_SET_PARAMETER/MODULE      ----- -----  ----- -----  C83AH C83EH
  +--> MODULE
  +--> _GET_KEY_VALUE/MODULE
  +--> _PACK_DATA_SEND/MB_USER
  +--> _CLEAR_KEY_VALUE/MODULE

ALL_MODULE_ON_OFF/MODULE                      ----- -----  ----- -----  C83AH C83BH
  +--> MODULE
  +--> _SET_MASTER_SEND_HR/MB_USER
  +--> _CLEAR_KEY_VALUE/MODULE
  +--> _PACK_DATA_SEND/MB_USER
  +--> _GET_KEY_VALUE/MODULE

ALL_DIM_ON_OFF/MODULE                         ----- -----  ----- -----  C83AH C83BH
  +--> MODULE
  +--> _SET_MASTER_SEND_HR/MB_USER
  +--> _CLEAR_KEY_VALUE/MODULE
  +--> _PACK_DATA_SEND/MB_USER
  +--> _GET_KEY_VALUE/MODULE

SCENE_MODIFY/SCENE                            ----- -----  ----- -----  ----- -----
  +--> SCENE
  +--> _SCENE_NAME_KEY_CTRL/SCENE
  +--> _ADD_MODULE_SCENE_INFOR/SCENE
  +--> _MODULE_SCENE_SELECT_CTRL/SCENE
  +--> _SCENE_INFOR_KEY_CTRL/SCENE
  +--> SET_SCENE_INFOR_PAGE/SCENE
  +--> _SCENE_TOUCH_CTRL/SCENE

_SCENE_NAME_KEY_CTRL/SCENE                    ----- -----  ----- -----  C83AH C83FH
  +--> SCENE
  +--> _SCENE_NAME_ADD/SCENE
  +--> _SCENE_NAME_MODIFY/SCENE
  +--> _CLEAR_KEY_VALUE/MODULE
  +--> _POP_MENU_KEY_CTRL/SCENE
  +--> _SCENE_NAME_CLEAR/SCENE
  +--> PRINTF/PRINTF
  +--> _GET_KEY_VALUE/MODULE
  +--> GET_SCENE_NAME_SELECT_SEQUENCE_NUMBER/SCENE
  +--> _IF_SCENE_NAME_EXISTS/SCENE
  +--> _NORFLASH_READ/NOR_FLASH
  +--> _SCENE_NAME_DELETE/SCENE

LX51 LINKER/LOCATER V4.66.97.0                                                        11/04/2023  11:13:39  PAGE 24


_SCENE_NAME_ADD/SCENE                         ----- -----  ----- -----  C840H C843H
  +--> GET_BLANK_SCENE_NAME_INDEX/SCENE
  +--> PRINTF/PRINTF
  +--> _POP_MENU_KEY_CTRL/SCENE
  +--> _PIC_SET/MODULE
  +--> SCENE
  +--> CLEAR_TEMP_SCENC_INFOR/SCENE
  +--> CLEAR_ALL_SCENE_INFOR/SCENE
  +--> _CLEAR_ALL_MODULE_VAR_EN/SCENE
  +--> SET_DEFAULT_SCENE_NAME/SCENE

GET_BLANK_SCENE_NAME_INDEX/SCENE              ----- -----  ----- -----  C844H C846H
  +--> SCENE
  +--> _READ_DGUSII_VP/T5LLIB

CLEAR_TEMP_SCENC_INFOR/SCENE                  ----- -----  ----- -----  ----- -----

CLEAR_ALL_SCENE_INFOR/SCENE                   ----- -----  ----- -----  C848H C848H
  +--> SCENE
  +--> _CLEAR_SINGLE_SCENE/SCENE

_CLEAR_SINGLE_SCENE/SCENE                     ----- -----  ----- -----  ----- -----
  +--> SCENE
  +--> _WRITE_DGUSII_VP/T5LLIB

SET_DEFAULT_SCENE_NAME/SCENE                  ----- -----  ----- -----  ----- -----
  +--> SCENE
  +--> _WRITE_DGUSII_VP/T5LLIB

_SCENE_NAME_MODIFY/SCENE                      ----- -----  ----- -----  C840H C845H
  +--> SCENE
  +--> GET_SCENE_NAME_SELECT_SEQUENCE_NUMBER/SCENE
  +--> PRINTF/PRINTF
  +--> _IF_SCENE_NAME_EXISTS/SCENE
  +--> _PIC_SET/MODULE
  +--> _SCENE_NAME_READ_FLASH/SCENE
  +--> _PRINTF_TAB/SYS
  +--> _NORFLASH_READ/NOR_FLASH
  +--> _WRITE_DGUS/SYS
  +--> _DISPLAY_SCENE_INFOR/SCENE
  +--> _CLEAR_SINGLE_SCENE/SCENE

GET_SCENE_NAME_SELECT_SEQUENCE_NUMBER/SC+     ----- -----  ----- -----  ----- -----
... ENE
  +--> _GET_BOX_SELECT_NUMBER/MODULE

_IF_SCENE_NAME_EXISTS/SCENE                   ----- -----  ----- -----  C8A0H C8A1H
  +--> SCENE
  +--> _READ_DGUSII_VP/T5LLIB

_SCENE_NAME_READ_FLASH/SCENE                  ----- -----  ----- -----  C846H C848H
  +--> SCENE
  +--> _NORFLASH_READ/NOR_FLASH
  +--> _WRITE_DGUSII_VP/T5LLIB

_DISPLAY_SCENE_INFOR/SCENE                    ----- -----  ----- -----  C848H CACEH
  +--> SCENE
  +--> _STRNCPY/STRNCPY
  +--> PRINTF/PRINTF
  +--> _STRLEN/STRLEN
  +--> _NORFLASH_READ/NOR_FLASH
  +--> _STRRPL/SYS
  +--> _WRITE_DGUSII_VP/T5LLIB

_SCENE_NAME_CLEAR/SCENE                       ----- -----  ----- -----  C840H C842H
LX51 LINKER/LOCATER V4.66.97.0                                                        11/04/2023  11:13:39  PAGE 25


  +--> SCENE_NAME_CLEAR_FLASH/SCENE
  +--> CLEAR_SCENE_LIST_NAME/SCENE
  +--> PRINTF/PRINTF
  +--> SCENE

SCENE_NAME_CLEAR_FLASH/SCENE                  ----- -----  ----- -----  C843H C843H
  +--> IF_ALL_SCENE_NAME_BLANK/SCENE
  +--> SCENE
  +--> _T5L_FLASH/T5LLIB

IF_ALL_SCENE_NAME_BLANK/SCENE                 ----- -----  ----- -----  C89FH C89FH
  +--> SCENE
  +--> _IF_SCENE_NAME_EXISTS/SCENE

CLEAR_SCENE_LIST_NAME/SCENE                   ----- -----  ----- -----  C843H C843H
  +--> SCENE
  +--> _DELETE_SCENE_LIST_NAME/SCENE

_DELETE_SCENE_LIST_NAME/SCENE                 ----- -----  ----- -----  ----- -----
  +--> SCENE
  +--> _WRITE_DGUSII_VP/T5LLIB

_SCENE_NAME_DELETE/SCENE                      ----- -----  ----- -----  C840H C842H
  +--> SCENE
  +--> _SCENE_NAME_DELETE_FLASH/SCENE
  +--> _DELETE_SCENE_LIST_NAME/SCENE
  +--> PRINTF/PRINTF

_SCENE_NAME_DELETE_FLASH/SCENE                ----- -----  ----- -----  C843H C843H
  +--> SCENE
  +--> _T5L_FLASH/T5LLIB

_ADD_MODULE_SCENE_INFOR/SCENE                 ----- -----  ----- -----  C83AH C847H
  +--> SCENE
  +--> _GET_KEY_VALUE/MODULE
  +--> GET_BLANK_SCENE_INFOR_INDEX/SCENE
  +--> _CLEAR_KEY_VALUE/MODULE
  +--> _PIC_SET/MODULE
  +--> _MODULE_RELAY_SCENE_SET/SCENE
  +--> _MODULE_DIM_SCENE_SET/SCENE
  +--> _DISPLAY_SCENE_INFOR/SCENE
  +--> _WRITE_DGUS/SYS

GET_BLANK_SCENE_INFOR_INDEX/SCENE             ----- -----  ----- -----  ----- -----
  +--> SCENE

_MODULE_RELAY_SCENE_SET/SCENE                 ----- -----  ----- -----  C848H C873H
  +--> SCENE
  +--> _READ_DGUSII_VP/T5LLIB
  +--> PRINTF/PRINTF

_MODULE_DIM_SCENE_SET/SCENE                   ----- -----  ----- -----  C848H C865H
  +--> SCENE
  +--> _READ_DGUSII_VP/T5LLIB
  +--> _PRINTF_TAB/SYS

_MODULE_SCENE_SELECT_CTRL/SCENE               ----- -----  ----- -----  C83AH C840H
  +--> SCENE
  +--> _GET_KEY_VALUE/MODULE
  +--> PRINTF/PRINTF
  +--> _MODULE_SCENE_SELECT/SCENE
  +--> _CLEAR_KEY_VALUE/MODULE

_MODULE_SCENE_SELECT/SCENE                    ----- -----  ----- -----  C841H C843H
  +--> SCENE
LX51 LINKER/LOCATER V4.66.97.0                                                        11/04/2023  11:13:39  PAGE 26


  +--> _NORFLASH_READ/NOR_FLASH
  +--> _DISPLAY_SCENE_INTERFACE/SCENE

_DISPLAY_SCENE_INTERFACE/SCENE                ----- -----  ----- -----  C846H C848H
  +--> SCENE
  +--> _DISPLAY_RELAY_SCENE_INTERFACE/SCENE
  +--> _DISPLAY_DIM_SCENE_INTERFACE/SCENE
  +--> PRINTF/PRINTF

_DISPLAY_RELAY_SCENE_INTERFACE/SCENE          ----- -----  ----- -----  C849H C84BH
  +--> SCENE
  +--> _WRITE_DGUS/SYS
  +--> _WRITE_DGUSII_VP/T5LLIB
  +--> _PIC_SET/MODULE

_DISPLAY_DIM_SCENE_INTERFACE/SCENE            ----- -----  ----- -----  C849H C84BH
  +--> SCENE
  +--> _WRITE_DGUSII_VP/T5LLIB
  +--> _PIC_SET/MODULE
  +--> _WRITE_DGUS/SYS

_SCENE_INFOR_KEY_CTRL/SCENE                   ----- -----  ----- -----  C83AH C841H
  +--> SCENE
  +--> _SCENE_INFOR_CONFIRM_CTRL/SCENE
  +--> _SCENE_INFOR_CANCEL_CTRL/SCENE
  +--> _SCENE_INFOR_MODIFY_CTRL/SCENE
  +--> _CLEAR_KEY_VALUE/MODULE
  +--> GET_MODULE_SCENE_EDIT_STA/SCENE
  +--> PRINTF/PRINTF
  +--> _SCENE_EDIT_STA_CLEAR_INFOR/SCENE
  +--> _SCENE_INFOR_CLEAR_CTRL/SCENE
  +--> _GET_KEY_VALUE/MODULE
  +--> _SCENE_INFOR_DELETE_CTRL/SCENE

_SCENE_INFOR_CONFIRM_CTRL/SCENE               ----- -----  ----- -----  C842H C844H
  +--> IF_ALL_SCENE_INFOR_BLANK/SCENE
  +--> SCENE
  +--> _POP_MENU_KEY_CTRL/SCENE
  +--> PRINTF/PRINTF
  +--> _SCENE_INFOR_SAVE_FLASH/SCENE
  +--> _SCENE_NAME_SAVE/SCENE
  +--> _PIC_SET/MODULE

IF_ALL_SCENE_INFOR_BLANK/SCENE                ----- -----  ----- -----  C845H C846H
  +--> SCENE

_SCENE_INFOR_SAVE_FLASH/SCENE                 ----- -----  ----- -----  ----- -----
  +--> _PRINTF_TEMP_SCENC_INFOR/SCENE
  +--> SCENE
  +--> _NORFLASH_WRITE/NOR_FLASH
  +--> PRINTF/PRINTF

_PRINTF_TEMP_SCENC_INFOR/SCENE                ----- -----  ----- -----  ----- -----

_SCENE_NAME_SAVE/SCENE                        ----- -----  ----- -----  C845H C847H
  +--> _SCENE_NAME_WRITE_DGUSII/SCENE
  +--> _SCENE_NAME_SAVE_FLASH/SCENE

_SCENE_NAME_WRITE_DGUSII/SCENE                ----- -----  ----- -----  C848H C84AH
  +--> SCENE
  +--> _READ_DGUSII_VP/T5LLIB
  +--> _WRITE_DGUSII_VP/T5LLIB

_SCENE_NAME_SAVE_FLASH/SCENE                  ----- -----  ----- -----  ----- -----
  +--> SCENE
LX51 LINKER/LOCATER V4.66.97.0                                                        11/04/2023  11:13:39  PAGE 27


  +--> _NORFLASH_WRITE/NOR_FLASH

_SCENE_INFOR_CANCEL_CTRL/SCENE                ----- -----  ----- -----  C842H C847H
  +--> SCENE
  +--> CLEAR_TEMP_SCENC_INFOR/SCENE
  +--> CLEAR_ALL_SCENE_INFOR/SCENE
  +--> _CLEAR_ALL_MODULE_VAR_EN/SCENE
  +--> _PIC_SET/MODULE

_SCENE_INFOR_MODIFY_CTRL/SCENE                ----- -----  ----- -----  C842H C845H
  +--> SCENE
  +--> GET_SCENE_INFOR_SELECT_SEQUENCE_NUMBER/SCENE
  +--> _NORFLASH_READ/NOR_FLASH
  +--> _DISPLAY_SCENE_INTERFACE/SCENE
  +--> _MODULE_SCENE_INFOR_DIS/SCENE

GET_SCENE_INFOR_SELECT_SEQUENCE_NUMBER/S+     ----- -----  ----- -----  ----- -----
... CENE
  +--> _GET_BOX_SELECT_NUMBER/MODULE

_MODULE_SCENE_INFOR_DIS/SCENE                 ----- -----  ----- -----  C846H C869H
  +--> SCENE
  +--> _WRITE_DGUSII_VP/T5LLIB

GET_MODULE_SCENE_EDIT_STA/SCENE               ----- -----  ----- -----  ----- -----

_SCENE_EDIT_STA_CLEAR_INFOR/SCENE             ----- -----  ----- -----  C842H C847H
  +--> SCENE
  +--> _CLEAR_ALL_MODULE_VAR_EN/SCENE
  +--> _T5L_FLASH/T5LLIB
  +--> CLEAR_ALL_SCENE_INFOR/SCENE
  +--> _SCENE_NAME_SAVE_FLASH/SCENE
  +--> PRINTF/PRINTF

_SCENE_INFOR_CLEAR_CTRL/SCENE                 ----- -----  ----- -----  C842H C847H
  +--> SCENE
  +--> CLEAR_TEMP_SCENC_INFOR/SCENE
  +--> CLEAR_ALL_SCENE_INFOR/SCENE
  +--> _CLEAR_ALL_MODULE_VAR_EN/SCENE

_SCENE_INFOR_DELETE_CTRL/SCENE                ----- -----  ----- -----  C842H C844H
  +--> GET_SCENE_INFOR_SELECT_SEQUENCE_NUMBER/SCENE
  +--> SCENE
  +--> _CLEAR_SINGLE_SCENE/SCENE
  +--> GET_MODULE_SCENE_EDIT_STA/SCENE
  +--> _MODULE_RELAY_SCENE_SEND/SCENE
  +--> _MODULE_DIM_SCENE_SEND/SCENE
  +--> _SCENE_INFOR_DELETE_FLASH/SCENE
  +--> _SCENE_NAME_SAVE_FLASH/SCENE
  +--> _CLEAR_SINGLE_MODULE_VAR_EN/SCENE
  +--> PRINTF/PRINTF

_MODULE_RELAY_SCENE_SEND/SCENE                ----- -----  ----- -----  C89FH C8A1H
  +--> SCENE
  +--> _SET_MASTER_SEND_HR/MB_USER
  +--> _PACK_DATA_SEND/MB_USER

_MODULE_DIM_SCENE_SEND/SCENE                  ----- -----  ----- -----  C89FH C8A1H
  +--> SCENE
  +--> _SET_MASTER_SEND_HR/MB_USER
  +--> _PACK_DATA_SEND/MB_USER

_SCENE_INFOR_DELETE_FLASH/SCENE               ----- -----  ----- -----  ----- -----
  +--> SCENE
  +--> _T5L_FLASH/T5LLIB
LX51 LINKER/LOCATER V4.66.97.0                                                        11/04/2023  11:13:39  PAGE 28



SET_SCENE_INFOR_PAGE/SCENE                    ----- -----  ----- -----  C83AH C83BH
  +--> SCENE
  +--> _GET_KEY_VALUE/MODULE
  +--> _CLEAR_KEY_VALUE/MODULE

_SCENE_TOUCH_CTRL/SCENE                       ----- -----  ----- -----  C83AH C83BH
  +--> _READ_DGUS/SYS
  +--> SCENE
  +--> _SET_MASTER_SEND_HR/MB_USER
  +--> _PACK_DATA_SEND/MB_USER
  +--> _WRITE_DGUS/SYS

SCENE_TOUCH_RUN/SCENE                         ----- -----  ----- -----  C83AH C85DH
  +--> SCENE
  +--> _GET_KEY_VALUE/MODULE
  +--> _NORFLASH_READ/NOR_FLASH
  +--> _POP_MENU_KEY_CTRL/SCENE
  +--> _CLEAR_KEY_VALUE/MODULE

SELECT_PASSWORD_ENABLE/MODULE                 ----- -----  ----- -----  C83AH C83CH
  +--> MODULE
  +--> _GET_KEY_VALUE/MODULE
  +--> _CHECK_OR_NOT_FRAME/MODULE
  +--> _CHECK_CONSTANT/SYS
  +--> _T5L_FLASH/T5LLIB
  +--> _CLEAR_KEY_VALUE/MODULE

LOCK_SCREEN_ENABLE_CTRL/MODULE                ----- -----  ----- -----  C83AH C83CH
  +--> MODULE
  +--> _GET_KEY_VALUE/MODULE
  +--> _CHECK_OR_NOT_FRAME/MODULE
  +--> _CHECK_CONSTANT/SYS
  +--> _BACK_LIGHT_CTRL/SCENE
  +--> PRINTF/PRINTF
  +--> SAVE_BACK_LIGHT_PARAMETERS/MODULE
  +--> _CLEAR_KEY_VALUE/MODULE

RIGHT_NUMBER_OF_DAYS_CTRL/TIME_SCENE          ----- -----  ----- -----  ----- -----
  +--> _SET_THE_RIGHT_NUMBER_OF_DAYS/TIME_SCENE

_SET_THE_RIGHT_NUMBER_OF_DAYS/TIME_SCENE      ----- -----  ----- -----  C83AH C840H
  +--> _READ_DGUS/SYS
  +--> _SYS_DELAY_ABOUT_MS/SYS
  +--> _GET_DAYS_IN_MONTH/SYS
  +--> _WRITE_DGUS/SYS

_GET_DAYS_IN_MONTH/SYS                        ----- -----  ----- -----  C841H C841H
  +--> PRINTF/PRINTF

_DIM_CTRL/MODULE                              ----- -----  ----- -----  C83AH C83CH
  +--> MODULE
  +--> _DIM_SINGLE_CTRL/MODULE
  +--> _DIM_ALL_CTRL/MODULE
  +--> _DIM_REFESH/MODULE

_DIM_SINGLE_CTRL/MODULE                       ----- -----  ----- -----  C83DH C856H
  +--> MODULE
  +--> PRINTF/PRINTF
  +--> _WRITE_DGUS/SYS
  +--> READ_PIC/MODULE
  +--> _READ_DGUSII_VP/T5LLIB
  +--> _PRINTF_TAB/SYS
  +--> _WRITE_DGUSII_VP/T5LLIB
  +--> _SET_MASTER_SEND_HR/MB_USER
LX51 LINKER/LOCATER V4.66.97.0                                                        11/04/2023  11:13:39  PAGE 29


  +--> _PACK_DATA_SEND/MB_USER

_DIM_ALL_CTRL/MODULE                          ----- -----  ----- -----  C83DH C841H
  +--> MODULE
  +--> _GET_KEY_VALUE/MODULE
  +--> _SET_MASTER_SEND_HR/MB_USER
  +--> _PACK_DATA_SEND/MB_USER
  +--> _CLEAR_KEY_VALUE/MODULE
  +--> _WRITE_DGUSII_VP/T5LLIB

_DIM_REFESH/MODULE                            ----- -----  ----- -----  C83DH C841H
  +--> MODULE
  +--> _GET_KEY_VALUE/MODULE
  +--> _PACK_DATA_SEND/MB_USER
  +--> _CLEAR_KEY_VALUE/MODULE

MODULE_SCENE_SEND/SCENE                       ----- -----  ----- -----  ----- -----
  +--> SCENE
  +--> _MODULE_RELAY_SCENE_SEND/SCENE
  +--> _MODULE_DIM_SCENE_SEND/SCENE
  +--> PRINTF/PRINTF
  +--> CLEAR_TEMP_SCENC_INFOR/SCENE
  +--> CLEAR_ALL_SCENE_INFOR/SCENE
  +--> _POP_MENU_KEY_CTRL/SCENE

_SCENE_DELETE_CTRL_SEND/SCENE                 ----- -----  ----- -----  C83AH C83CH
  +--> SCENE
  +--> PRINTF/PRINTF
  +--> _POP_MENU_KEY_CTRL/SCENE
  +--> MBH_GETSTATE/MB_HOST
  +--> _MODULE_RELAY_SCENE_SEND/SCENE
  +--> _MODULE_DIM_SCENE_SEND/SCENE
  +--> CLEAR_TEMP_SCENC_INFOR/SCENE

_SCENE_NAME_CTRL_SEND/SCENE                   ----- -----  ----- -----  C83AH C89EH
  +--> SCENE
  +--> IF_ALL_SCENE_NAME_BLANK/SCENE
  +--> _POP_MENU_KEY_CTRL/SCENE
  +--> _MODULE_RELAY_SCENE_SEND/SCENE
  +--> _MODULE_DIM_SCENE_SEND/SCENE
  +--> PRINTF/PRINTF

MODULE_TOUCH_CTRL/MODULE                      ----- -----  ----- -----  C83AH C83BH
  +--> MODULE
  +--> _GET_KEY_VALUE/MODULE
  +--> _MODULE_TOUCH/MODULE
  +--> _CLEAR_KEY_VALUE/MODULE

_MODULE_TOUCH/MODULE                          ----- -----  ----- -----  C83CH C83EH
  +--> MODULE
  +--> _NORFLASH_READ/NOR_FLASH
  +--> _DISPLAY_INTERFACE/MODULE

_DISPLAY_INTERFACE/MODULE                     ----- -----  ----- -----  C83FH C841H
  +--> MODULE
  +--> _DISPLAY_RELAY_INTERFACE/MODULE
  +--> _RELAY_READ/MODULE
  +--> CLEAR_TOUCH_STA/MODULE
  +--> _DISPLAY_DIM_INTERFACE/MODULE
  +--> _DIM_READ/MODULE
  +--> PRINTF/PRINTF

_DISPLAY_RELAY_INTERFACE/MODULE               ----- -----  ----- -----  C842H C844H
  +--> MODULE
  +--> _WRITE_DGUS/SYS
LX51 LINKER/LOCATER V4.66.97.0                                                        11/04/2023  11:13:39  PAGE 30


  +--> _WRITE_DGUSII_VP/T5LLIB
  +--> _RELAY_INTERFACE_TRIGGER/MODULE

_RELAY_INTERFACE_TRIGGER/MODULE               ----- -----  ----- -----  C845H C84CH
  +--> MODULE
  +--> _PIC_SET/MODULE

_RELAY_READ/MODULE                            ----- -----  ----- -----  C842H C844H
  +--> MODULE
  +--> _PACK_DATA_SEND/MB_USER

CLEAR_TOUCH_STA/MODULE                        ----- -----  ----- -----  C842H C849H
  +--> MODULE
  +--> _WRITE_DGUSII_VP/T5LLIB

_DISPLAY_DIM_INTERFACE/MODULE                 ----- -----  ----- -----  C842H C844H
  +--> MODULE
  +--> _WRITE_DGUS/SYS
  +--> _WRITE_DGUSII_VP/T5LLIB
  +--> _PIC_SET/MODULE

_DIM_READ/MODULE                              ----- -----  ----- -----  C842H C844H
  +--> _DELAY_US/MODULE
  +--> MODULE
  +--> _PACK_DATA_SEND/MB_USER

MBH_UARTTXISR/MB_HOST                         ----- -----  ----- -----  ----- -----
  +--> _MB_PORT_UARTENABLE/MB_PORT
  +--> MB_PORT_TIMERENABLE/MB_PORT
  +--> MB_SET_RECEIVE_STATE/MB_PORT
  +--> MB_HOST
  +--> _MB_PORT_PUTCHAR/MB_PORT

MB_PORT_TIMERENABLE/MB_PORT                   ----- -----  ----- -----  ----- -----

MB_SET_RECEIVE_STATE/MB_PORT                  ----- -----  ----- -----  ----- -----

_MB_PORT_PUTCHAR/MB_PORT                      ----- -----  ----- -----  ----- -----
  +--> MB_SET_SEND_STATE/MB_PORT

MB_SET_SEND_STATE/MB_PORT                     ----- -----  ----- -----  ----- -----

MBH_POLL/MB_HOST                              ----- -----  ----- -----  ----- -----
  +--> MB_HOST
  +--> _MB_CRC16/MB_CRC
  +--> _MB_PORT_UARTENABLE/MB_PORT
  +--> PRINTF/PRINTF
  +--> _MBH_HOOK_TIMESERR/MB_HOOK
  +--> _MBH_EXEC/MB_HOST

_MBH_HOOK_TIMESERR/MB_HOOK                    ----- -----  ----- -----  C83AH C83BH

_MBH_EXEC/MB_HOST                             ----- -----  ----- -----  C83AH C841H
  +--> MB_HOST
  +--> _MBH_HOOK_REC01/MB_HOOK
  +--> _MBH_HOOK_REC02/MB_HOOK
  +--> _MBH_HOOK_REC03/MB_HOOK
  +--> _MBH_HOOK_REC04/MB_HOOK
  +--> _MBH_HOOK_REC05/MB_HOOK
  +--> _MBH_HOOK_REC06/MB_HOOK
  +--> _MBH_HOOK_REC15/MB_HOOK
  +--> _MBH_HOOK_REC16/MB_HOOK

_MBH_HOOK_REC01/MB_HOOK                       ----- -----  ----- -----  C842H C848H

LX51 LINKER/LOCATER V4.66.97.0                                                        11/04/2023  11:13:39  PAGE 31


_MBH_HOOK_REC02/MB_HOOK                       ----- -----  ----- -----  C842H C848H

_MBH_HOOK_REC03/MB_HOOK                       ----- -----  ----- -----  C842H C848H
  +--> _SHORT_COPY_XCH/MB_USER
  +--> _PRINTF_TAB/SYS

_MBH_HOOK_REC04/MB_HOOK                       ----- -----  ----- -----  C842H C848H

_MBH_HOOK_REC05/MB_HOOK                       ----- -----  ----- -----  C842H C848H

_MBH_HOOK_REC06/MB_HOOK                       ----- -----  ----- -----  C842H C848H

_MBH_HOOK_REC15/MB_HOOK                       ----- -----  ----- -----  C842H C848H

_MBH_HOOK_REC16/MB_HOOK                       ----- -----  ----- -----  C842H C848H

FACTORY_DATA_RESET/MODULE                     ----- -----  ----- -----  C83AH C840H
  +--> MODULE
  +--> _GET_KEY_VALUE/MODULE
  +--> _T5L_FLASH/T5LLIB
  +--> _CLEAR_KEY_VALUE/MODULE
  +--> _WRITE_DGUSII_VP/T5LLIB

TIMING_SCENE_RUN/TIME_SCENE                   ----- -----  ----- -----  ----- -----
  +--> _MODULE_TIMING_SCENE_SELECT_CTRL/TIME_SCENE
  +--> _OPERAND_CTRL/TIME_SCENE
  +--> _TIMING_SCENE_INFOR_CTRL/TIME_SCENE
  +--> TIMING_ALL_ON_OFF_CTRL/TIME_SCENE
  +--> _TIMING_SCENE_SELECT_CTRL/TIME_SCENE
  +--> _TIMING_SCENE_EDIT/TIME_SCENE

_MODULE_TIMING_SCENE_SELECT_CTRL/TIME_SC+     ----- -----  ----- -----  C83AH C83EH
... ENE
  +--> TIME_SCENE
  +--> _GET_KEY_VALUE/MODULE
  +--> _MODULE_TIMING_SCENE_SELECT/TIME_SCENE
  +--> _CLEAR_KEY_VALUE/MODULE

_MODULE_TIMING_SCENE_SELECT/TIME_SCENE        ----- -----  ----- -----  C848H C84AH
  +--> TIME_SCENE
  +--> _NORFLASH_READ/NOR_FLASH
  +--> _DISPLAY_RELAY_TIMING_SCENE_INTERFACE/TIME_SCENE
  +--> _DISPLAY_DIM_TIMING_SCENE_INTERFACE/TIME_SCENE
  +--> PRINTF/PRINTF

_DISPLAY_RELAY_TIMING_SCENE_INTERFACE/TI+     ----- -----  ----- -----  C84BH C84DH
... ME_SCENE
  +--> TIME_SCENE
  +--> _WRITE_DGUS/SYS
  +--> _WRITE_DGUSII_VP/T5LLIB
  +--> _PIC_SET/MODULE

_DISPLAY_DIM_TIMING_SCENE_INTERFACE/TIME+     ----- -----  ----- -----  C84BH C84DH
... _SCENE
  +--> TIME_SCENE
  +--> _WRITE_DGUS/SYS
  +--> _WRITE_DGUSII_VP/T5LLIB
  +--> _PIC_SET/MODULE

_OPERAND_CTRL/TIME_SCENE                      ----- -----  ----- -----  C83AH C841H
  +--> TIME_SCENE
  +--> _GET_KEY_VALUE/MODULE
  +--> _PIC_SET/MODULE
  +--> _WRITE_DGUS/SYS
  +--> _CLEAR_KEY_VALUE/MODULE
LX51 LINKER/LOCATER V4.66.97.0                                                        11/04/2023  11:13:39  PAGE 32



_TIMING_SCENE_INFOR_CTRL/TIME_SCENE           ----- -----  ----- -----  C83AH C844H
  +--> TIME_SCENE
  +--> _GET_KEY_VALUE/MODULE
  +--> _SCENE_INFOR_MODULE_CONFIM_KEY/TIME_SCENE
  +--> _ALL_ON_OFF_SCENE_CONFIM_KEY/TIME_SCENE
  +--> _SPECIFIED_SCENE_CONFIM_KEY/TIME_SCENE
  +--> SCENE_INFOR_CANCLE_KEY/TIME_SCENE
  +--> _CLEAR_KEY_VALUE/MODULE

_SCENE_INFOR_MODULE_CONFIM_KEY/TIME_SCEN+     ----- -----  ----- -----  C845H C84DH
... E
  +--> TIME_SCENE
  +--> _GET_TIMING_SET_INFOR/TIME_SCENE
  +--> _TIMING_MODULE_SCENE_SET/TIME_SCENE
  +--> _DISPLAY_TIMING_SCENE_INFOR/TIME_SCENE
  +--> _TIMING_SCENE_INFOR_SAVE_FLASH/TIME_SCENE
  +--> _PRINTF_TEMP_TIMING_CONTENT/TIME_SCENE
  +--> CLEAR_TIMING_SCENE_VAR/TIME_SCENE
  +--> PRINTF/PRINTF
  +--> _PIC_SET/MODULE

_GET_TIMING_SET_INFOR/TIME_SCENE              ----- -----  ----- -----  C84EH C859H
  +--> GET_TIMING_DATA_ENABLE/TIME_SCENE
  +--> _GET_TIMING_WEEK_ENABLE/TIME_SCENE
  +--> TIME_SCENE
  +--> _READ_DGUS/SYS

GET_TIMING_DATA_ENABLE/TIME_SCENE             ----- -----  ----- -----  ----- -----
  +--> _READ_DGUS/SYS

_TIMING_MODULE_SCENE_SET/TIME_SCENE           ----- -----  ----- -----  C84EH C853H
  +--> TIME_SCENE
  +--> _TIMING_MODULE_RELAY_SCENE_SET/TIME_SCENE
  +--> _TIMING_MODULE_DIM_SCENE_SET/TIME_SCENE
  +--> PRINTF/PRINTF

_TIMING_MODULE_RELAY_SCENE_SET/TIME_SCEN+     ----- -----  ----- -----  C854H C879H
... E
  +--> TIME_SCENE
  +--> _READ_DGUSII_VP/T5LLIB
  +--> PRINTF/PRINTF

_TIMING_MODULE_DIM_SCENE_SET/TIME_SCENE       ----- -----  ----- -----  C854H C86BH
  +--> TIME_SCENE
  +--> _READ_DGUSII_VP/T5LLIB

_TIMING_SCENE_INFOR_SAVE_FLASH/TIME_SCEN+     ----- -----  ----- -----  ----- -----
... E
  +--> TIME_SCENE
  +--> _NORFLASH_WRITE/NOR_FLASH
  +--> PRINTF/PRINTF

_PRINTF_TEMP_TIMING_CONTENT/TIME_SCENE        ----- -----  ----- -----  C84EH C850H
  +--> TIME_SCENE
  +--> PRINTF/PRINTF

CLEAR_TIMING_SCENE_VAR/TIME_SCENE             ----- -----  ----- -----  C84EH C84EH
  +--> _WRITE_DGUS/SYS
  +--> TIME_SCENE

_ALL_ON_OFF_SCENE_CONFIM_KEY/TIME_SCENE       ----- -----  ----- -----  C845H C84DH
  +--> TIME_SCENE
  +--> _GET_TIMING_SET_INFOR/TIME_SCENE
  +--> _TIMING_ALL_ON_OFF_SCENE_SET/TIME_SCENE
LX51 LINKER/LOCATER V4.66.97.0                                                        11/04/2023  11:13:39  PAGE 33


  +--> _DISPLAY_TIMING_SCENE_INFOR/TIME_SCENE
  +--> _TIMING_SCENE_INFOR_SAVE_FLASH/TIME_SCENE
  +--> CLEAR_TIMING_SCENE_VAR/TIME_SCENE

_TIMING_ALL_ON_OFF_SCENE_SET/TIME_SCENE       ----- -----  ----- -----  C84EH C851H
  +--> _READ_DGUS/SYS
  +--> TIME_SCENE

_SPECIFIED_SCENE_CONFIM_KEY/TIME_SCENE        ----- -----  ----- -----  C845H C84DH
  +--> TIME_SCENE
  +--> _GET_TIMING_SET_INFOR/TIME_SCENE
  +--> _TIMING_SPECIFIED_SCENE_SET/TIME_SCENE
  +--> _DISPLAY_TIMING_SCENE_INFOR/TIME_SCENE
  +--> CLEAR_TIMING_SCENE_VAR/TIME_SCENE
  +--> _TIMING_SCENE_INFOR_SAVE_FLASH/TIME_SCENE

_TIMING_SPECIFIED_SCENE_SET/TIME_SCENE        ----- -----  ----- -----  C84EH C850H
  +--> TIME_SCENE
  +--> PRINTF/PRINTF

SCENE_INFOR_CANCLE_KEY/TIME_SCENE             ----- -----  ----- -----  ----- -----
  +--> CLEAR_TIMING_SCENE_VAR/TIME_SCENE
  +--> _PIC_SET/MODULE

TIMING_ALL_ON_OFF_CTRL/TIME_SCENE             ----- -----  ----- -----  C83AH C83BH
  +--> TIME_SCENE
  +--> _GET_KEY_VALUE/MODULE
  +--> _WRITE_DGUS/SYS
  +--> _CLEAR_KEY_VALUE/MODULE

_TIMING_SCENE_SELECT_CTRL/TIME_SCENE          ----- -----  ----- -----  C83AH C84EH
  +--> TIME_SCENE
  +--> _GET_KEY_VALUE/MODULE
  +--> _READ_DGUSII_VP/T5LLIB
  +--> _WRITE_DGUSII_VP/T5LLIB
  +--> _CLEAR_KEY_VALUE/MODULE
  +--> PRINTF/PRINTF
  +--> _PIC_SET/MODULE

_TIMING_SCENE_EDIT/TIME_SCENE                 ----- -----  ----- -----  C83AH C841H
  +--> _TIMING_SCENE_CLEAR/TIME_SCENE
  +--> TIME_SCENE
  +--> _TIMING_SCENE_DELETE/TIME_SCENE
  +--> _GET_KEY_VALUE/MODULE
  +--> _TIMING_SCENE_ADD/TIME_SCENE
  +--> _TIMING_SCENE_MODTIFY/TIME_SCENE
  +--> _CLEAR_KEY_VALUE/MODULE

_TIMING_SCENE_CLEAR/TIME_SCENE                ----- -----  ----- -----  C842H C846H
  +--> TIME_SCENE
  +--> _GET_KEY_VALUE/MODULE
  +--> _TIMING_SCENE_INFOR_CLEAR/TIME_SCENE
  +--> _CLEAR_KEY_VALUE/MODULE
  +--> PRINTF/PRINTF

_TIMING_SCENE_INFOR_CLEAR/TIME_SCENE          ----- -----  ----- -----  C847H C849H
  +--> _T5L_FLASH/T5LLIB
  +--> _CLEAR_ALL_TIMING_SCENE_CONTENT/TIME_SCENE

_CLEAR_ALL_TIMING_SCENE_CONTENT/TIME_SCE+     ----- -----  ----- -----  C84AH C84DH
... NE
  +--> TIME_SCENE
  +--> _CLEAR_SINGLE_TIMING_SCENE_CONTENT/TIME_SCENE

_CLEAR_SINGLE_TIMING_SCENE_CONTENT/TIME_+     ----- -----  ----- -----  ----- -----
LX51 LINKER/LOCATER V4.66.97.0                                                        11/04/2023  11:13:39  PAGE 34


... SCENE

_TIMING_SCENE_DELETE/TIME_SCENE               ----- -----  ----- -----  C842H C849H
  +--> TIME_SCENE
  +--> _GET_KEY_VALUE/MODULE
  +--> _CLEAR_KEY_VALUE/MODULE
  +--> GET_TIMING_SCENE_NAME_SELECT_SEQUENCE_NUMBER/TIME_SCENE
  +--> _TIMING_SCENE_INFOR_DELETE/TIME_SCENE
  +--> PRINTF/PRINTF

GET_TIMING_SCENE_NAME_SELECT_SEQUENCE_NU+     ----- -----  ----- -----  ----- -----
... MBER/TIME_SCENE
  +--> _GET_BOX_SELECT_NUMBER/MODULE

_TIMING_SCENE_INFOR_DELETE/TIME_SCENE         ----- -----  ----- -----  C84AH C84FH
  +--> TIME_SCENE
  +--> _T5L_FLASH/T5LLIB
  +--> _CLEAR_SINGLE_TIMING_SCENE_CONTENT/TIME_SCENE

_TIMING_SCENE_ADD/TIME_SCENE                  ----- -----  ----- -----  C842H C845H
  +--> GET_BLANK_TIMING_SCENE_INFOR_INDEX/TIME_SCENE
  +--> PRINTF/PRINTF
  +--> _POP_MENU_KEY_CTRL/SCENE
  +--> _PIC_SET/MODULE
  +--> TIME_SCENE

GET_BLANK_TIMING_SCENE_INFOR_INDEX/TIME_+     ----- -----  ----- -----  C846H C846H
... SCENE
  +--> TIME_SCENE
  +--> PRINTF/PRINTF

_TIMING_SCENE_MODTIFY/TIME_SCENE              ----- -----  ----- -----  C842H C847H
  +--> GET_TIMING_SCENE_NAME_SELECT_SEQUENCE_NUMBER/TIME_SCENE
  +--> TIME_SCENE
  +--> _COPY_TO_TEMP_TIMING_CONTENT/TIME_SCENE
  +--> _SET_TIMING_SET_INFOR/TIME_SCENE
  +--> PRINTF/PRINTF
  +--> _MODULE_TIMING_SCENE_SELECT/TIME_SCENE
  +--> _DIS_MODULE_SCENE_INFOR/TIME_SCENE
  +--> _DISPLAY_ALL_ON_OFF_INTERFACE/TIME_SCENE
  +--> _DISPLAY_SCENE_TIME_INTERFACE/TIME_SCENE
  +--> _WRITE_DGUS/SYS

_COPY_TO_TEMP_TIMING_CONTENT/TIME_SCENE       ----- -----  ----- -----  ----- -----

_SET_TIMING_SET_INFOR/TIME_SCENE              ----- -----  ----- -----  C848H C853H
  +--> _SET_TIMING_DATA_ENABLE/TIME_SCENE
  +--> _SET_TIMING_WEEK_ENABLE/TIME_SCENE
  +--> TIME_SCENE
  +--> _WRITE_DGUS/SYS

_SET_TIMING_DATA_ENABLE/TIME_SCENE            ----- -----  ----- -----  C854H C856H
  +--> TIME_SCENE
  +--> PRINTF/PRINTF
  +--> _WRITE_DGUS/SYS

_SET_TIMING_WEEK_ENABLE/TIME_SCENE            ----- -----  ----- -----  ----- -----
  +--> _DISPLAY_WEEK_PARAMETER/MODULE

_DIS_MODULE_SCENE_INFOR/TIME_SCENE            ----- -----  ----- -----  C848H C86BH
  +--> TIME_SCENE
  +--> _WRITE_DGUSII_VP/T5LLIB

_DISPLAY_ALL_ON_OFF_INTERFACE/TIME_SCENE      ----- -----  ----- -----  C848H C84AH
  +--> _PIC_SET/MODULE
LX51 LINKER/LOCATER V4.66.97.0                                                        11/04/2023  11:13:39  PAGE 35


  +--> TIME_SCENE
  +--> _WRITE_DGUS/SYS

_DISPLAY_SCENE_TIME_INTERFACE/TIME_SCENE      ----- -----  ----- -----  C848H C85AH
  +--> TIME_SCENE
  +--> _PIC_SET/MODULE
  +--> _READ_DGUSII_VP/T5LLIB
  +--> _WRITE_DGUSII_VP/T5LLIB

TIMED_AUTO_SEND/TIME_SCENE                    ----- -----  ----- -----  ----- -----
  +--> TIME_SCENE
  +--> MBH_GETSTATE/MB_HOST
  +--> _MODULE_TIMING_SEND/TIME_SCENE
  +--> _ALL_ON_OFF_TIMING_SEND/TIME_SCENE
  +--> PRINTF/PRINTF
  +--> _SCENE_TIMING_SEND/TIME_SCENE

_MODULE_TIMING_SEND/TIME_SCENE                ----- -----  ----- -----  C83AH C83CH
  +--> TIME_SCENE
  +--> _SET_MASTER_SEND_HR/MB_USER
  +--> PRINTF/PRINTF
  +--> _PACK_DATA_SEND/MB_USER

_ALL_ON_OFF_TIMING_SEND/TIME_SCENE            ----- -----  ----- -----  C83AH C83CH
  +--> TIME_SCENE
  +--> _SET_MASTER_SEND_HR/MB_USER
  +--> _PACK_DATA_SEND/MB_USER

_SCENE_TIMING_SEND/TIME_SCENE                 ----- -----  ----- -----  C83AH C83CH
  +--> TIME_SCENE
  +--> _SET_MASTER_SEND_HR/MB_USER
  +--> _PACK_DATA_SEND/MB_USER

TIMING_MODULE_PARAMETER_BATCH_SEND/MODUL+     ----- -----  ----- -----  ----- -----
... E
  +--> MODULE
  +--> MBH_GETSTATE/MB_HOST
  +--> _NORFLASH_READ/NOR_FLASH
  +--> _RUN_TIMING_MODULE_PARAMETER_SET/MODULE
  +--> CLEAR_BATCH_SET_VAR/MODULE

_RUN_TIMING_MODULE_PARAMETER_SET/MODULE       ----- -----  ----- -----  C83AH C83FH
  +--> _TIMING_MODULE_PARAMETER_ONGITUDE_LATITUDE_SEND/MODULE
  +--> _TIMING_MODULE_PARAMETER_TIME_SEND/MODULE
  +--> MODULE
  +--> _TIMING_MODULE_PARAMETER_WEEK_ENABLE_CHANNEL_SEND/MODULE
  +--> _TIMING_MODULE_PARAMETER_SOLAR_CHANNEL_SEND/MODULE
  +--> _TIMING_MODULE_PARAMETER_TIME_FRAME_CHANNEL_SEND/MODULE

CLEAR_BATCH_SET_VAR/MODULE                    ----- -----  ----- -----  ----- -----
  +--> _POP_MENU_KEY_CTRL/SCENE
  +--> PRINTF/PRINTF

AUTOMATICALLY_RETRIEVE/MODULE                 ----- -----  ----- -----  ----- -----
  +--> MBH_GETSTATE/MB_HOST
  +--> _READ_DEVICE_INFORMATION/MODULE
  +--> _POP_MENU_KEY_CTRL/SCENE
  +--> PRINTF/PRINTF

_READ_DEVICE_INFORMATION/MODULE               ----- -----  ----- -----  ----- -----
  +--> MODULE
  +--> _PACK_DATA_SEND/MB_USER

AUTO_ADD_MODULE/MODULE                        ----- -----  ----- -----  ----- -----
  +--> MODULE
LX51 LINKER/LOCATER V4.66.97.0                                                        11/04/2023  11:13:39  PAGE 36


  +--> _FIND_INDEX/MODULE
  +--> PRINTF/PRINTF
  +--> _READ_DGUSII_VP/T5LLIB
  +--> _NORFLASH_WRITE/NOR_FLASH
  +--> _WRITE_DGUSII_VP/T5LLIB
  +--> _DISPLAY_MODULE_INFORMATION/MODULE

?C_INITSEG                                    ----- -----  ----- -----  ----- -----

*** NEW ROOT ********************************

SYS_TIMER2_ISR/SYS                            ----- -----  ----- -----  ----- -----
  +--> SYS
  +--> MBH_TIMER3T5ISR/MB_HOST
  +--> MBH_RESEND_TIME_RUN/MB_HOOK

MBH_TIMER3T5ISR/MB_HOST                       ----- -----  ----- -----  ----- -----
  +--> MB_HOST

MBH_RESEND_TIME_RUN/MB_HOOK                   ----- -----  ----- -----  ----- -----

*** NEW ROOT ********************************

UART4_RISR/UART                               ----- -----  ----- -----  ----- -----
  +--> MBH_UARTRXISR/MB_HOST
  +--> UART

MBH_UARTRXISR/MB_HOST                         ----- -----  ----- -----  CB93H CB93H
  +--> _MB_PORT_GETCHAR/MB_PORT
  +--> MB_HOST
  +--> MB_PORT_TIMERENABLE/MB_PORT

_MB_PORT_GETCHAR/MB_PORT                      ----- -----  ----- -----  ----- -----

*** NEW ROOT ********************************

UART4_TISR/UART                               ----- -----  ----- -----  ----- -----

*** NEW ROOT ********************************

UART5_RISR/UART                               ----- -----  ----- -----  ----- -----
  +--> UART

*** NEW ROOT ********************************

UART5_TISR/UART                               ----- -----  ----- -----  ----- -----

*** NEW ROOT ********************************

UART3_RISR/UART                               ----- -----  ----- -----  ----- -----
  +--> UART

*** NEW ROOT ********************************

UART2_RISR/UART                               ----- -----  ----- -----  ----- -----
  +--> UART



PUBLIC SYMBOLS OF MODULE:  .\OBJ\T5L51 (?C_STARTUP)


      VALUE       CLASS    TYPE      PUBLIC SYMBOL NAME
      =================================================
      0200C841H   XDATA    BYTE      ?_add_arr_data?BYTE
LX51 LINKER/LOCATER V4.66.97.0                                                        11/04/2023  11:13:39  PAGE 37


      0200C83AH   XDATA    BYTE      ?_add_module_scene_infor?BYTE
      0200C845H   XDATA    BYTE      ?_all_on_off_scene_confim_key?BYTE
*DEL*:00000000H   XDATA    BYTE      ?_base64_decode?BYTE
      0200C942H   XDATA    BYTE      ?_deal_83_cmd?BYTE
      00000020H.0 BIT      BIT       ?_deal_uart_data?BIT
      0200C83AH   XDATA    BYTE      ?_deal_uart_data?BYTE
      0200C85DH   XDATA    BYTE      ?_display_solar_parameter?BYTE
      0200C864H   XDATA    BYTE      ?_get_channel_set?BYTE
      0200C84EH   XDATA    BYTE      ?_get_timing_set_infor?BYTE
      0200C83FH   XDATA    BYTE      ?_mb_port_uartInit?BYTE
      0200C83AH   XDATA    BYTE      ?_mbh_exec?BYTE
      0200C842H   XDATA    BYTE      ?_mbh_hook_rec01?BYTE
      0200C842H   XDATA    BYTE      ?_mbh_hook_rec02?BYTE
      0200C842H   XDATA    BYTE      ?_mbh_hook_rec03?BYTE
      0200C842H   XDATA    BYTE      ?_mbh_hook_rec04?BYTE
      0200C842H   XDATA    BYTE      ?_mbh_hook_rec05?BYTE
      0200C842H   XDATA    BYTE      ?_mbh_hook_rec06?BYTE
      0200C842H   XDATA    BYTE      ?_mbh_hook_rec15?BYTE
      0200C842H   XDATA    BYTE      ?_mbh_hook_rec16?BYTE
      0200C83AH   XDATA    BYTE      ?_mbh_init?BYTE
      0200C8ADH   XDATA    BYTE      ?_mbh_send?BYTE
      0200C8AAH   XDATA    BYTE      ?_modtify_mb_infom?BYTE
      0200C848H   XDATA    BYTE      ?_module_dim_scene_set?BYTE
      0200C848H   XDATA    BYTE      ?_module_relay_scene_set?BYTE
      0200CB6BH   XDATA    BYTE      ?_norflash_read?BYTE
      0200C84EH   XDATA    BYTE      ?_norflash_write?BYTE
      0200C83AH   XDATA    BYTE      ?_operand_ctrl?BYTE
      0200C8A2H   XDATA    BYTE      ?_pack_data_send?BYTE
      0200CB6BH   XDATA    ---       ?_PRINTF517?BYTE
      0200CB6BH   XDATA    ---       ?_PRINTF?BYTE
      0200CB74H   XDATA    BYTE      ?_read_dgusii_vp?BYTE
      0200C845H   XDATA    BYTE      ?_relay_interface_trigger?BYTE
      0200C83AH   XDATA    BYTE      ?_run_timing_module_parameter_set?BYTE
      0200C842H   XDATA    BYTE      ?_scene_edit_sta_clear_infor?BYTE
      0200C842H   XDATA    BYTE      ?_scene_infor_cancel_ctrl?BYTE
      0200C842H   XDATA    BYTE      ?_scene_infor_clear_ctrl?BYTE
      0200C83AH   XDATA    BYTE      ?_scene_infor_key_ctrl?BYTE
      0200C845H   XDATA    BYTE      ?_scene_infor_module_confim_key?BYTE
*DEL*:00000000H   XDATA    BYTE      ?_scene_init?BYTE
      0200C83CH   XDATA    BYTE      ?_set_box_select?BYTE
      0200C8A2H   XDATA    BYTE      ?_set_master_send_hr?BYTE
      0200C841H   XDATA    BYTE      ?_set_module_information?BYTE
      0200C848H   XDATA    BYTE      ?_set_timing_set_infor?BYTE
      0200C8C0H   XDATA    BYTE      ?_short_copy_xch?BYTE
      0200C845H   XDATA    BYTE      ?_specified_scene_confim_key?BYTE
      0200CB6BH   XDATA    ---       ?_SPRINTF517?BYTE
      0200CB6BH   XDATA    ---       ?_SPRINTF?BYTE
      0200CB6BH   XDATA    ---       ?_strncpy?BYTE
      0200CB6BH   XDATA    BYTE      ?_strrpl?BYTE
      0200CB77H   XDATA    ---       ?_strstr?BYTE
      0200C850H   XDATA    BYTE      ?_T5L_Flash?BYTE
      0200C854H   XDATA    BYTE      ?_timing_module_dim_scene_set?BYTE
      0200C842H   XDATA    BYTE      ?_timing_module_parameter_ctrl?BYTE
      0200C849H   XDATA    BYTE      ?_timing_module_parameter_solar_channel_send?BYTE
      0200C849H   XDATA    BYTE      ?_timing_module_parameter_time_frame_channel_send?BYTE
      0200C849H   XDATA    BYTE      ?_timing_module_parameter_week_enable_channel_send?BYTE
      0200C854H   XDATA    BYTE      ?_timing_module_relay_scene_set?BYTE
      0200C84EH   XDATA    BYTE      ?_timing_module_scene_set?BYTE
      0200C842H   XDATA    BYTE      ?_timing_scene_delete?BYTE
      0200C83AH   XDATA    BYTE      ?_timing_scene_edit?BYTE
      0200C83AH   XDATA    BYTE      ?_timing_scene_infor_ctrl?BYTE
      0200C84AH   XDATA    BYTE      ?_timing_scene_infor_delete?BYTE
      0200C842H   XDATA    BYTE      ?_timing_scene_modtify?BYTE
*DEL*:00000000H.0 BIT      BIT       ?_uart_data_send?BIT
      0200CB74H   XDATA    BYTE      ?_write_dgusii_vp?BYTE
LX51 LINKER/LOCATER V4.66.97.0                                                        11/04/2023  11:13:39  PAGE 38


      0100267BH   CODE     ---       ?C?CCASE
      0100227CH   CODE     ---       ?C?CLDOPTR
      01002263H   CODE     ---       ?C?CLDPTR
      00000000H   NUMBER   ---       ?C?CODESEG
      0100223DH   CODE     ---       ?C?COPY
      010022BBH   CODE     ---       ?C?CSTOPTR
      010022A9H   CODE     ---       ?C?CSTPTR
      0100237AH   CODE     ---       ?C?IILDX
      01002390H   CODE     ---       ?C?ILDIX
      010023D1H   CODE     ---       ?C?ILDOPTR
      010023A6H   CODE     ---       ?C?ILDPTR
      010022DDH   CODE     ---       ?C?IMUL
      01002428H   CODE     ---       ?C?ISTOPTR
      01002409H   CODE     ---       ?C?ISTPTR
      01002455H   CODE     ---       ?C?LADD
      01002568H   CODE     ---       ?C?LLDXDATA
      01002574H   CODE     ---       ?C?LLDXDATA0
      0100258CH   CODE     ---       ?C?LSTKXDATA
      01002580H   CODE     ---       ?C?LSTXDATA
      010029E2H   CODE     ---       ?C?MEMMOVE
      0100283CH   CODE     ---       ?C?MEMSET
      010025BDH   CODE     ---       ?C?OFFXADD
      01002A2EH   CODE     ---       ?C?PLDCODE
      01002A0AH   CODE     ---       ?C?PLDIDATA
      010025D2H   CODE     ---       ?C?PLDIXDATA
      010025F2H   CODE     ---       ?C?PLDOPTR
      01002A1CH   CODE     ---       ?C?PLDPDATA
      010025C9H   CODE     ---       ?C?PLDXDATA
      01002A13H   CODE     ---       ?C?PSTIDATA
      01002622H   CODE     ---       ?C?PSTOPTR
      01002A25H   CODE     ---       ?C?PSTPDATA
      010025E9H   CODE     ---       ?C?PSTXDATA
      01002344H   CODE     ---       ?C?SIDIV
      01002554H   CODE     ---       ?C?SLSHR
      0100281FH   CODE     ---       ?C?STRCMP
      010022EFH   CODE     ---       ?C?UIDIV
      01002530H   CODE     ---       ?C?ULCMP
      0100249EH   CODE     ---       ?C?ULDIV
      01002541H   CODE     ---       ?C?ULSHR
      00000000H   NUMBER   ---       ?C?XDATASEG
      01009E9CH   CODE     ---       ?C_START
      01000000H   CODE     ---       ?C_STARTUP
      0100CB17H   CODE     ---       _add_arr_data
      01005D5FH   CODE     ---       _add_module_scene_infor
      0100B485H   CODE     ---       _all_on_off_scene_confim_key
      0100AD9CH   CODE     ---       _all_on_off_timing_send
      0100B730H   CODE     ---       _back_light_ctrl
*DEL*:00000000H   CODE     ---       _base64_decode
      0100D667H   CODE     ---       _BCD
      0100BB45H   CODE     ---       _beep_ctrl
      0100A0C2H   CODE     ---       _change_pwd
      0100D571H   CODE     ---       _check_constant
      0100CE3CH   CODE     ---       _check_or_not_frame
      0100C0D0H   CODE     ---       _check_whether_data_exists
      0100D088H   CODE     ---       _check_whether_the_passwords_are_consistent
      0100CC66H   CODE     ---       _clear_all_module_var_en
      0100CF4AH   CODE     ---       _clear_all_timing_scene_content
      0100D306H   CODE     ---       _clear_arr_data
      0100C6D3H   CODE     ---       _clear_key_value
*DEL*:00000000H   CODE     ---       _clear_led_sta
      0100D6E4H   CODE     ---       _clear_pwd
      0100D71CH   CODE     ---       _clear_single_module_var_en
      0100006EH   CODE     ---       _clear_single_scene
      0100D6CAH   CODE     ---       _clear_single_timing_scene_content
      0100D60AH   CODE     ---       _copy_to_temp_timing_content
LX51 LINKER/LOCATER V4.66.97.0                                                        11/04/2023  11:13:39  PAGE 39


      0100C218H   CODE     ---       _crc16table
      010070DEH   CODE     ---       _deal_82_cmd
      0100678AH   CODE     ---       _deal_83_cmd
      0100874AH   CODE     ---       _deal_uart_data
      0100D180H   CODE     ---       _delay_us
      0100CFD1H   CODE     ---       _delayus
      0100D4C6H   CODE     ---       _delete_arr_data
      0100D50BH   CODE     ---       _delete_scene_list_name
      010079B2H   CODE     ---       _dim_all_ctrl
      0100D47EH   CODE     ---       _dim_ctrl
      0100D2C8H   CODE     ---       _dim_read
      0100C7E9H   CODE     ---       _dim_refesh
      01005FE4H   CODE     ---       _dim_single_ctrl
      01007E47H   CODE     ---       _dis_module_scene_infor
      0100C3F2H   CODE     ---       _display_all_on_off_interface
      0100C175H   CODE     ---       _display_dim_interface
      0100BA2CH   CODE     ---       _display_dim_scene_interface
      0100AE7BH   CODE     ---       _display_dim_timing_scene_interface
      01006DDFH   CODE     ---       _display_edit_interface
      0100C07CH   CODE     ---       _display_interface
      0100890CH   CODE     ---       _display_module_information
      01009037H   CODE     ---       _display_relay_interface
      0100A6DCH   CODE     ---       _display_relay_scene_interface
      01009CF7H   CODE     ---       _display_relay_timing_scene_interface
      01004B72H   CODE     ---       _display_scene_infor
      0100C760H   CODE     ---       _display_scene_interface
      0100C4D4H   CODE     ---       _display_scene_time_interface
      0100B22AH   CODE     ---       _display_solar_parameter
      0100B8B0H   CODE     ---       _display_time_frame_parameter
      01006931H   CODE     ---       _display_timing_module_parameter
      01002A3AH   CODE     ---       _display_timing_scene_infor
      0100B1C4H   CODE     ---       _display_week_parameter
      0100C51FH   CODE     ---       _find_index
      0100CF74H   CODE     ---       _find_nub_index
      0100CADDH   CODE     ---       _get_box_select_number
      0100BFD2H   CODE     ---       _get_channel_set
      0100A4B8H   CODE     ---       _get_days_in_month
      0100D6DCH   CODE     ---       _get_key_value
*DEL*:00000000H   CODE     ---       _get_selected_sequence_number
      01009F83H   CODE     ---       _get_timing_set_infor
      01009AF4H   CODE     ---       _get_timing_week_enable
      0100C7C3H   CODE     ---       _i2cbw
      0100D226H   CODE     ---       _if_scene_name_exists
      0100C2B8H   CODE     ---       _mb_crc16
      0100C935H   CODE     ---       _mb_data_init
      01000026H   CODE     ---       _mb_port_getchar
      0100D647H   CODE     ---       _mb_port_putchar
      0100B2F6H   CODE     ---       _mb_port_timerInit
      0100D6AFH   CODE     ---       _mb_port_uartEnable
      0100D710H   CODE     ---       _mb_port_uartInit
      0100805CH   CODE     ---       _mbh_exec
      0100D670H   CODE     ---       _mbh_hook_rec01
      0100D679H   CODE     ---       _mbh_hook_rec02
      0100A5CAH   CODE     ---       _mbh_hook_rec03
      0100D682H   CODE     ---       _mbh_hook_rec04
      0100D68BH   CODE     ---       _mbh_hook_rec05
      0100D694H   CODE     ---       _mbh_hook_rec06
      0100D69DH   CODE     ---       _mbh_hook_rec15
      0100D6A6H   CODE     ---       _mbh_hook_rec16
      0100D549H   CODE     ---       _mbh_hook_timesErr
      0100D288H   CODE     ---       _mbh_init
      0100A653H   CODE     ---       _mbh_send
      01006420H   CODE     ---       _modbus_master_send
      0100C643H   CODE     ---       _modbus_send_data
      0100836CH   CODE     ---       _modifying_module_information
LX51 LINKER/LOCATER V4.66.97.0                                                        11/04/2023  11:13:39  PAGE 40


      0100C3A5H   CODE     ---       _modtify_mb_infom
      010093EFH   CODE     ---       _module_dim_scene_send
      0100724DH   CODE     ---       _module_dim_scene_set
      01009EE1H   CODE     ---       _module_relay_scene_send
      0100425EH   CODE     ---       _module_relay_scene_set
      01007ADFH   CODE     ---       _module_scene_infor_dis
      0100D015H   CODE     ---       _module_scene_select
      01009D9CH   CODE     ---       _module_scene_select_ctrl
      0100B96EH   CODE     ---       _module_timing_scene_select
      0100CB89H   CODE     ---       _module_timing_scene_select_ctrl
      0100A42BH   CODE     ---       _module_timing_send
      0100D44DH   CODE     ---       _module_touch
      0100B7F1H   CODE     ---       _norflash_read
      0100BF26H   CODE     ---       _norflash_write
*DEL*:00000000H   CODE     ---       _num_strchr
      01007F52H   CODE     ---       _operand_ctrl
      0100CBF8H   CODE     ---       _pack_data_send
      0100BE1FH   CODE     ---       _pic_set
      0100AEE9H   CODE     ---       _pop_menu_key_ctrl
      01004F5EH   CODE     ---       _PRINTF
      01004F5EH   CODE     ---       _PRINTF517
      0100BD11H   CODE     ---       _printf_tab
      0100D652H   CODE     ---       _printf_temp_scenc_infor
      0100D13AH   CODE     ---       _printf_temp_timing_content
*DEL*:00000000H   CODE     ---       _printf_timing_content
      0100D624H   CODE     ---       _putchar
      0100D596H   CODE     ---       _read_device_information
      0100C9EEH   CODE     ---       _read_dgus
      0100C123H   CODE     ---       _read_dgusii_vp
      0100D5FDH   CODE     ---       _read_sys_time
*DEL*:00000000H   CODE     ---       _read_timing_module_parameter
      0100C268H   CODE     ---       _read_timing_module_set_parameter
      01008C5DH   CODE     ---       _relay_all_ctrl
      0100D466H   CODE     ---       _relay_ctrl
      0100CA66H   CODE     ---       _relay_interface_trigger
      0100D584H   CODE     ---       _relay_read
      0100CDA4H   CODE     ---       _relay_refesh
      01006243H   CODE     ---       _relay_single_ctrl
      0100A867H   CODE     ---       _rtc_config
      01008165H   CODE     ---       _RTC_Get_Week
      0100A1ECH   CODE     ---       _rtc_get_week_1
      0100C5FBH   CODE     ---       _run_timing_module_parameter_set
      0100AF93H   CODE     ---       _Rx8130_Writ_Byte
      01006C5DH   CODE     ---       _save_module_information
      01009A44H   CODE     ---       _scene_delete_ctrl_send
*DEL*:00000000H   CODE     ---       _scene_edit_clear_infor
      0100BA8AH   CODE     ---       _scene_edit_sta_clear_infor
      0100CE99H   CODE     ---       _scene_infor_cancel_ctrl
      0100D0D0H   CODE     ---       _scene_infor_clear_ctrl
*DEL*:00000000H   CODE     ---       _scene_infor_clear_flash
      0100B15DH   CODE     ---       _scene_infor_confirm_ctrl
      0100761FH   CODE     ---       _scene_infor_delete_ctrl
      0100C71AH   CODE     ---       _scene_infor_delete_flash
      01008D26H   CODE     ---       _scene_infor_key_ctrl
      0100BC5AH   CODE     ---       _scene_infor_modify_ctrl
      01008DEDH   CODE     ---       _scene_infor_module_confim_key
      0100D0ACH   CODE     ---       _scene_infor_save_flash
*DEL*:00000000H   CODE     ---       _scene_init
      0100C027H   CODE     ---       _scene_name_add
      0100CCD2H   CODE     ---       _scene_name_clear
      01008F76H   CODE     ---       _scene_name_ctrl_send
      0100C8B1H   CODE     ---       _scene_name_delete
      0100C357H   CODE     ---       _scene_name_delete_flash
      01008EB2H   CODE     ---       _scene_name_key_ctrl
      010074E8H   CODE     ---       _scene_name_modify
LX51 LINKER/LOCATER V4.66.97.0                                                        11/04/2023  11:13:39  PAGE 41


      0100D247H   CODE     ---       _scene_name_read_flash
      0100D4AEH   CODE     ---       _scene_name_save
      0100D496H   CODE     ---       _scene_name_save_flash
      0100B0F6H   CODE     ---       _scene_name_write_dgusii
      0100C8F3H   CODE     ---       _scene_timing_send
      0100B6CFH   CODE     ---       _scene_touch_ctrl
      01009566H   CODE     ---       _select_either_or_single
      01008B8FH   CODE     ---       _set_box_select
      0100D396H   CODE     ---       _set_master_send_hr
      0100A9E5H   CODE     ---       _set_module_information
*DEL*:00000000H   CODE     ---       _set_selected_sequence_number
      0100AC44H   CODE     ---       _set_the_right_number_of_days
      0100D2A8H   CODE     ---       _set_timing_data_enable
      01009C4EH   CODE     ---       _set_timing_set_infor
      0100D5D5H   CODE     ---       _set_timing_week_enable
      0100AB57H   CODE     ---       _short_copy_xch
      0100B54AH   CODE     ---       _specified_scene_confim_key
      01004F58H   CODE     ---       _SPRINTF
      01004F58H   CODE     ---       _SPRINTF517
      0100B60DH   CODE     ---       _starup_page_pwd
*DEL*:00000000H   CODE     ---       _STRCHR
      0100D520H   CODE     ---       _STRLEN
      0100AFC0H   CODE     ---       _strncpy
      0100961BH   CODE     ---       _strrpl
      01009274H   CODE     ---       _strstr
      01000003H   CODE     ---       _sys_delay_about_ms
      0100B90FH   CODE     ---       _sys_led_config
      0100B851H   CODE     ---       _T5L_Flash
      0100BF7CH   CODE     ---       _timing_all_on_off_scene_set
*DEL*:00000000H   CODE     ---       _timing_module_dim_scene_send
      01007752H   CODE     ---       _timing_module_dim_scene_set
      010096CEH   CODE     ---       _timing_module_parameter_ctrl
      0100B08FH   CODE     ---       _timing_module_parameter_key_ctrl
      0100553AH   CODE     ---       _timing_module_parameter_ongitude_latitude_send
      01007C09H   CODE     ---       _timing_module_parameter_solar_channel_send
      01005258H   CODE     ---       _timing_module_parameter_time_frame_channel_send
      010098E4H   CODE     ---       _timing_module_parameter_time_send
      010089ECH   CODE     ---       _timing_module_parameter_week_enable_channel_send
*DEL*:00000000H   CODE     ---       _timing_module_relay_scene_send
      010046FFH   CODE     ---       _timing_module_relay_scene_set
      0100CD07H   CODE     ---       _timing_module_scene_set
      0100CC2FH   CODE     ---       _timing_scene_add
      0100C82CH   CODE     ---       _timing_scene_clear
      0100AE0CH   CODE     ---       _timing_scene_delete
      0100C1C7H   CODE     ---       _timing_scene_edit
      0100C68BH   CODE     ---       _timing_scene_infor_clear
      010094ABH   CODE     ---       _timing_scene_infor_ctrl
      0100B4E8H   CODE     ---       _timing_scene_infor_delete
      0100D433H   CODE     ---       _timing_scene_infor_save_flash
      01006F61H   CODE     ---       _timing_scene_modtify
      01009833H   CODE     ---       _timing_scene_select_ctrl
      0100C974H   CODE     ---       _timing_specified_scene_set
      0100CBC1H   CODE     ---       _Uart2_Init
      0100D1C3H   CODE     ---       _Uart4_Init
      0100D1E4H   CODE     ---       _Uart5_Init
*DEL*:00000000H   CODE     ---       _UART5_SendString
*DEL*:00000000H   CODE     ---       _uart_data_send
      0100BEE1H   CODE     ---       _uart_send_byte
*DEL*:00000000H   CODE     ---       _user_uart_send
      0100CD70H   CODE     ---       _wait_ok
      0100CA2AH   CODE     ---       _write_dgus
      0100A8E7H   CODE     ---       _write_dgusii_vp
*SFR* 000000D0H.6 DATA     BIT       AC
*SFR* 000000E0H   DATA     BYTE      ACC
*SFR* 000000D8H   DATA     BYTE      ADCON
LX51 LINKER/LOCATER V4.66.97.0                                                        11/04/2023  11:13:39  PAGE 42


      0200AC1BH   XDATA    WORD      adr
*SFR* 000000F1H   DATA     BYTE      ADR_H
*SFR* 000000F4H   DATA     BYTE      ADR_INC
*SFR* 000000F3H   DATA     BYTE      ADR_L
*SFR* 000000F2H   DATA     BYTE      ADR_M
      01007D32H   CODE     ---       all_dim_on_off
      010090F6H   CODE     ---       all_module_on_off
*SFR* 000000F8H.4 DATA     BIT       APP_ACK
*SFR* 000000F8H.6 DATA     BIT       APP_EN
*SFR* 000000F8H.7 DATA     BIT       APP_REQ
*SFR* 000000F8H.5 DATA     BIT       APP_RW
      01008AC0H   CODE     ---       auto_add_module
      00000021H.1 BIT      BIT       Auto_data_upload
      0200AAB1H   XDATA    ---       auto_module
      0100AD2CH   CODE     ---       automatically_retrieve
      0100CF20H   CODE     ---       automatically_retrieve_cmd
*SFR* 000000F0H   DATA     BYTE      B
      0100B3BFH   CODE     ---       back_light_set
      020083E9H   XDATA    ---       base64char
      01009994H   CODE     ---       batch_set_time_parameters
      0100C86FH   CODE     ---       black_screen_switches_to_home_page
*SFR* 000000D9H   DATA     BYTE      BODE4_DIV_H
*SFR* 000000E7H   DATA     BYTE      BODE4_DIV_L
*SFR* 000000AEH   DATA     BYTE      BODE5_DIV_H
*SFR* 000000AFH   DATA     BYTE      BODE5_DIV_L
      00000021H.3 BIT      BIT       Busy2
      00000021H.4 BIT      BIT       Busy3
      00000021H.5 BIT      BIT       Busy4
      00000021H.6 BIT      BIT       Busy5
      0100D117H   CODE     ---       cack
*SFR* 0000008FH   DATA     BYTE      CAN_CR
*SFR* 000000E8H   DATA     BYTE      CAN_ET
*SFR* 00000091H   DATA     BYTE      CAN_IR
      0200AD60H   XDATA    WORD      channel
      0200AC21H   XDATA    BYTE      channel_number
      01009781H   CODE     ---       check_rtc_set
*SFR* 0000008EH   DATA     BYTE      CKCON
      0100A023H   CODE     ---       clear_all_module_information
      0100D3FFH   CODE     ---       clear_all_scene_infor
      0100D062H   CODE     ---       clear_batch_set_var
*DEL*:00000000H   CODE     ---       clear_mbh_rec_one_frame_sta
      0100D419H   CODE     ---       clear_scene_list_name
      0100846DH   CODE     ---       clear_select_module_information
      0100D5C6H   CODE     ---       clear_temp_scenc_infor
      0100C489H   CODE     ---       clear_timing_scene_var
      0100D3E5H   CODE     ---       clear_touch_sta
      0100CE0AH   CODE     ---       Clock
      0100D3CBH   CODE     ---       Clock_1
      0200CF94H   XDATA    WORD      Count_for_tx
      0200CFA1H   XDATA    WORD      Count_num1
      00000021H.2 BIT      BIT       Crc_check_flog
      0200CB94H   XDATA    ---       crctablehi
      0200CC94H   XDATA    ---       crctablelo
*SFR* 000000D0H.7 DATA     BIT       CY
*SFR* 00000095H   DATA     BYTE      D_PAGESEL
*SFR* 000000FDH   DATA     BYTE      DATA0
*SFR* 000000FCH   DATA     BYTE      DATA1
*SFR* 000000FBH   DATA     BYTE      DATA2
*SFR* 000000FAH   DATA     BYTE      DATA3
      0200A88FH   XDATA    ---       default_module_channel_name
      0200C6A5H   XDATA    ---       default_scene_name
      0100D4E4H   CODE     ---       Delayus
*SFR* 000000E6H   DATA     BYTE      DIV_MODE
*SFR* 00000093H   DATA     BYTE      DPC
*SFR* 00000083H   DATA     BYTE      DPH
LX51 LINKER/LOCATER V4.66.97.0                                                        11/04/2023  11:13:39  PAGE 43


*SFR* 00000082H   DATA     BYTE      DPL
*SFR* 000000A8H.7 DATA     BIT       EA
*SFR* 000000B8H.1 DATA     BIT       ECAN
      0200CF9DH   XDATA    DWORD     enter_code_time_cnt
*SFR* 000000A8H.4 DATA     BIT       ES2
*SFR* 000000B8H.3 DATA     BIT       ES4R
*SFR* 000000B8H.2 DATA     BIT       ES4T
*SFR* 000000B8H.5 DATA     BIT       ES5R
*SFR* 000000B8H.4 DATA     BIT       ES5T
*SFR* 000000A8H.1 DATA     BIT       ET0
*SFR* 000000A8H.3 DATA     BIT       ET1
*SFR* 000000A8H.5 DATA     BIT       ET2
*SFR* 000000A8H.0 DATA     BIT       EX0
*SFR* 000000A8H.2 DATA     BIT       EX1
*SFR* 000000FEH   DATA     BYTE      EXADR
*SFR* 000000FFH   DATA     BYTE      EXDATA
*SFR* 000000D0H.5 DATA     BIT       F0
*SFR* 000000D0H.1 DATA     BIT       F1
      01000086H   CODE     ---       factory_data_reset
      0200AE9FH   XDATA    ---       g_var_module
      0100D55DH   CODE     ---       get_blank_scene_infor_index
      0100CB50H   CODE     ---       get_blank_scene_name_index
      0100CAA2H   CODE     ---       get_blank_timing_scene_infor_index
*DEL*:00000000H   CODE     ---       get_mbh_rec_one_frame_sta
      0100D716H   CODE     ---       get_module_scene_edit_sta
*DEL*:00000000H   CODE     ---       get_module_scene_module_select
      0100D6B8H   CODE     ---       get_scene_infor_select_sequence_number
      0100D6C1H   CODE     ---       get_scene_name_select_sequence_number
      0100D6EBH   CODE     ---       get_timing_data_enable
      0100D6D3H   CODE     ---       get_timing_scene_name_select_sequence_number
*SFR* 000000A0H.7 DATA     BIT       Green_LED2
      02008001H   XDATA    ---       HR
      0100D03CH   CODE     ---       i2cbr
      0100D3B1H   CODE     ---       i2cstart
      0100D272H   CODE     ---       i2cstop
      02008000H   XDATA    BYTE      i_test
*SFR* 00000088H.1 DATA     BIT       IE0
*SFR* 00000088H.3 DATA     BIT       IE1
*SFR* 000000A8H   DATA     BYTE      IEN0
*SFR* 000000B8H   DATA     BYTE      IEN1
*SFR* 0000009AH   DATA     BYTE      IEN2
      0100D342H   CODE     ---       if_all_scene_infor_blank
      0100CFEEH   CODE     ---       if_all_scene_name_blank
      0200C6A4H   XDATA    BYTE      infor_clear_sta
      01009333H   CODE     ---       init_back_light_parameters
      0100AAE0H   CODE     ---       init_beep_enable
      0100CF9DH   CODE     ---       init_flash_parameters
      0200AD82H   XDATA    WORD      init_pwd
      0100ABCEH   CODE     ---       init_pwd_f
      0100BD6BH   CODE     ---       Init_Rtc
      0100A310H   CODE     ---       init_rtc_1
*SFR* 000000A9H   DATA     BYTE      IP0
*SFR* 000000B9H   DATA     BYTE      IP1
*SFR* 000000C0H   DATA     BYTE      IRCON
*SFR* 000000BFH   DATA     BYTE      IRCON2
*SFR* 00000088H.0 DATA     BIT       IT0
*SFR* 00000088H.2 DATA     BIT       IT1
      0200AC1FH   XDATA    WORD      key
      0200AD62H   XDATA    ---       led_sta
      0100B66EH   CODE     ---       lock_screen_enable_ctrl
*SFR* 000000E5H   DATA     BYTE      MAC_MODE
      0100D5A8H   CODE     ---       mack
      0100580CH   CODE     ---       main
      0200B3CEH   XDATA    ---       master_send_hr
      0200B3C8H   XDATA    ---       mb_master_func
LX51 LINKER/LOCATER V4.66.97.0                                                        11/04/2023  11:13:39  PAGE 44


*DEL*:00000000H   CODE     ---       mb_port_timerDisable
      0100005AH   CODE     ---       mb_port_timerEnable
      01000066H   CODE     ---       mb_set_receive_state
      0100D722H   CODE     ---       mb_set_send_state
      0100D70AH   CODE     ---       mbh_clearRecHookState
      0100D704H   CODE     ---       mbh_getRecHookState
      0100D6FEH   CODE     ---       mbh_getState
      01008666H   CODE     ---       mbh_poll
      0100D4F4H   CODE     ---       mbh_resend_time_run
      0100CDD7H   CODE     ---       mbh_timer3T5Isr
      0100C43EH   CODE     ---       mbh_uartRxIsr
      0100ACB9H   CODE     ---       mbh_uartTxIsr
      0200B7CFH   XDATA    ---       mbHost
      0200B7CEH   XDATA    BYTE      mbhRecTimeout
      0100D5F0H   CODE     ---       mnak
      0200AE9EH   XDATA    BYTE      modfity_index
      0200A777H   XDATA    ---       module
      010065D7H   CODE     ---       module_all_ctrl
      0200AD4FH   XDATA    ---       module_default_name
      0200AD84H   XDATA    WORD      module_key_nb_bak
      010091B5H   CODE     ---       module_modify
      0200ABC9H   XDATA    ---       module_name_tab
      0200AC22H   XDATA    ---       module_no_name
      0200C6B6H   XDATA    ---       module_scene
      0200C099H   XDATA    ---       module_scene_select_key_bak
      0100A7E5H   CODE     ---       module_scene_send
      0200AC17H   XDATA    BYTE      module_select_sta_bak
      0200A98FH   XDATA    ---       module_tab
      0100CEF4H   CODE     ---       module_touch_ctrl
      0200AC19H   XDATA    WORD      module_type
      0200AC1DH   XDATA    WORD      module_type_bak
*SFR* 000000C9H   DATA     BYTE      MUX_SEL
      0200C00DH   XDATA    ---       name_space
      0200CFA5H   XDATA    ---       norflash_cmd
      0200A775H   XDATA    WORD      num4
      0200AD4DH   XDATA    WORD      num_return
*SFR* 000000D0H.2 DATA     BIT       OV
*SFR* 000000D0H.0 DATA     BIT       P
*SFR* 00000080H   DATA     BYTE      P0
*SFR* 000000B7H   DATA     BYTE      P0MDOUT
*SFR* 00000090H   DATA     BYTE      P1
*SFR* 000000BCH   DATA     BYTE      P1MDOUT
*SFR* 000000A0H   DATA     BYTE      P2
*SFR* 000000BDH   DATA     BYTE      P2MDOUT
*SFR* 000000B0H   DATA     BYTE      P3
*SFR* 000000BEH   DATA     BYTE      P3MDOUT
*SFR* 00000094H   DATA     BYTE      PAGESEL
*SFR* 00000087H   DATA     BYTE      PCON
      0200CF98H   XDATA    BYTE      pic_page
*SFR* 000000F9H   DATA     BYTE      PORTDRV
*SFR* 000000D0H   DATA     BYTE      PSW
      02009404H   XDATA    WORD      R_CN2
      02009406H   XDATA    WORD      R_CN3
      02009408H   XDATA    WORD      R_CN4
      0200940BH   XDATA    WORD      R_CN5
      0200940AH   XDATA    BYTE      R_OD2
      0200940DH   XDATA    BYTE      R_OD3
      0200940EH   XDATA    BYTE      R_OD4
      0200940FH   XDATA    BYTE      R_OD5
      020083F0H   XDATA    ---       R_u2
      02008BF0H   XDATA    ---       R_u3
      02008C04H   XDATA    ---       R_u5
*SFR* 000000F8H   DATA     BYTE      RAMMODE
      0100A541H   CODE     ---       rdtime
      0200CFA3H   XDATA    WORD      re_send_time
LX51 LINKER/LOCATER V4.66.97.0                                                        11/04/2023  11:13:39  PAGE 45


      0100AA63H   CODE     ---       read_dgus_time
      0100002EH   CODE     ---       read_pic
      01009BA2H   CODE     ---       Read_Time
*SFR* 000000A0H.6 DATA     BIT       Red_LED1
      00000021H.7 BIT      BIT       Response_flog
      0100BCB6H   CODE     ---       return_page
      0100D65DH   CODE     ---       return_to_previous_page
*SFR* 00000098H.0 DATA     BIT       RI2
      0100D324H   CODE     ---       right_number_of_days_ctrl
*SFR* 000000D0H.3 DATA     BIT       RS0
*SFR* 000000D0H.4 DATA     BIT       RS1
      00000022H.0 BIT      BIT       RTC_Flog
*SFR* 000000B0H.2 DATA     BIT       RTC_SCL
*SFR* 000000B0H.3 DATA     BIT       RTC_SDA
      0100826BH   CODE     ---       RTC_Set_Time
      0100D0F4H   CODE     ---       Rx8130_Cack
      0100D5E3H   CODE     ---       Rx8130_Mack
      0100D63CH   CODE     ---       Rx8130_Mnak
      0100CEC7H   CODE     ---       Rx8130_Read_Byte
      0100D535H   CODE     ---       Rx8130_Start
      0100D1B1H   CODE     ---       Rx8130_Stop
      0100BAE8H   CODE     ---       save_back_light_parameters
*SFR* 00000099H   DATA     BYTE      SBUF2
*SFR* 0000009CH   DATA     BYTE      SBUF3
*SFR* 0000009FH   DATA     BYTE      SBUF4_RX
*SFR* 0000009EH   DATA     BYTE      SBUF4_TX
*SFR* 000000ADH   DATA     BYTE      SBUF5_RX
*SFR* 000000ACH   DATA     BYTE      SBUF5_TX
      0200BFF4H   XDATA    ---       scenc_infor
      0200BFEFH   XDATA    ---       scene_data
      0200BFEEH   XDATA    BYTE      scene_index
      0100D617H   CODE     ---       scene_infor_cancle_key
      0200BFE2H   XDATA    WORD      scene_infor_key_nb_bak
      0200C00CH   XDATA    BYTE      scene_infor_page
      0200C6A2H   XDATA    BYTE      scene_infor_select_sta_bak
      0100CC9CH   CODE     ---       scene_modify
      0100A966H   CODE     ---       scene_name_clear_flash
      0200BFE4H   XDATA    WORD      scene_name_key_nb_bak
      0200C6A3H   XDATA    BYTE      scene_name_select_sta_bak
      0100BE77H   CODE     ---       scene_touch_run
      0200BFE6H   XDATA    ---       scene_vaild
*SFR* 00000098H   DATA     BYTE      SCON2
*SFR* 0000009BH   DATA     BYTE      SCON3
*SFR* 00000097H   DATA     BYTE      SCON4R
*SFR* 00000096H   DATA     BYTE      SCON4T
*SFR* 000000ABH   DATA     BYTE      SCON5R
*SFR* 000000A7H   DATA     BYTE      SCON5T
      01000056H   CODE     ---       SDA_IN
      0100005EH   CODE     ---       SDA_OUT
      0100A761H   CODE     ---       select_beep_enable
      0100C5B3H   CODE     ---       select_either_or_all
      0100BBFEH   CODE     ---       select_password_enable
      0200CFB0H   XDATA    BYTE      Select_rtc
      0200AFB2H   XDATA    ---       send_table
      0100C569H   CODE     ---       set_channel_nb
      0100D5B7H   CODE     ---       set_default_scene_name
      01007883H   CODE     ---       set_module_type
      0100D2E7H   CODE     ---       set_scene_infor_page
      0100D35EH   CODE     ---       set_scene_infor_select_sequence_number
      0100D37AH   CODE     ---       set_scene_name_select_sequence_number
      0100D15DH   CODE     ---       set_timing_scene_name_select_sequence_number
      0100B290H   CODE     ---       simulate_touch
*SFR* 00000081H   DATA     BYTE      SP
*SFR* 000000BAH   DATA     BYTE      SREL2H
*SFR* 000000AAH   DATA     BYTE      SREL2L
LX51 LINKER/LOCATER V4.66.97.0                                                        11/04/2023  11:13:39  PAGE 46


*SFR* 000000BBH   DATA     BYTE      SREL3H
*SFR* 0000009DH   DATA     BYTE      SREL3L
      0200AC35H   XDATA    ---       st_module
*DEL*:00000000H   CODE     ---       Sw_Data_Send
      0100C9B2H   CODE     ---       Sys_Cpu_Init
      010073AFH   CODE     ---       Sys_Timer2_isr
      0200CF96H   XDATA    WORD      SysTick_RTC
*SFR* 000000C8H   DATA     BYTE      T2CON
      020083ECH   XDATA    BYTE      T_O2
      020083EDH   XDATA    BYTE      T_O3
      020083EEH   XDATA    BYTE      T_O4
      020083EFH   XDATA    BYTE      T_O5
*SFR* 00000088H   DATA     BYTE      TCON
      0200AC33H   XDATA    WORD      temp_adr
      0200A999H   XDATA    ---       temp_module
      0200C0A1H   XDATA    BYTE      temp_module_index
      0200C0A2H   XDATA    ---       temp_scenc_infor
      02009412H   XDATA    ---       temp_timing_content
*SFR* 00000088H.5 DATA     BIT       TF0
*SFR* 00000088H.7 DATA     BIT       TF1
*SFR* 000000C0H.6 DATA     BIT       TF2
*SFR* 0000008CH   DATA     BYTE      TH0
*SFR* 0000008DH   DATA     BYTE      TH1
*SFR* 000000CDH   DATA     BYTE      TH2
*SFR* 00000098H.1 DATA     BIT       TI2
*DEL*:00000000H   CODE     ---       time_scene_init
      02009438H   XDATA    WORD      time_scene_key_nb_bak
      0200943AH   XDATA    BYTE      time_scene_select_sta_bak
      0200943BH   XDATA    ---       time_scene_var
      0200CF99H   XDATA    WORD      time_tick
      0100882BH   CODE     ---       timed_auto_send
      0100B9CDH   CODE     ---       timing_all_on_off_ctrl
      01005AC4H   CODE     ---       timing_auto_detect
      02009459H   XDATA    ---       timing_content
      0200AD86H   XDATA    ---       timing_module
      0100A280H   CODE     ---       timing_module_parameter_batch_send
      0100B35BH   CODE     ---       timing_scene_run
      0200CF9BH   XDATA    WORD      TimVal
*SFR* 0000008AH   DATA     BYTE      TL0
*SFR* 0000008BH   DATA     BYTE      TL1
*SFR* 000000CCH   DATA     BYTE      TL2
*SFR* 00000089H   DATA     BYTE      TMOD
*SFR* 00000088H.4 DATA     BIT       TR0
*SFR* 00000088H.6 DATA     BIT       TR1
*SFR* 000000C8H.0 DATA     BIT       TR2
*SFR* 00000080H.0 DATA     BIT       TR4
*SFR* 00000080H.1 DATA     BIT       TR5
*SFR* 000000CBH   DATA     BYTE      TRL2H
*SFR* 000000CAH   DATA     BYTE      TRL2L
      0100BDC5H   CODE     ---       uart2_Risr
      0100B5ACH   CODE     ---       uart3_Risr
      0100BBA2H   CODE     ---       uart4_Risr
      0100D6F2H   CODE     ---       uart4_Tisr
      0100C308H   CODE     ---       uart5_Risr
      0100D6F8H   CODE     ---       uart5_Tisr
      0100A39EH   CODE     ---       uart_frame_deal
      0100D205H   CODE     ---       uart_init
      0200B3B2H   XDATA    ---       user_modbus
      0200AC18H   XDATA    BYTE      var_previous_page



SYMBOL TABLE OF MODULE:  .\OBJ\T5L51 (?C_STARTUP)

      VALUE       REP       CLASS    TYPE      SYMBOL NAME
LX51 LINKER/LOCATER V4.66.97.0                                                        11/04/2023  11:13:39  PAGE 47


      ====================================================
      ---         MODULE    ---      ---       ?C_STARTUP
      01000000H   PUBLIC    CODE     ---       ?C_STARTUP
      000000E0H   SYMBOL    DATA     ---       ACC
      000000F0H   SYMBOL    DATA     ---       B
      00000083H   SYMBOL    DATA     ---       DPH
      00000082H   SYMBOL    DATA     ---       DPL
      00000095H   SYMBOL    DATA     ---       D_PAGESEL
      00000000H   SYMBOL    NUMBER   ---       IBPSTACK
      00000100H   SYMBOL    NUMBER   ---       IBPSTACKTOP
      00000100H   SYMBOL    NUMBER   ---       IDATALEN
      01009E42H   SYMBOL    CODE     ---       IDATALOOP
      00000094H   SYMBOL    DATA     ---       PAGESEL
      00000000H   SYMBOL    NUMBER   ---       PBPSTACK
      00000100H   SYMBOL    NUMBER   ---       PBPSTACKTOP
      00000000H   SYMBOL    NUMBER   ---       PDATALEN
      00000000H   SYMBOL    NUMBER   ---       PDATASTART
      00000000H   SYMBOL    NUMBER   ---       PPAGE
      00000000H   SYMBOL    NUMBER   ---       PPAGEENABLE
      000000A0H   SYMBOL    DATA     ---       PPAGE_SFR
      00000081H   SYMBOL    DATA     ---       SP
      01009E3FH   SYMBOL    CODE     ---       STARTUP1
      00000000H   SYMBOL    NUMBER   ---       XBPSTACK
      00000000H   SYMBOL    NUMBER   ---       XBPSTACKTOP
      00008000H   SYMBOL    NUMBER   ---       XDATALEN
      01009E55H   SYMBOL    CODE     ---       XDATALOOP
      00008000H   SYMBOL    NUMBER   ---       XDATASTART
      01000000H   LINE      CODE     ---       #34
      01009E3FH   LINE      CODE     ---       #39
      01009E41H   LINE      CODE     ---       #40
      01009E42H   LINE      CODE     ---       #41
      01009E43H   LINE      CODE     ---       #42
      01009E45H   LINE      CODE     ---       #45
      01009E47H   LINE      CODE     ---       #46
      01009E49H   LINE      CODE     ---       #47
      01009E4BH   LINE      CODE     ---       #48
      01009E4DH   LINE      CODE     ---       #50
      01009E50H   LINE      CODE     ---       #51
      01009E52H   LINE      CODE     ---       #55
      01009E54H   LINE      CODE     ---       #57
      01009E55H   LINE      CODE     ---       #58
      01009E56H   LINE      CODE     ---       #59
      01009E57H   LINE      CODE     ---       #60
      01009E59H   LINE      CODE     ---       #61
      01009E5BH   LINE      CODE     ---       #87
      01009E5EH   LINE      CODE     ---       #88

      ---         MODULE    ---      ---       MAIN
      0100580CH   PUBLIC    CODE     ---       main
      000000F1H   SFRSYM    DATA     BYTE      ADR_H
      00000080H   SFRSYM    DATA     BYTE      P0
      00000090H   SFRSYM    DATA     BYTE      P1
      000000A0H   SFRSYM    DATA     BYTE      P2
      000000B0H   SFRSYM    DATA     BYTE      P3
      000000F3H   SFRSYM    DATA     BYTE      ADR_L
      000000D0H.6 SFRSYM    DATA     BIT       AC
      000000A0H.6 SFRSYM    DATA     BIT       Red_LED1
      00000094H   SFRSYM    DATA     BYTE      PAGESEL
      000000F2H   SFRSYM    DATA     BYTE      ADR_M
      000000A8H.7 SFRSYM    DATA     BIT       EA
      000000F8H   SFRSYM    DATA     BYTE      RAMMODE
      000000B7H   SFRSYM    DATA     BYTE      P0MDOUT
      000000BCH   SFRSYM    DATA     BYTE      P1MDOUT
      000000A8H   SFRSYM    DATA     BYTE      IEN0
      000000BDH   SFRSYM    DATA     BYTE      P2MDOUT
LX51 LINKER/LOCATER V4.66.97.0                                                        11/04/2023  11:13:39  PAGE 48


      000000B8H   SFRSYM    DATA     BYTE      IEN1
      000000BEH   SFRSYM    DATA     BYTE      P3MDOUT
      0000009AH   SFRSYM    DATA     BYTE      IEN2
      000000F8H.4 SFRSYM    DATA     BIT       APP_ACK
      000000F4H   SFRSYM    DATA     BYTE      ADR_INC
      000000B8H.1 SFRSYM    DATA     BIT       ECAN
      000000D0H.7 SFRSYM    DATA     BIT       CY
      000000B8H.3 SFRSYM    DATA     BIT       ES4R
      000000B8H.5 SFRSYM    DATA     BIT       ES5R
      000000B8H.2 SFRSYM    DATA     BIT       ES4T
      000000B8H.4 SFRSYM    DATA     BIT       ES5T
      000000B0H.3 SFRSYM    DATA     BIT       RTC_SDA
      00000081H   SFRSYM    DATA     BYTE      SP
      000000D0H.2 SFRSYM    DATA     BIT       OV
      00000095H   SFRSYM    DATA     BYTE      D_PAGESEL
      000000F8H.7 SFRSYM    DATA     BIT       APP_REQ
      000000B0H.2 SFRSYM    DATA     BIT       RTC_SCL
      000000BFH   SFRSYM    DATA     BYTE      IRCON2
      00000087H   SFRSYM    DATA     BYTE      PCON
      000000BAH   SFRSYM    DATA     BYTE      SREL2H
      000000BBH   SFRSYM    DATA     BYTE      SREL3H
      000000F9H   SFRSYM    DATA     BYTE      PORTDRV
      00000089H   SFRSYM    DATA     BYTE      TMOD
      00000088H   SFRSYM    DATA     BYTE      TCON
      000000AAH   SFRSYM    DATA     BYTE      SREL2L
      0000009DH   SFRSYM    DATA     BYTE      SREL3L
      000000FFH   SFRSYM    DATA     BYTE      EXDATA
      00000097H   SFRSYM    DATA     BYTE      SCON4R
      000000ABH   SFRSYM    DATA     BYTE      SCON5R
      000000D9H   SFRSYM    DATA     BYTE      BODE4_DIV_H
      000000AEH   SFRSYM    DATA     BYTE      BODE5_DIV_H
      00000096H   SFRSYM    DATA     BYTE      SCON4T
      000000A7H   SFRSYM    DATA     BYTE      SCON5T
      00000088H.1 SFRSYM    DATA     BIT       IE0
      00000088H.3 SFRSYM    DATA     BIT       IE1
      000000C9H   SFRSYM    DATA     BYTE      MUX_SEL
      000000E7H   SFRSYM    DATA     BYTE      BODE4_DIV_L
      000000AFH   SFRSYM    DATA     BYTE      BODE5_DIV_L
      000000F0H   SFRSYM    DATA     BYTE      B
      000000E0H   SFRSYM    DATA     BYTE      ACC
      0000008FH   SFRSYM    DATA     BYTE      CAN_CR
      000000A9H   SFRSYM    DATA     BYTE      IP0
      000000A8H.1 SFRSYM    DATA     BIT       ET0
      000000B9H   SFRSYM    DATA     BYTE      IP1
      000000A8H.3 SFRSYM    DATA     BIT       ET1
      000000A8H.4 SFRSYM    DATA     BIT       ES2
      00000088H.5 SFRSYM    DATA     BIT       TF0
      000000FDH   SFRSYM    DATA     BYTE      DATA0
      000000A8H.5 SFRSYM    DATA     BIT       ET2
      00000088H.7 SFRSYM    DATA     BIT       TF1
      000000E8H   SFRSYM    DATA     BYTE      CAN_ET
      000000FCH   SFRSYM    DATA     BYTE      DATA1
      000000C0H.6 SFRSYM    DATA     BIT       TF2
      0000008CH   SFRSYM    DATA     BYTE      TH0
      000000FBH   SFRSYM    DATA     BYTE      DATA2
      000000A8H.0 SFRSYM    DATA     BIT       EX0
      00000098H.0 SFRSYM    DATA     BIT       RI2
      0000008DH   SFRSYM    DATA     BYTE      TH1
      00000088H.0 SFRSYM    DATA     BIT       IT0
      00000091H   SFRSYM    DATA     BYTE      CAN_IR
      000000FAH   SFRSYM    DATA     BYTE      DATA3
      000000CDH   SFRSYM    DATA     BYTE      TH2
      000000A8H.2 SFRSYM    DATA     BIT       EX1
      00000088H.2 SFRSYM    DATA     BIT       IT1
      000000D0H.0 SFRSYM    DATA     BIT       P
LX51 LINKER/LOCATER V4.66.97.0                                                        11/04/2023  11:13:39  PAGE 49


      00000098H.1 SFRSYM    DATA     BIT       TI2
      0000008AH   SFRSYM    DATA     BYTE      TL0
      0000008BH   SFRSYM    DATA     BYTE      TL1
      000000CCH   SFRSYM    DATA     BYTE      TL2
      000000F8H.6 SFRSYM    DATA     BIT       APP_EN
      000000D0H.3 SFRSYM    DATA     BIT       RS0
      000000D0H.4 SFRSYM    DATA     BIT       RS1
      00000088H.4 SFRSYM    DATA     BIT       TR0
      00000093H   SFRSYM    DATA     BYTE      DPC
      00000088H.6 SFRSYM    DATA     BIT       TR1
      000000E5H   SFRSYM    DATA     BYTE      MAC_MODE
      000000C8H.0 SFRSYM    DATA     BIT       TR2
      00000080H.0 SFRSYM    DATA     BIT       TR4
      00000080H.1 SFRSYM    DATA     BIT       TR5
      000000A0H.7 SFRSYM    DATA     BIT       Green_LED2
      00000083H   SFRSYM    DATA     BYTE      DPH
      00000082H   SFRSYM    DATA     BYTE      DPL
      00000099H   SFRSYM    DATA     BYTE      SBUF2
      0000009CH   SFRSYM    DATA     BYTE      SBUF3
      000000D8H   SFRSYM    DATA     BYTE      ADCON
      00000098H   SFRSYM    DATA     BYTE      SCON2
      000000C8H   SFRSYM    DATA     BYTE      T2CON
      0000009BH   SFRSYM    DATA     BYTE      SCON3
      000000E6H   SFRSYM    DATA     BYTE      DIV_MODE
      000000F8H.5 SFRSYM    DATA     BIT       APP_RW
      000000CBH   SFRSYM    DATA     BYTE      TRL2H
      0000008EH   SFRSYM    DATA     BYTE      CKCON
      0000009FH   SFRSYM    DATA     BYTE      SBUF4_RX
      000000ADH   SFRSYM    DATA     BYTE      SBUF5_RX
      000000CAH   SFRSYM    DATA     BYTE      TRL2L
      0000009EH   SFRSYM    DATA     BYTE      SBUF4_TX
      000000ACH   SFRSYM    DATA     BYTE      SBUF5_TX
      000000FEH   SFRSYM    DATA     BYTE      EXADR
      000000D0H.5 SFRSYM    DATA     BIT       F0
      000000D0H.1 SFRSYM    DATA     BIT       F1
      000000D0H   SFRSYM    DATA     BYTE      PSW
      000000C0H   SFRSYM    DATA     BYTE      IRCON
      0100EE0CH   SYMBOL    CONST    ---       _?ix1000
      0100EF24H   SYMBOL    CONST    ---       _?ix1001
      0100EF46H   SYMBOL    CONST    ---       _?ix1002

      0100CD3CH   BLOCK     CODE     ---       LVL=0
      ---         BLOCKEND  ---      ---       LVL=0

      0100580CH   BLOCK     CODE     ---       LVL=0
      0100580CH   BLOCK     CODE     NEAR LAB  LVL=1
      0200C6D8H   SYMBOL    XDATA    WORD      i
      0200CFADH   SYMBOL    XDATA    BYTE      time_100ms
      0200CFAEH   SYMBOL    XDATA    BYTE      time_10ms
      0200CFAFH   SYMBOL    XDATA    BYTE      time_200ms
      0200C6DAH   SYMBOL    XDATA    ---       module_read
      0200C7F2H   SYMBOL    XDATA    ---       module_scene_read
      0200C814H   SYMBOL    XDATA    ---       timing_content_read
      ---         BLOCKEND  ---      ---       LVL=1
      0100580CH   LINE      CODE     ---       #18
      0100580CH   LINE      CODE     ---       #20
      0100580CH   LINE      CODE     ---       #21
      0100580FH   LINE      CODE     ---       #25
      01005822H   LINE      CODE     ---       #26
      0100582FH   LINE      CODE     ---       #27
      0100583CH   LINE      CODE     ---       #28
      0100583FH   LINE      CODE     ---       #29
      01005842H   LINE      CODE     ---       #30
      0100584FH   LINE      CODE     ---       #31
      01005858H   LINE      CODE     ---       #34
LX51 LINKER/LOCATER V4.66.97.0                                                        11/04/2023  11:13:39  PAGE 50


      0100585BH   LINE      CODE     ---       #37
      0100585EH   LINE      CODE     ---       #39
      01005870H   LINE      CODE     ---       #40
      01005870H   LINE      CODE     ---       #41
      01005884H   LINE      CODE     ---       #42
      010058A9H   LINE      CODE     ---       #44
      010058B1H   LINE      CODE     ---       #45
      010058B1H   LINE      CODE     ---       #46
      010058D6H   LINE      CODE     ---       #48
      010058E5H   LINE      CODE     ---       #49
      010058FBH   LINE      CODE     ---       #50
      010058FBH   LINE      CODE     ---       #51
      01005903H   LINE      CODE     ---       #52
      01005903H   LINE      CODE     ---       #53
      01005918H   LINE      CODE     ---       #54
      0100592DH   LINE      CODE     ---       #56
      0100592DH   LINE      CODE     ---       #57
      01005933H   LINE      CODE     ---       #58
      01005940H   LINE      CODE     ---       #60
      0100595BH   LINE      CODE     ---       #62
      0100596AH   LINE      CODE     ---       #63
      0100596AH   LINE      CODE     ---       #65
      01005982H   LINE      CODE     ---       #66
      01005982H   LINE      CODE     ---       #67
      0100599AH   LINE      CODE     ---       #68
      010059A0H   LINE      CODE     ---       #69
      010059A2H   LINE      CODE     ---       #71
      010059A2H   LINE      CODE     ---       #72
      010059BAH   LINE      CODE     ---       #73
      010059BAH   LINE      CODE     ---       #74
      010059BFH   LINE      CODE     ---       #76
      010059CAH   LINE      CODE     ---       #77
      010059E0H   LINE      CODE     ---       #80
      010059E9H   LINE      CODE     ---       #81
      010059ECH   LINE      CODE     ---       #82
      010059ECH   LINE      CODE     ---       #83
      010059ECH   LINE      CODE     ---       #84
      010059EFH   LINE      CODE     ---       #85
      010059F2H   LINE      CODE     ---       #86
      010059F5H   LINE      CODE     ---       #87
      010059F8H   LINE      CODE     ---       #88
      01005A07H   LINE      CODE     ---       #89
      01005A07H   LINE      CODE     ---       #90
      01005A0BH   LINE      CODE     ---       #91
      01005A11H   LINE      CODE     ---       #92
      01005A11H   LINE      CODE     ---       #93
      01005A1EH   LINE      CODE     ---       #94
      01005A1EH   LINE      CODE     ---       #95
      01005A20H   LINE      CODE     ---       #96
      01005A26H   LINE      CODE     ---       #97
      01005A29H   LINE      CODE     ---       #98
      01005A2CH   LINE      CODE     ---       #99
      01005A2FH   LINE      CODE     ---       #100
      01005A32H   LINE      CODE     ---       #101
      01005A32H   LINE      CODE     ---       #102
      01005A3FH   LINE      CODE     ---       #103
      01005A3FH   LINE      CODE     ---       #104
      01005A41H   LINE      CODE     ---       #105
      01005A47H   LINE      CODE     ---       #107
      01005A4DH   LINE      CODE     ---       #108
      01005A53H   LINE      CODE     ---       #110
      01005A56H   LINE      CODE     ---       #111
      01005A59H   LINE      CODE     ---       #112
      01005A5CH   LINE      CODE     ---       #113
      01005A5FH   LINE      CODE     ---       #114
LX51 LINKER/LOCATER V4.66.97.0                                                        11/04/2023  11:13:39  PAGE 51


      01005A62H   LINE      CODE     ---       #115
      01005A65H   LINE      CODE     ---       #116
      01005A65H   LINE      CODE     ---       #117
      01005A72H   LINE      CODE     ---       #118
      01005A72H   LINE      CODE     ---       #119
      01005A74H   LINE      CODE     ---       #120
      01005A77H   LINE      CODE     ---       #121
      01005A77H   LINE      CODE     ---       #122
      01005A7DH   LINE      CODE     ---       #123
      01005A80H   LINE      CODE     ---       #124
      01005A89H   LINE      CODE     ---       #125
      01005A92H   LINE      CODE     ---       #126
      01005A95H   LINE      CODE     ---       #127
      01005A98H   LINE      CODE     ---       #128
      01005A9BH   LINE      CODE     ---       #129
      01005A9EH   LINE      CODE     ---       #130
      01005AA1H   LINE      CODE     ---       #132
      01005AA4H   LINE      CODE     ---       #133
      01005AA7H   LINE      CODE     ---       #134
      01005AAAH   LINE      CODE     ---       #135
      01005AADH   LINE      CODE     ---       #138
      01005AB0H   LINE      CODE     ---       #139
      ---         BLOCKEND  ---      ---       LVL=0

      ---         MODULE    ---      ---       SYS
      0200CFA3H   PUBLIC    XDATA    WORD      re_send_time
      0200CFA1H   PUBLIC    XDATA    WORD      Count_num1
      0200CF9DH   PUBLIC    XDATA    DWORD     enter_code_time_cnt
      00000022H.0 PUBLIC    BIT      BIT       RTC_Flog
      0200CF9BH   PUBLIC    XDATA    WORD      TimVal
      0200CF99H   PUBLIC    XDATA    WORD      time_tick
      0200CF98H   PUBLIC    XDATA    BYTE      pic_page
      0200CF96H   PUBLIC    XDATA    WORD      SysTick_RTC
      0200CF94H   PUBLIC    XDATA    WORD      Count_for_tx
      0100D571H   PUBLIC    CODE     ---       _check_constant
      0100A4B8H   PUBLIC    CODE     ---       _get_days_in_month
      0200CB6BH   PUBLIC    XDATA    BYTE      ?_strrpl?BYTE
      0100961BH   PUBLIC    CODE     ---       _strrpl
      0100CF74H   PUBLIC    CODE     ---       _find_nub_index
      0100D306H   PUBLIC    CODE     ---       _clear_arr_data
      0100D4C6H   PUBLIC    CODE     ---       _delete_arr_data
      0200C841H   PUBLIC    XDATA    BYTE      ?_add_arr_data?BYTE
      0100CB17H   PUBLIC    CODE     ---       _add_arr_data
      0100BD11H   PUBLIC    CODE     ---       _printf_tab
      0100CA2AH   PUBLIC    CODE     ---       _write_dgus
      0100C9EEH   PUBLIC    CODE     ---       _read_dgus
      0100C9B2H   PUBLIC    CODE     ---       Sys_Cpu_Init
      01000003H   PUBLIC    CODE     ---       _sys_delay_about_ms
      010073AFH   PUBLIC    CODE     ---       Sys_Timer2_isr
      000000F1H   SFRSYM    DATA     BYTE      ADR_H
      00000080H   SFRSYM    DATA     BYTE      P0
      00000090H   SFRSYM    DATA     BYTE      P1
      000000A0H   SFRSYM    DATA     BYTE      P2
      000000B0H   SFRSYM    DATA     BYTE      P3
      000000F3H   SFRSYM    DATA     BYTE      ADR_L
      000000D0H.6 SFRSYM    DATA     BIT       AC
      000000A0H.6 SFRSYM    DATA     BIT       Red_LED1
      00000094H   SFRSYM    DATA     BYTE      PAGESEL
      000000F2H   SFRSYM    DATA     BYTE      ADR_M
      000000A8H.7 SFRSYM    DATA     BIT       EA
      000000F8H   SFRSYM    DATA     BYTE      RAMMODE
      000000B7H   SFRSYM    DATA     BYTE      P0MDOUT
      000000BCH   SFRSYM    DATA     BYTE      P1MDOUT
      000000A8H   SFRSYM    DATA     BYTE      IEN0
      000000BDH   SFRSYM    DATA     BYTE      P2MDOUT
LX51 LINKER/LOCATER V4.66.97.0                                                        11/04/2023  11:13:39  PAGE 52


      000000B8H   SFRSYM    DATA     BYTE      IEN1
      000000BEH   SFRSYM    DATA     BYTE      P3MDOUT
      0000009AH   SFRSYM    DATA     BYTE      IEN2
      000000F8H.4 SFRSYM    DATA     BIT       APP_ACK
      000000F4H   SFRSYM    DATA     BYTE      ADR_INC
      000000B8H.1 SFRSYM    DATA     BIT       ECAN
      000000D0H.7 SFRSYM    DATA     BIT       CY
      000000B8H.3 SFRSYM    DATA     BIT       ES4R
      000000B8H.5 SFRSYM    DATA     BIT       ES5R
      000000B8H.2 SFRSYM    DATA     BIT       ES4T
      000000B8H.4 SFRSYM    DATA     BIT       ES5T
      000000B0H.3 SFRSYM    DATA     BIT       RTC_SDA
      00000081H   SFRSYM    DATA     BYTE      SP
      000000D0H.2 SFRSYM    DATA     BIT       OV
      00000095H   SFRSYM    DATA     BYTE      D_PAGESEL
      000000F8H.7 SFRSYM    DATA     BIT       APP_REQ
      000000B0H.2 SFRSYM    DATA     BIT       RTC_SCL
      000000BFH   SFRSYM    DATA     BYTE      IRCON2
      00000087H   SFRSYM    DATA     BYTE      PCON
      000000BAH   SFRSYM    DATA     BYTE      SREL2H
      000000BBH   SFRSYM    DATA     BYTE      SREL3H
      000000F9H   SFRSYM    DATA     BYTE      PORTDRV
      00000089H   SFRSYM    DATA     BYTE      TMOD
      00000088H   SFRSYM    DATA     BYTE      TCON
      000000AAH   SFRSYM    DATA     BYTE      SREL2L
      0000009DH   SFRSYM    DATA     BYTE      SREL3L
      000000FFH   SFRSYM    DATA     BYTE      EXDATA
      00000097H   SFRSYM    DATA     BYTE      SCON4R
      000000ABH   SFRSYM    DATA     BYTE      SCON5R
      000000D9H   SFRSYM    DATA     BYTE      BODE4_DIV_H
      000000AEH   SFRSYM    DATA     BYTE      BODE5_DIV_H
      00000096H   SFRSYM    DATA     BYTE      SCON4T
      000000A7H   SFRSYM    DATA     BYTE      SCON5T
      00000088H.1 SFRSYM    DATA     BIT       IE0
      00000088H.3 SFRSYM    DATA     BIT       IE1
      000000C9H   SFRSYM    DATA     BYTE      MUX_SEL
      000000E7H   SFRSYM    DATA     BYTE      BODE4_DIV_L
      000000AFH   SFRSYM    DATA     BYTE      BODE5_DIV_L
      000000F0H   SFRSYM    DATA     BYTE      B
      000000E0H   SFRSYM    DATA     BYTE      ACC
      0000008FH   SFRSYM    DATA     BYTE      CAN_CR
      000000A9H   SFRSYM    DATA     BYTE      IP0
      000000A8H.1 SFRSYM    DATA     BIT       ET0
      000000B9H   SFRSYM    DATA     BYTE      IP1
      000000A8H.3 SFRSYM    DATA     BIT       ET1
      000000A8H.4 SFRSYM    DATA     BIT       ES2
      00000088H.5 SFRSYM    DATA     BIT       TF0
      000000FDH   SFRSYM    DATA     BYTE      DATA0
      000000A8H.5 SFRSYM    DATA     BIT       ET2
      00000088H.7 SFRSYM    DATA     BIT       TF1
      000000E8H   SFRSYM    DATA     BYTE      CAN_ET
      000000FCH   SFRSYM    DATA     BYTE      DATA1
      000000C0H.6 SFRSYM    DATA     BIT       TF2
      0000008CH   SFRSYM    DATA     BYTE      TH0
      000000FBH   SFRSYM    DATA     BYTE      DATA2
      000000A8H.0 SFRSYM    DATA     BIT       EX0
      00000098H.0 SFRSYM    DATA     BIT       RI2
      0000008DH   SFRSYM    DATA     BYTE      TH1
      00000088H.0 SFRSYM    DATA     BIT       IT0
      00000091H   SFRSYM    DATA     BYTE      CAN_IR
      000000FAH   SFRSYM    DATA     BYTE      DATA3
      000000CDH   SFRSYM    DATA     BYTE      TH2
      000000A8H.2 SFRSYM    DATA     BIT       EX1
      00000088H.2 SFRSYM    DATA     BIT       IT1
      000000D0H.0 SFRSYM    DATA     BIT       P
LX51 LINKER/LOCATER V4.66.97.0                                                        11/04/2023  11:13:39  PAGE 53


      00000098H.1 SFRSYM    DATA     BIT       TI2
      0000008AH   SFRSYM    DATA     BYTE      TL0
      0000008BH   SFRSYM    DATA     BYTE      TL1
      000000CCH   SFRSYM    DATA     BYTE      TL2
      000000F8H.6 SFRSYM    DATA     BIT       APP_EN
      000000D0H.3 SFRSYM    DATA     BIT       RS0
      000000D0H.4 SFRSYM    DATA     BIT       RS1
      00000088H.4 SFRSYM    DATA     BIT       TR0
      00000093H   SFRSYM    DATA     BYTE      DPC
      00000088H.6 SFRSYM    DATA     BIT       TR1
      000000E5H   SFRSYM    DATA     BYTE      MAC_MODE
      000000C8H.0 SFRSYM    DATA     BIT       TR2
      00000080H.0 SFRSYM    DATA     BIT       TR4
      00000080H.1 SFRSYM    DATA     BIT       TR5
      000000A0H.7 SFRSYM    DATA     BIT       Green_LED2
      00000083H   SFRSYM    DATA     BYTE      DPH
      00000082H   SFRSYM    DATA     BYTE      DPL
      00000099H   SFRSYM    DATA     BYTE      SBUF2
      0000009CH   SFRSYM    DATA     BYTE      SBUF3
      000000D8H   SFRSYM    DATA     BYTE      ADCON
      00000098H   SFRSYM    DATA     BYTE      SCON2
      000000C8H   SFRSYM    DATA     BYTE      T2CON
      0000009BH   SFRSYM    DATA     BYTE      SCON3
      000000E6H   SFRSYM    DATA     BYTE      DIV_MODE
      000000F8H.5 SFRSYM    DATA     BIT       APP_RW
      000000CBH   SFRSYM    DATA     BYTE      TRL2H
      0000008EH   SFRSYM    DATA     BYTE      CKCON
      0000009FH   SFRSYM    DATA     BYTE      SBUF4_RX
      000000ADH   SFRSYM    DATA     BYTE      SBUF5_RX
      000000CAH   SFRSYM    DATA     BYTE      TRL2L
      0000009EH   SFRSYM    DATA     BYTE      SBUF4_TX
      000000ACH   SFRSYM    DATA     BYTE      SBUF5_TX
      000000FEH   SFRSYM    DATA     BYTE      EXADR
      000000D0H.5 SFRSYM    DATA     BIT       F0
      000000D0H.1 SFRSYM    DATA     BIT       F1
      000000D0H   SFRSYM    DATA     BYTE      PSW
      000000C0H   SFRSYM    DATA     BYTE      IRCON

      0100CE6BH   BLOCK     CODE     ---       LVL=0
      ---         BLOCKEND  ---      ---       LVL=0

      010073AFH   BLOCK     CODE     ---       LVL=0
      010073AFH   LINE      CODE     ---       #21
      010073CCH   LINE      CODE     ---       #24
      010073CEH   LINE      CODE     ---       #25
      010073DDH   LINE      CODE     ---       #26
      010073E0H   LINE      CODE     ---       #27
      010073E6H   LINE      CODE     ---       #29
      010073ECH   LINE      CODE     ---       #30
      010073F4H   LINE      CODE     ---       #31
      010073F7H   LINE      CODE     ---       #32
      010073FFH   LINE      CODE     ---       #33
      01007402H   LINE      CODE     ---       #34
      0100740AH   LINE      CODE     ---       #35
      0100740DH   LINE      CODE     ---       #36
      01007415H   LINE      CODE     ---       #37
      01007418H   LINE      CODE     ---       #38
      01007427H   LINE      CODE     ---       #39
      0100742AH   LINE      CODE     ---       #40
      01007439H   LINE      CODE     ---       #41
      0100743CH   LINE      CODE     ---       #42
      01007450H   LINE      CODE     ---       #43
      01007469H   LINE      CODE     ---       #44
      01007478H   LINE      CODE     ---       #45
      0100747BH   LINE      CODE     ---       #46
LX51 LINKER/LOCATER V4.66.97.0                                                        11/04/2023  11:13:39  PAGE 54


      0100748AH   LINE      CODE     ---       #47
      0100748DH   LINE      CODE     ---       #48
      0100749CH   LINE      CODE     ---       #49
      0100749FH   LINE      CODE     ---       #50
      010074A7H   LINE      CODE     ---       #51
      010074AAH   LINE      CODE     ---       #53
      010074B9H   LINE      CODE     ---       #54
      010074BCH   LINE      CODE     ---       #55
      010074C4H   LINE      CODE     ---       #56
      010074C7H   LINE      CODE     ---       #58
      010074CAH   LINE      CODE     ---       #59
      010074CDH   LINE      CODE     ---       #60
      ---         BLOCKEND  ---      ---       LVL=0

      01000003H   BLOCK     CODE     ---       LVL=0
      00000006H   SYMBOL    DATA     WORD      ms
      01000003H   BLOCK     CODE     NEAR LAB  LVL=1
      00000004H   SYMBOL    DATA     WORD      i
      00000002H   SYMBOL    DATA     WORD      j
      ---         BLOCKEND  ---      ---       LVL=1
      01000003H   LINE      CODE     ---       #68
      01000003H   LINE      CODE     ---       #69
      01000003H   LINE      CODE     ---       #71
      0100000DH   LINE      CODE     ---       #72
      01000022H   LINE      CODE     ---       #74
      ---         BLOCKEND  ---      ---       LVL=0

      0100C9B2H   BLOCK     CODE     ---       LVL=0
      0100C9B2H   LINE      CODE     ---       #76
      0100C9B2H   LINE      CODE     ---       #77
      0100C9B2H   LINE      CODE     ---       #78
      0100C9B5H   LINE      CODE     ---       #79
      0100C9B7H   LINE      CODE     ---       #80
      0100C9B9H   LINE      CODE     ---       #82
      0100C9BBH   LINE      CODE     ---       #83
      0100C9BDH   LINE      CODE     ---       #85
      0100C9BFH   LINE      CODE     ---       #86
      0100C9C1H   LINE      CODE     ---       #87
      0100C9C3H   LINE      CODE     ---       #89
      0100C9C6H   LINE      CODE     ---       #90
      0100C9C9H   LINE      CODE     ---       #91
      0100C9CCH   LINE      CODE     ---       #92
      0100C9CFH   LINE      CODE     ---       #93
      0100C9D2H   LINE      CODE     ---       #94
      0100C9D4H   LINE      CODE     ---       #95
      0100C9D7H   LINE      CODE     ---       #97
      0100C9D9H   LINE      CODE     ---       #98
      0100C9DBH   LINE      CODE     ---       #99
      0100C9DEH   LINE      CODE     ---       #100
      0100C9E1H   LINE      CODE     ---       #101
      0100C9E4H   LINE      CODE     ---       #102
      0100C9E7H   LINE      CODE     ---       #103
      0100C9E9H   LINE      CODE     ---       #104
      0100C9EBH   LINE      CODE     ---       #105
      0100C9EDH   LINE      CODE     ---       #106
      ---         BLOCKEND  ---      ---       LVL=0

      0100C9EEH   BLOCK     CODE     ---       LVL=0
      00000004H   SYMBOL    DATA     WORD      Dgus_Addr
      0100C9F2H   BLOCK     CODE     NEAR LAB  LVL=1
      00000002H   SYMBOL    DATA     WORD      R_Dgus
      ---         BLOCKEND  ---      ---       LVL=1
      0100C9EEH   LINE      CODE     ---       #108
      0100C9F2H   LINE      CODE     ---       #109
      0100C9F2H   LINE      CODE     ---       #110
LX51 LINKER/LOCATER V4.66.97.0                                                        11/04/2023  11:13:39  PAGE 55


      0100C9F3H   LINE      CODE     ---       #112
      0100C9F5H   LINE      CODE     ---       #113
      0100C9FCH   LINE      CODE     ---       #114
      0100CA03H   LINE      CODE     ---       #115
      0100CA06H   LINE      CODE     ---       #117
      0100CA08H   LINE      CODE     ---       #119
      0100CA0CH   LINE      CODE     ---       #120
      0100CA14H   LINE      CODE     ---       #122
      0100CA22H   LINE      CODE     ---       #123
      0100CA25H   LINE      CODE     ---       #125
      0100CA29H   LINE      CODE     ---       #126
      ---         BLOCKEND  ---      ---       LVL=0

      0100CA2AH   BLOCK     CODE     ---       LVL=0
      00000002H   SYMBOL    DATA     WORD      Dgus_Addr
      00000004H   SYMBOL    DATA     WORD      Val
      0100CA2AH   LINE      CODE     ---       #128
      0100CA2EH   LINE      CODE     ---       #129
      0100CA2EH   LINE      CODE     ---       #131
      0100CA31H   LINE      CODE     ---       #132
      0100CA31H   LINE      CODE     ---       #133
      0100CA34H   LINE      CODE     ---       #134
      0100CA37H   LINE      CODE     ---       #135
      0100CA3AH   LINE      CODE     ---       #137
      0100CA3CH   LINE      CODE     ---       #138
      0100CA3FH   LINE      CODE     ---       #140
      0100CA42H   LINE      CODE     ---       #141
      0100CA42H   LINE      CODE     ---       #142
      0100CA45H   LINE      CODE     ---       #143
      0100CA48H   LINE      CODE     ---       #144
      0100CA4BH   LINE      CODE     ---       #146
      0100CA4FH   LINE      CODE     ---       #147
      0100CA4FH   LINE      CODE     ---       #148
      0100CA52H   LINE      CODE     ---       #149
      0100CA54H   LINE      CODE     ---       #150
      0100CA56H   LINE      CODE     ---       #152
      0100CA56H   LINE      CODE     ---       #153
      0100CA59H   LINE      CODE     ---       #154
      0100CA5DH   LINE      CODE     ---       #155
      0100CA5DH   LINE      CODE     ---       #156
      0100CA5FH   LINE      CODE     ---       #157
      0100CA62H   LINE      CODE     ---       #159
      0100CA65H   LINE      CODE     ---       #161
      ---         BLOCKEND  ---      ---       LVL=0

      0100BD11H   BLOCK     CODE     ---       LVL=0
      0200C88FH   SYMBOL    XDATA    WORD      nb
      0200C891H   SYMBOL    XDATA    ---       p
      0100BD1DH   BLOCK     CODE     NEAR LAB  LVL=1
      0200C894H   SYMBOL    XDATA    WORD      i
      ---         BLOCKEND  ---      ---       LVL=1
      0100BD11H   LINE      CODE     ---       #164
      0100BD1DH   LINE      CODE     ---       #165
      0100BD1DH   LINE      CODE     ---       #166
      0100BD24H   LINE      CODE     ---       #167
      0100BD40H   LINE      CODE     ---       #168
      0100BD40H   LINE      CODE     ---       #169
      0100BD5AH   LINE      CODE     ---       #170
      0100BD62H   LINE      CODE     ---       #171
      ---         BLOCKEND  ---      ---       LVL=0

      0100CB17H   BLOCK     CODE     ---       LVL=0
      0200C841H   SYMBOL    XDATA    ---       t_arr
      0200C844H   SYMBOL    XDATA    BYTE      element
      0200C845H   SYMBOL    XDATA    BYTE      pos
LX51 LINKER/LOCATER V4.66.97.0                                                        11/04/2023  11:13:39  PAGE 56


      0100CB17H   LINE      CODE     ---       #180
      0100CB22H   LINE      CODE     ---       #181
      0100CB22H   LINE      CODE     ---       #182
      0100CB29H   LINE      CODE     ---       #183
      0100CB29H   LINE      CODE     ---       #184
      0100CB32H   LINE      CODE     ---       #185
      0100CB35H   LINE      CODE     ---       #186
      0100CB35H   LINE      CODE     ---       #188
      0100CB35H   LINE      CODE     ---       #189
      0100CB4DH   LINE      CODE     ---       #190
      0100CB4FH   LINE      CODE     ---       #191
      0100CB4FH   LINE      CODE     ---       #192
      ---         BLOCKEND  ---      ---       LVL=0

      0100D4C6H   BLOCK     CODE     ---       LVL=0
      00000001H   SYMBOL    DATA     ---       t_arr
      00000005H   SYMBOL    DATA     BYTE      pos
      0100D4C6H   LINE      CODE     ---       #200
      0100D4C6H   LINE      CODE     ---       #201
      0100D4C6H   LINE      CODE     ---       #202
      0100D4CCH   LINE      CODE     ---       #203
      0100D4CCH   LINE      CODE     ---       #204
      0100D4CFH   LINE      CODE     ---       #205
      0100D4CFH   LINE      CODE     ---       #207
      0100D4CFH   LINE      CODE     ---       #208
      0100D4DAH   LINE      CODE     ---       #209
      0100D4DCH   LINE      CODE     ---       #210
      0100D4DCH   LINE      CODE     ---       #211
      ---         BLOCKEND  ---      ---       LVL=0

      0100D306H   BLOCK     CODE     ---       LVL=0
      0200C83FH   SYMBOL    XDATA    ---       t_arr
      00000006H   SYMBOL    DATA     BYTE      size
      0100D30EH   BLOCK     CODE     NEAR LAB  LVL=1
      00000004H   SYMBOL    DATA     BYTE      i
      ---         BLOCKEND  ---      ---       LVL=1
      0100D306H   LINE      CODE     ---       #217
      0100D30EH   LINE      CODE     ---       #218
      0100D30EH   LINE      CODE     ---       #219
      0100D310H   LINE      CODE     ---       #220
      0100D315H   LINE      CODE     ---       #221
      0100D315H   LINE      CODE     ---       #222
      0100D320H   LINE      CODE     ---       #223
      0100D323H   LINE      CODE     ---       #224
      ---         BLOCKEND  ---      ---       LVL=0

      0100CF74H   BLOCK     CODE     ---       LVL=0
      0200C841H   SYMBOL    XDATA    ---       t_arr
      00000005H   SYMBOL    DATA     BYTE      num_to_find
      0100CF7AH   BLOCK     CODE     NEAR LAB  LVL=1
      00000007H   SYMBOL    DATA     BYTE      i
      ---         BLOCKEND  ---      ---       LVL=1
      0100CF74H   LINE      CODE     ---       #231
      0100CF7AH   LINE      CODE     ---       #232
      0100CF7AH   LINE      CODE     ---       #233
      0100CF7CH   LINE      CODE     ---       #234
      0100CF83H   LINE      CODE     ---       #235
      0100CF83H   LINE      CODE     ---       #236
      0100CF94H   LINE      CODE     ---       #237
      0100CF94H   LINE      CODE     ---       #238
      0100CF97H   LINE      CODE     ---       #239
      0100CF97H   LINE      CODE     ---       #240
      0100CF9AH   LINE      CODE     ---       #241
      0100CF9CH   LINE      CODE     ---       #242
      ---         BLOCKEND  ---      ---       LVL=0
LX51 LINKER/LOCATER V4.66.97.0                                                        11/04/2023  11:13:39  PAGE 57



      0100961BH   BLOCK     CODE     ---       LVL=0
      0200CB6BH   SYMBOL    XDATA    ---       s
      0200CB6EH   SYMBOL    XDATA    ---       old_str
      0200CB71H   SYMBOL    XDATA    ---       new_str
      01009621H   BLOCK     CODE     NEAR LAB  LVL=1
      0200CB74H   SYMBOL    XDATA    ---       ptr
      ---         BLOCKEND  ---      ---       LVL=1
      0100961BH   LINE      CODE     ---       #251
      01009621H   LINE      CODE     ---       #252
      01009621H   LINE      CODE     ---       #254
      01009641H   LINE      CODE     ---       #255
      01009641H   LINE      CODE     ---       #256
      01009699H   LINE      CODE     ---       #257
      010096ABH   LINE      CODE     ---       #258
      010096AEH   LINE      CODE     ---       #259
      010096B4H   LINE      CODE     ---       #260
      ---         BLOCKEND  ---      ---       LVL=0

      0100A4B8H   BLOCK     CODE     ---       LVL=0
      00000002H   SYMBOL    DATA     WORD      year
      00000005H   SYMBOL    DATA     BYTE      month
      0100A4BCH   BLOCK     CODE     NEAR LAB  LVL=1
      0200C841H   SYMBOL    XDATA    BYTE      days
      ---         BLOCKEND  ---      ---       LVL=1
      0100A4B8H   LINE      CODE     ---       #267
      0100A4BCH   LINE      CODE     ---       #268
      0100A4BCH   LINE      CODE     ---       #269
      0100A4C1H   LINE      CODE     ---       #270
      0100A4EDH   LINE      CODE     ---       #271
      0100A4EDH   LINE      CODE     ---       #272
      0100A4EDH   LINE      CODE     ---       #273
      0100A4EDH   LINE      CODE     ---       #274
      0100A4EDH   LINE      CODE     ---       #275
      0100A4EDH   LINE      CODE     ---       #276
      0100A4EDH   LINE      CODE     ---       #277
      0100A4EDH   LINE      CODE     ---       #278
      0100A4EDH   LINE      CODE     ---       #279
      0100A4F3H   LINE      CODE     ---       #280
      0100A4F5H   LINE      CODE     ---       #281
      0100A4F5H   LINE      CODE     ---       #282
      0100A4F5H   LINE      CODE     ---       #283
      0100A4F5H   LINE      CODE     ---       #284
      0100A4F5H   LINE      CODE     ---       #285
      0100A4FBH   LINE      CODE     ---       #286
      0100A4FDH   LINE      CODE     ---       #287
      0100A4FDH   LINE      CODE     ---       #288
      0100A51FH   LINE      CODE     ---       #289
      0100A51FH   LINE      CODE     ---       #290
      0100A525H   LINE      CODE     ---       #291
      0100A527H   LINE      CODE     ---       #293
      0100A527H   LINE      CODE     ---       #294
      0100A52DH   LINE      CODE     ---       #295
      0100A52DH   LINE      CODE     ---       #296
      0100A52FH   LINE      CODE     ---       #297
      0100A52FH   LINE      CODE     ---       #298
      0100A538H   LINE      CODE     ---       #299
      0100A53BH   LINE      CODE     ---       #300
      0100A53BH   LINE      CODE     ---       #301
      0100A540H   LINE      CODE     ---       #302
      ---         BLOCKEND  ---      ---       LVL=0

      0100D571H   BLOCK     CODE     ---       LVL=0
      00000006H   SYMBOL    DATA     WORD      var
      00000001H   SYMBOL    DATA     ---       pre_var
LX51 LINKER/LOCATER V4.66.97.0                                                        11/04/2023  11:13:39  PAGE 58


      0100D571H   LINE      CODE     ---       #309
      0100D571H   LINE      CODE     ---       #310
      0100D571H   LINE      CODE     ---       #314
      0100D57AH   LINE      CODE     ---       #315
      0100D57AH   LINE      CODE     ---       #316
      0100D57EH   LINE      CODE     ---       #317
      0100D581H   LINE      CODE     ---       #318
      0100D581H   LINE      CODE     ---       #320
      0100D581H   LINE      CODE     ---       #321
      0100D583H   LINE      CODE     ---       #322
      0100D583H   LINE      CODE     ---       #323
      ---         BLOCKEND  ---      ---       LVL=0

      ---         MODULE    ---      ---       CRC16
      0200CC94H   PUBLIC    XDATA    ---       crctablelo
      0200CB94H   PUBLIC    XDATA    ---       crctablehi
      0100C218H   PUBLIC    CODE     ---       _crc16table
      000000F1H   SFRSYM    DATA     BYTE      ADR_H
      00000080H   SFRSYM    DATA     BYTE      P0
      00000090H   SFRSYM    DATA     BYTE      P1
      000000A0H   SFRSYM    DATA     BYTE      P2
      000000B0H   SFRSYM    DATA     BYTE      P3
      000000F3H   SFRSYM    DATA     BYTE      ADR_L
      000000D0H.6 SFRSYM    DATA     BIT       AC
      000000A0H.6 SFRSYM    DATA     BIT       Red_LED1
      00000094H   SFRSYM    DATA     BYTE      PAGESEL
      000000F2H   SFRSYM    DATA     BYTE      ADR_M
      000000A8H.7 SFRSYM    DATA     BIT       EA
      000000F8H   SFRSYM    DATA     BYTE      RAMMODE
      000000B7H   SFRSYM    DATA     BYTE      P0MDOUT
      000000BCH   SFRSYM    DATA     BYTE      P1MDOUT
      000000A8H   SFRSYM    DATA     BYTE      IEN0
      000000BDH   SFRSYM    DATA     BYTE      P2MDOUT
      000000B8H   SFRSYM    DATA     BYTE      IEN1
      000000BEH   SFRSYM    DATA     BYTE      P3MDOUT
      0000009AH   SFRSYM    DATA     BYTE      IEN2
      000000F8H.4 SFRSYM    DATA     BIT       APP_ACK
      000000F4H   SFRSYM    DATA     BYTE      ADR_INC
      000000B8H.1 SFRSYM    DATA     BIT       ECAN
      000000D0H.7 SFRSYM    DATA     BIT       CY
      000000B8H.3 SFRSYM    DATA     BIT       ES4R
      000000B8H.5 SFRSYM    DATA     BIT       ES5R
      000000B8H.2 SFRSYM    DATA     BIT       ES4T
      000000B8H.4 SFRSYM    DATA     BIT       ES5T
      000000B0H.3 SFRSYM    DATA     BIT       RTC_SDA
      00000081H   SFRSYM    DATA     BYTE      SP
      000000D0H.2 SFRSYM    DATA     BIT       OV
      00000095H   SFRSYM    DATA     BYTE      D_PAGESEL
      000000F8H.7 SFRSYM    DATA     BIT       APP_REQ
      000000B0H.2 SFRSYM    DATA     BIT       RTC_SCL
      000000BFH   SFRSYM    DATA     BYTE      IRCON2
      00000087H   SFRSYM    DATA     BYTE      PCON
      000000BAH   SFRSYM    DATA     BYTE      SREL2H
      000000BBH   SFRSYM    DATA     BYTE      SREL3H
      000000F9H   SFRSYM    DATA     BYTE      PORTDRV
      00000089H   SFRSYM    DATA     BYTE      TMOD
      00000088H   SFRSYM    DATA     BYTE      TCON
      000000AAH   SFRSYM    DATA     BYTE      SREL2L
      0000009DH   SFRSYM    DATA     BYTE      SREL3L
      000000FFH   SFRSYM    DATA     BYTE      EXDATA
      00000097H   SFRSYM    DATA     BYTE      SCON4R
      000000ABH   SFRSYM    DATA     BYTE      SCON5R
      000000D9H   SFRSYM    DATA     BYTE      BODE4_DIV_H
      000000AEH   SFRSYM    DATA     BYTE      BODE5_DIV_H
      00000096H   SFRSYM    DATA     BYTE      SCON4T
LX51 LINKER/LOCATER V4.66.97.0                                                        11/04/2023  11:13:39  PAGE 59


      000000A7H   SFRSYM    DATA     BYTE      SCON5T
      00000088H.1 SFRSYM    DATA     BIT       IE0
      00000088H.3 SFRSYM    DATA     BIT       IE1
      000000C9H   SFRSYM    DATA     BYTE      MUX_SEL
      000000E7H   SFRSYM    DATA     BYTE      BODE4_DIV_L
      000000AFH   SFRSYM    DATA     BYTE      BODE5_DIV_L
      000000F0H   SFRSYM    DATA     BYTE      B
      000000E0H   SFRSYM    DATA     BYTE      ACC
      0000008FH   SFRSYM    DATA     BYTE      CAN_CR
      000000A9H   SFRSYM    DATA     BYTE      IP0
      000000A8H.1 SFRSYM    DATA     BIT       ET0
      000000B9H   SFRSYM    DATA     BYTE      IP1
      000000A8H.3 SFRSYM    DATA     BIT       ET1
      000000A8H.4 SFRSYM    DATA     BIT       ES2
      00000088H.5 SFRSYM    DATA     BIT       TF0
      000000FDH   SFRSYM    DATA     BYTE      DATA0
      000000A8H.5 SFRSYM    DATA     BIT       ET2
      00000088H.7 SFRSYM    DATA     BIT       TF1
      000000E8H   SFRSYM    DATA     BYTE      CAN_ET
      000000FCH   SFRSYM    DATA     BYTE      DATA1
      000000C0H.6 SFRSYM    DATA     BIT       TF2
      0000008CH   SFRSYM    DATA     BYTE      TH0
      000000FBH   SFRSYM    DATA     BYTE      DATA2
      000000A8H.0 SFRSYM    DATA     BIT       EX0
      00000098H.0 SFRSYM    DATA     BIT       RI2
      0000008DH   SFRSYM    DATA     BYTE      TH1
      00000088H.0 SFRSYM    DATA     BIT       IT0
      00000091H   SFRSYM    DATA     BYTE      CAN_IR
      000000FAH   SFRSYM    DATA     BYTE      DATA3
      000000CDH   SFRSYM    DATA     BYTE      TH2
      000000A8H.2 SFRSYM    DATA     BIT       EX1
      00000088H.2 SFRSYM    DATA     BIT       IT1
      000000D0H.0 SFRSYM    DATA     BIT       P
      00000098H.1 SFRSYM    DATA     BIT       TI2
      0000008AH   SFRSYM    DATA     BYTE      TL0
      0000008BH   SFRSYM    DATA     BYTE      TL1
      000000CCH   SFRSYM    DATA     BYTE      TL2
      000000F8H.6 SFRSYM    DATA     BIT       APP_EN
      000000D0H.3 SFRSYM    DATA     BIT       RS0
      000000D0H.4 SFRSYM    DATA     BIT       RS1
      00000088H.4 SFRSYM    DATA     BIT       TR0
      00000093H   SFRSYM    DATA     BYTE      DPC
      00000088H.6 SFRSYM    DATA     BIT       TR1
      000000E5H   SFRSYM    DATA     BYTE      MAC_MODE
      000000C8H.0 SFRSYM    DATA     BIT       TR2
      00000080H.0 SFRSYM    DATA     BIT       TR4
      00000080H.1 SFRSYM    DATA     BIT       TR5
      000000A0H.7 SFRSYM    DATA     BIT       Green_LED2
      00000083H   SFRSYM    DATA     BYTE      DPH
      00000082H   SFRSYM    DATA     BYTE      DPL
      00000099H   SFRSYM    DATA     BYTE      SBUF2
      0000009CH   SFRSYM    DATA     BYTE      SBUF3
      000000D8H   SFRSYM    DATA     BYTE      ADCON
      00000098H   SFRSYM    DATA     BYTE      SCON2
      000000C8H   SFRSYM    DATA     BYTE      T2CON
      0000009BH   SFRSYM    DATA     BYTE      SCON3
      000000E6H   SFRSYM    DATA     BYTE      DIV_MODE
      000000F8H.5 SFRSYM    DATA     BIT       APP_RW
      000000CBH   SFRSYM    DATA     BYTE      TRL2H
      0000008EH   SFRSYM    DATA     BYTE      CKCON
      0000009FH   SFRSYM    DATA     BYTE      SBUF4_RX
      000000ADH   SFRSYM    DATA     BYTE      SBUF5_RX
      000000CAH   SFRSYM    DATA     BYTE      TRL2L
      0000009EH   SFRSYM    DATA     BYTE      SBUF4_TX
      000000ACH   SFRSYM    DATA     BYTE      SBUF5_TX
LX51 LINKER/LOCATER V4.66.97.0                                                        11/04/2023  11:13:39  PAGE 60


      000000FEH   SFRSYM    DATA     BYTE      EXADR
      000000D0H.5 SFRSYM    DATA     BIT       F0
      000000D0H.1 SFRSYM    DATA     BIT       F1
      000000D0H   SFRSYM    DATA     BYTE      PSW
      000000C0H   SFRSYM    DATA     BYTE      IRCON

      0100C218H   BLOCK     CODE     ---       LVL=0
      0200C953H   SYMBOL    XDATA    ---       ptr
      0200C956H   SYMBOL    XDATA    WORD      len
      0100C226H   BLOCK     CODE     NEAR LAB  LVL=1
      00000007H   SYMBOL    DATA     BYTE      crchi
      00000005H   SYMBOL    DATA     BYTE      crclo
      00000002H   SYMBOL    DATA     WORD      index
      ---         BLOCKEND  ---      ---       LVL=1
      0100C218H   LINE      CODE     ---       #57
      0100C226H   LINE      CODE     ---       #58
      0100C226H   LINE      CODE     ---       #59
      0100C228H   LINE      CODE     ---       #60
      0100C22AH   LINE      CODE     ---       #62
      0100C238H   LINE      CODE     ---       #63
      0100C238H   LINE      CODE     ---       #64
      0100C249H   LINE      CODE     ---       #65
      0100C255H   LINE      CODE     ---       #66
      0100C261H   LINE      CODE     ---       #67
      0100C263H   LINE      CODE     ---       #68
      0100C267H   LINE      CODE     ---       #69
      ---         BLOCKEND  ---      ---       LVL=0

      ---         MODULE    ---      ---       I2C
      0200CFB0H   PUBLIC    XDATA    BYTE      Select_rtc
      0100CE0AH   PUBLIC    CODE     ---       Clock
      0100D3CBH   PUBLIC    CODE     ---       Clock_1
      01009781H   PUBLIC    CODE     ---       check_rtc_set
      0100A1ECH   PUBLIC    CODE     ---       _rtc_get_week_1
      0100D667H   PUBLIC    CODE     ---       _BCD
      0100A541H   PUBLIC    CODE     ---       rdtime
      0100A867H   PUBLIC    CODE     ---       _rtc_config
      0100A310H   PUBLIC    CODE     ---       init_rtc_1
      0100D03CH   PUBLIC    CODE     ---       i2cbr
      0100C7C3H   PUBLIC    CODE     ---       _i2cbw
      0100D117H   PUBLIC    CODE     ---       cack
      0100D5F0H   PUBLIC    CODE     ---       mnak
      0100D5A8H   PUBLIC    CODE     ---       mack
      0100D272H   PUBLIC    CODE     ---       i2cstop
      0100D3B1H   PUBLIC    CODE     ---       i2cstart
      0100CFD1H   PUBLIC    CODE     ---       _delayus
      0100826BH   PUBLIC    CODE     ---       RTC_Set_Time
      0100BD6BH   PUBLIC    CODE     ---       Init_Rtc
      01009BA2H   PUBLIC    CODE     ---       Read_Time
      01008165H   PUBLIC    CODE     ---       _RTC_Get_Week
      0100CEC7H   PUBLIC    CODE     ---       Rx8130_Read_Byte
      0100AF93H   PUBLIC    CODE     ---       _Rx8130_Writ_Byte
      0100D0F4H   PUBLIC    CODE     ---       Rx8130_Cack
      0100D63CH   PUBLIC    CODE     ---       Rx8130_Mnak
      0100D5E3H   PUBLIC    CODE     ---       Rx8130_Mack
      0100D1B1H   PUBLIC    CODE     ---       Rx8130_Stop
      0100D535H   PUBLIC    CODE     ---       Rx8130_Start
      0100005EH   PUBLIC    CODE     ---       SDA_OUT
      01000056H   PUBLIC    CODE     ---       SDA_IN
      0100D4E4H   PUBLIC    CODE     ---       Delayus
      000000F1H   SFRSYM    DATA     BYTE      ADR_H
      00000080H   SFRSYM    DATA     BYTE      P0
      00000090H   SFRSYM    DATA     BYTE      P1
      000000A0H   SFRSYM    DATA     BYTE      P2
      000000B0H   SFRSYM    DATA     BYTE      P3
LX51 LINKER/LOCATER V4.66.97.0                                                        11/04/2023  11:13:39  PAGE 61


      000000F3H   SFRSYM    DATA     BYTE      ADR_L
      000000D0H.6 SFRSYM    DATA     BIT       AC
      000000A0H.6 SFRSYM    DATA     BIT       Red_LED1
      00000094H   SFRSYM    DATA     BYTE      PAGESEL
      000000F2H   SFRSYM    DATA     BYTE      ADR_M
      000000A8H.7 SFRSYM    DATA     BIT       EA
      000000F8H   SFRSYM    DATA     BYTE      RAMMODE
      000000B7H   SFRSYM    DATA     BYTE      P0MDOUT
      000000BCH   SFRSYM    DATA     BYTE      P1MDOUT
      000000A8H   SFRSYM    DATA     BYTE      IEN0
      000000BDH   SFRSYM    DATA     BYTE      P2MDOUT
      000000B8H   SFRSYM    DATA     BYTE      IEN1
      000000BEH   SFRSYM    DATA     BYTE      P3MDOUT
      0000009AH   SFRSYM    DATA     BYTE      IEN2
      000000F8H.4 SFRSYM    DATA     BIT       APP_ACK
      000000F4H   SFRSYM    DATA     BYTE      ADR_INC
      000000B8H.1 SFRSYM    DATA     BIT       ECAN
      000000D0H.7 SFRSYM    DATA     BIT       CY
      000000B8H.3 SFRSYM    DATA     BIT       ES4R
      000000B8H.5 SFRSYM    DATA     BIT       ES5R
      000000B8H.2 SFRSYM    DATA     BIT       ES4T
      000000B8H.4 SFRSYM    DATA     BIT       ES5T
      000000B0H.3 SFRSYM    DATA     BIT       RTC_SDA
      00000081H   SFRSYM    DATA     BYTE      SP
      000000D0H.2 SFRSYM    DATA     BIT       OV
      00000095H   SFRSYM    DATA     BYTE      D_PAGESEL
      000000F8H.7 SFRSYM    DATA     BIT       APP_REQ
      000000B0H.2 SFRSYM    DATA     BIT       RTC_SCL
      000000BFH   SFRSYM    DATA     BYTE      IRCON2
      00000087H   SFRSYM    DATA     BYTE      PCON
      000000BAH   SFRSYM    DATA     BYTE      SREL2H
      000000BBH   SFRSYM    DATA     BYTE      SREL3H
      000000F9H   SFRSYM    DATA     BYTE      PORTDRV
      00000089H   SFRSYM    DATA     BYTE      TMOD
      00000088H   SFRSYM    DATA     BYTE      TCON
      000000AAH   SFRSYM    DATA     BYTE      SREL2L
      0000009DH   SFRSYM    DATA     BYTE      SREL3L
      000000FFH   SFRSYM    DATA     BYTE      EXDATA
      00000097H   SFRSYM    DATA     BYTE      SCON4R
      000000ABH   SFRSYM    DATA     BYTE      SCON5R
      000000D9H   SFRSYM    DATA     BYTE      BODE4_DIV_H
      000000AEH   SFRSYM    DATA     BYTE      BODE5_DIV_H
      00000096H   SFRSYM    DATA     BYTE      SCON4T
      000000A7H   SFRSYM    DATA     BYTE      SCON5T
      00000088H.1 SFRSYM    DATA     BIT       IE0
      00000088H.3 SFRSYM    DATA     BIT       IE1
      000000C9H   SFRSYM    DATA     BYTE      MUX_SEL
      000000E7H   SFRSYM    DATA     BYTE      BODE4_DIV_L
      000000AFH   SFRSYM    DATA     BYTE      BODE5_DIV_L
      000000F0H   SFRSYM    DATA     BYTE      B
      000000E0H   SFRSYM    DATA     BYTE      ACC
      0000008FH   SFRSYM    DATA     BYTE      CAN_CR
      000000A9H   SFRSYM    DATA     BYTE      IP0
      000000A8H.1 SFRSYM    DATA     BIT       ET0
      000000B9H   SFRSYM    DATA     BYTE      IP1
      000000A8H.3 SFRSYM    DATA     BIT       ET1
      000000A8H.4 SFRSYM    DATA     BIT       ES2
      00000088H.5 SFRSYM    DATA     BIT       TF0
      000000FDH   SFRSYM    DATA     BYTE      DATA0
      000000A8H.5 SFRSYM    DATA     BIT       ET2
      00000088H.7 SFRSYM    DATA     BIT       TF1
      000000E8H   SFRSYM    DATA     BYTE      CAN_ET
      000000FCH   SFRSYM    DATA     BYTE      DATA1
      000000C0H.6 SFRSYM    DATA     BIT       TF2
      0000008CH   SFRSYM    DATA     BYTE      TH0
LX51 LINKER/LOCATER V4.66.97.0                                                        11/04/2023  11:13:39  PAGE 62


      000000FBH   SFRSYM    DATA     BYTE      DATA2
      000000A8H.0 SFRSYM    DATA     BIT       EX0
      00000098H.0 SFRSYM    DATA     BIT       RI2
      0000008DH   SFRSYM    DATA     BYTE      TH1
      00000088H.0 SFRSYM    DATA     BIT       IT0
      00000091H   SFRSYM    DATA     BYTE      CAN_IR
      000000FAH   SFRSYM    DATA     BYTE      DATA3
      000000CDH   SFRSYM    DATA     BYTE      TH2
      000000A8H.2 SFRSYM    DATA     BIT       EX1
      00000088H.2 SFRSYM    DATA     BIT       IT1
      000000D0H.0 SFRSYM    DATA     BIT       P
      00000098H.1 SFRSYM    DATA     BIT       TI2
      0000008AH   SFRSYM    DATA     BYTE      TL0
      0000008BH   SFRSYM    DATA     BYTE      TL1
      000000CCH   SFRSYM    DATA     BYTE      TL2
      000000F8H.6 SFRSYM    DATA     BIT       APP_EN
      000000D0H.3 SFRSYM    DATA     BIT       RS0
      000000D0H.4 SFRSYM    DATA     BIT       RS1
      00000088H.4 SFRSYM    DATA     BIT       TR0
      00000093H   SFRSYM    DATA     BYTE      DPC
      00000088H.6 SFRSYM    DATA     BIT       TR1
      000000E5H   SFRSYM    DATA     BYTE      MAC_MODE
      000000C8H.0 SFRSYM    DATA     BIT       TR2
      00000080H.0 SFRSYM    DATA     BIT       TR4
      00000080H.1 SFRSYM    DATA     BIT       TR5
      000000A0H.7 SFRSYM    DATA     BIT       Green_LED2
      00000083H   SFRSYM    DATA     BYTE      DPH
      00000082H   SFRSYM    DATA     BYTE      DPL
      00000099H   SFRSYM    DATA     BYTE      SBUF2
      0000009CH   SFRSYM    DATA     BYTE      SBUF3
      000000D8H   SFRSYM    DATA     BYTE      ADCON
      00000098H   SFRSYM    DATA     BYTE      SCON2
      000000C8H   SFRSYM    DATA     BYTE      T2CON
      0000009BH   SFRSYM    DATA     BYTE      SCON3
      000000E6H   SFRSYM    DATA     BYTE      DIV_MODE
      000000F8H.5 SFRSYM    DATA     BIT       APP_RW
      000000CBH   SFRSYM    DATA     BYTE      TRL2H
      0000008EH   SFRSYM    DATA     BYTE      CKCON
      0000009FH   SFRSYM    DATA     BYTE      SBUF4_RX
      000000ADH   SFRSYM    DATA     BYTE      SBUF5_RX
      000000CAH   SFRSYM    DATA     BYTE      TRL2L
      0000009EH   SFRSYM    DATA     BYTE      SBUF4_TX
      000000ACH   SFRSYM    DATA     BYTE      SBUF5_TX
      000000FEH   SFRSYM    DATA     BYTE      EXADR
      000000D0H.5 SFRSYM    DATA     BIT       F0
      000000D0H.1 SFRSYM    DATA     BIT       F1
      000000D0H   SFRSYM    DATA     BYTE      PSW
      000000C0H   SFRSYM    DATA     BYTE      IRCON
      0100F1F3H   SYMBOL    CONST    ---       _?ix1000
      0100F1FBH   SYMBOL    CONST    ---       _?ix1001

      0100856CH   BLOCK     CODE     ---       LVL=0
      ---         BLOCKEND  ---      ---       LVL=0

      0100D4DDH   BLOCK     CODE     ---       LVL=0
      ---         BLOCKEND  ---      ---       LVL=0

      0100D4E4H   BLOCK     CODE     ---       LVL=0
      00000007H   SYMBOL    DATA     BYTE      i
      0100D4E4H   BLOCK     CODE     NEAR LAB  LVL=1
      00000007H   SYMBOL    DATA     BYTE      i
      ---         BLOCKEND  ---      ---       LVL=1
      0100D4E4H   LINE      CODE     ---       #16
      0100D4E4H   LINE      CODE     ---       #17
      0100D4E4H   LINE      CODE     ---       #19
LX51 LINKER/LOCATER V4.66.97.0                                                        11/04/2023  11:13:39  PAGE 63


      0100D4F3H   LINE      CODE     ---       #21
      ---         BLOCKEND  ---      ---       LVL=0

      01000056H   BLOCK     CODE     ---       LVL=0
      01000056H   LINE      CODE     ---       #23
      ---         BLOCKEND  ---      ---       LVL=0

      0100005EH   BLOCK     CODE     ---       LVL=0
      0100005EH   LINE      CODE     ---       #25
      ---         BLOCKEND  ---      ---       LVL=0

      0100D535H   BLOCK     CODE     ---       LVL=0
      0100D535H   LINE      CODE     ---       #27
      0100D535H   LINE      CODE     ---       #28
      0100D535H   LINE      CODE     ---       #29
      0100D538H   LINE      CODE     ---       #30
      0100D53AH   LINE      CODE     ---       #31
      0100D53CH   LINE      CODE     ---       #32
      0100D53FH   LINE      CODE     ---       #33
      0100D541H   LINE      CODE     ---       #34
      0100D544H   LINE      CODE     ---       #35
      0100D546H   LINE      CODE     ---       #36
      ---         BLOCKEND  ---      ---       LVL=0

      0100D1A2H   BLOCK     CODE     ---       LVL=0
      ---         BLOCKEND  ---      ---       LVL=0

      0100D1B1H   BLOCK     CODE     ---       LVL=0
      0100D1B1H   LINE      CODE     ---       #39
      0100D1B1H   LINE      CODE     ---       #40
      0100D1B1H   LINE      CODE     ---       #41
      0100D1B4H   LINE      CODE     ---       #42
      0100D1B6H   LINE      CODE     ---       #43
      0100D1B8H   LINE      CODE     ---       #44
      0100D1BBH   LINE      CODE     ---       #45
      0100D1BDH   LINE      CODE     ---       #46
      0100D1C0H   LINE      CODE     ---       #47
      ---         BLOCKEND  ---      ---       LVL=0

      0100D5E3H   BLOCK     CODE     ---       LVL=0
      0100D5E3H   LINE      CODE     ---       #50
      0100D5E3H   LINE      CODE     ---       #51
      0100D5E3H   LINE      CODE     ---       #52
      0100D5E6H   LINE      CODE     ---       #53
      0100D5E8H   LINE      CODE     ---       #54
      0100D5E8H   LINE      CODE     ---       #55
      0100D5E8H   LINE      CODE     ---       #56
      0100D5EBH   LINE      CODE     ---       #57
      0100D5EDH   LINE      CODE     ---       #58
      ---         BLOCKEND  ---      ---       LVL=0

      0100D63CH   BLOCK     CODE     ---       LVL=0
      0100D63CH   LINE      CODE     ---       #61
      0100D63CH   LINE      CODE     ---       #62
      0100D63CH   LINE      CODE     ---       #63
      0100D63FH   LINE      CODE     ---       #64
      0100D63FH   LINE      CODE     ---       #65
      0100D63FH   LINE      CODE     ---       #66
      0100D63FH   LINE      CODE     ---       #67
      0100D642H   LINE      CODE     ---       #68
      0100D644H   LINE      CODE     ---       #69
      ---         BLOCKEND  ---      ---       LVL=0

      0100D0F4H   BLOCK     CODE     ---       LVL=0
      0100D0F4H   BLOCK     CODE     NEAR LAB  LVL=1
LX51 LINKER/LOCATER V4.66.97.0                                                        11/04/2023  11:13:39  PAGE 64


      00000006H   SYMBOL    DATA     BYTE      i
      ---         BLOCKEND  ---      ---       LVL=1
      0100D0F4H   LINE      CODE     ---       #72
      0100D0F4H   LINE      CODE     ---       #73
      0100D0F4H   LINE      CODE     ---       #75
      0100D0F7H   LINE      CODE     ---       #76
      0100D0F7H   LINE      CODE     ---       #77
      0100D0F7H   LINE      CODE     ---       #78
      0100D0F7H   LINE      CODE     ---       #79
      0100D0FAH   LINE      CODE     ---       #80
      0100D106H   LINE      CODE     ---       #81
      0100D106H   LINE      CODE     ---       #82
      0100D109H   LINE      CODE     ---       #83
      0100D109H   LINE      CODE     ---       #84
      0100D10CH   LINE      CODE     ---       #85
      0100D10FH   LINE      CODE     ---       #86
      0100D111H   LINE      CODE     ---       #87
      0100D114H   LINE      CODE     ---       #88
      ---         BLOCKEND  ---      ---       LVL=0

      0100AF55H   BLOCK     CODE     ---       LVL=0
      ---         BLOCKEND  ---      ---       LVL=0

      0100AF93H   BLOCK     CODE     ---       LVL=0
      00000006H   SYMBOL    DATA     BYTE      dat
      00000005H   SYMBOL    DATA     BYTE      i
      0100AF95H   BLOCK     CODE     NEAR LAB  LVL=1
      00000005H   SYMBOL    DATA     BYTE      i
      ---         BLOCKEND  ---      ---       LVL=1
      0100AF93H   LINE      CODE     ---       #91
      0100AF95H   LINE      CODE     ---       #92
      0100AF95H   LINE      CODE     ---       #94
      0100AF98H   LINE      CODE     ---       #95
      0100AFA4H   LINE      CODE     ---       #96
      0100AFA4H   LINE      CODE     ---       #97
      0100AFA8H   LINE      CODE     ---       #98
      0100AFACH   LINE      CODE     ---       #100
      0100AFAEH   LINE      CODE     ---       #101
      0100AFB2H   LINE      CODE     ---       #102
      0100AFB2H   LINE      CODE     ---       #103
      0100AFB2H   LINE      CODE     ---       #104
      0100AFB5H   LINE      CODE     ---       #105
      0100AFB7H   LINE      CODE     ---       #106
      0100AFBAH   LINE      CODE     ---       #107
      0100AFBDH   LINE      CODE     ---       #108
      ---         BLOCKEND  ---      ---       LVL=0

      0100CEC7H   BLOCK     CODE     ---       LVL=0
      0100CEC7H   BLOCK     CODE     NEAR LAB  LVL=1
      00000005H   SYMBOL    DATA     BYTE      i
      00000006H   SYMBOL    DATA     BYTE      Dat
      ---         BLOCKEND  ---      ---       LVL=1
      0100CEC7H   LINE      CODE     ---       #111
      0100CEC7H   LINE      CODE     ---       #112
      0100CEC7H   LINE      CODE     ---       #115
      0100CECAH   LINE      CODE     ---       #116
      0100CED6H   LINE      CODE     ---       #117
      0100CED6H   LINE      CODE     ---       #118
      0100CED6H   LINE      CODE     ---       #119
      0100CED6H   LINE      CODE     ---       #120
      0100CED9H   LINE      CODE     ---       #121
      0100CEDDH   LINE      CODE     ---       #122
      0100CEE0H   LINE      CODE     ---       #123
      0100CEE5H   LINE      CODE     ---       #125
      0100CEE9H   LINE      CODE     ---       #126
LX51 LINKER/LOCATER V4.66.97.0                                                        11/04/2023  11:13:39  PAGE 65


      0100CEEBH   LINE      CODE     ---       #127
      0100CEEEH   LINE      CODE     ---       #128
      0100CEF1H   LINE      CODE     ---       #129
      0100CEF3H   LINE      CODE     ---       #130
      ---         BLOCKEND  ---      ---       LVL=0

      01008165H   BLOCK     CODE     ---       LVL=0
      00000007H   SYMBOL    DATA     BYTE      years
      0200C844H   SYMBOL    XDATA    BYTE      month
      0200C845H   SYMBOL    XDATA    BYTE      day
      0100816FH   BLOCK     CODE     NEAR LAB  LVL=1
      0200C846H   SYMBOL    XDATA    BYTE      weak
      0200C847H   SYMBOL    XDATA    WORD      year
      ---         BLOCKEND  ---      ---       LVL=1
      01008165H   LINE      CODE     ---       #132
      0100816FH   LINE      CODE     ---       #133
      0100816FH   LINE      CODE     ---       #136
      0100817DH   LINE      CODE     ---       #137
      01008188H   LINE      CODE     ---       #138
      01008188H   LINE      CODE     ---       #139
      01008199H   LINE      CODE     ---       #140
      01008199H   LINE      CODE     ---       #141
      010081D4H   LINE      CODE     ---       #142
      010081D4H   LINE      CODE     ---       #143
      01008205H   LINE      CODE     ---       #144
      01008207H   LINE      CODE     ---       #146
      01008207H   LINE      CODE     ---       #147
      01008265H   LINE      CODE     ---       #148
      01008265H   LINE      CODE     ---       #149
      0100826AH   LINE      CODE     ---       #150
      ---         BLOCKEND  ---      ---       LVL=0

      01009BA2H   BLOCK     CODE     ---       LVL=0
      01009BA2H   BLOCK     CODE     NEAR LAB  LVL=1
      00000004H   SYMBOL    DATA     BYTE      i
      0200C83AH   SYMBOL    XDATA    BYTE      N
      0200C83BH   SYMBOL    XDATA    BYTE      M
      0200C83CH   SYMBOL    XDATA    ---       Rtcdata
      ---         BLOCKEND  ---      ---       LVL=1
      01009BA2H   LINE      CODE     ---       #152
      01009BA2H   LINE      CODE     ---       #153
      01009BA2H   LINE      CODE     ---       #155
      01009BB5H   LINE      CODE     ---       #156
      01009BB5H   LINE      CODE     ---       #157
      01009BB8H   LINE      CODE     ---       #158
      01009BB8H   LINE      CODE     ---       #159
      01009BBBH   LINE      CODE     ---       #160
      01009BBEH   LINE      CODE     ---       #161
      01009BC3H   LINE      CODE     ---       #162
      01009BCFH   LINE      CODE     ---       #163
      01009BCFH   LINE      CODE     ---       #164
      01009BD5H   LINE      CODE     ---       #165
      01009BD8H   LINE      CODE     ---       #166
      01009BDBH   LINE      CODE     ---       #167
      01009BE3H   LINE      CODE     ---       #168
      01009BE6H   LINE      CODE     ---       #169
      01009BE9H   LINE      CODE     ---       #170
      01009BF1H   LINE      CODE     ---       #171
      01009BF1H   LINE      CODE     ---       #172
      01009BF1H   LINE      CODE     ---       #173
      01009BF1H   LINE      CODE     ---       #174
      01009BF7H   LINE      CODE     ---       #175
      01009BFAH   LINE      CODE     ---       #176
      01009C06H   LINE      CODE     ---       #177
      01009C06H   LINE      CODE     ---       #178
LX51 LINKER/LOCATER V4.66.97.0                                                        11/04/2023  11:13:39  PAGE 66


      01009C06H   LINE      CODE     ---       #179
      01009C06H   LINE      CODE     ---       #180
      01009C0CH   LINE      CODE     ---       #181
      01009C0FH   LINE      CODE     ---       #182
      01009C22H   LINE      CODE     ---       #183
      01009C2DH   LINE      CODE     ---       #184
      01009C38H   LINE      CODE     ---       #185
      01009C43H   LINE      CODE     ---       #186
      ---         BLOCKEND  ---      ---       LVL=0

      0100BD6BH   BLOCK     CODE     ---       LVL=0
      0100BD6BH   BLOCK     CODE     NEAR LAB  LVL=1
      00000004H   SYMBOL    DATA     BYTE      i
      ---         BLOCKEND  ---      ---       LVL=1
      0100BD6BH   LINE      CODE     ---       #189
      0100BD6BH   LINE      CODE     ---       #190
      0100BD6BH   LINE      CODE     ---       #192
      0100BD6BH   LINE      CODE     ---       #193
      0100BD6EH   LINE      CODE     ---       #194
      0100BD73H   LINE      CODE     ---       #195
      0100BD76H   LINE      CODE     ---       #196
      0100BD79H   LINE      CODE     ---       #197
      0100BD7EH   LINE      CODE     ---       #198
      0100BD83H   LINE      CODE     ---       #199
      0100BD86H   LINE      CODE     ---       #200
      0100BD89H   LINE      CODE     ---       #201
      0100BD8CH   LINE      CODE     ---       #202
      0100BD8FH   LINE      CODE     ---       #203
      0100BD96H   LINE      CODE     ---       #204
      0100BD96H   LINE      CODE     ---       #206
      0100BD96H   LINE      CODE     ---       #207
      0100BD96H   LINE      CODE     ---       #208
      0100BD96H   LINE      CODE     ---       #209
      0100BD96H   LINE      CODE     ---       #210
      0100BD96H   LINE      CODE     ---       #211
      0100BD96H   LINE      CODE     ---       #212
      0100BD96H   LINE      CODE     ---       #213
      0100BD96H   LINE      CODE     ---       #214
      0100BD96H   LINE      CODE     ---       #215
      0100BD96H   LINE      CODE     ---       #216
      0100BD96H   LINE      CODE     ---       #217
      0100BD96H   LINE      CODE     ---       #218
      0100BD96H   LINE      CODE     ---       #219
      0100BD96H   LINE      CODE     ---       #220
      0100BD99H   LINE      CODE     ---       #221
      0100BD9EH   LINE      CODE     ---       #222
      0100BDA3H   LINE      CODE     ---       #223
      0100BDA8H   LINE      CODE     ---       #224
      0100BDADH   LINE      CODE     ---       #225
      0100BDB2H   LINE      CODE     ---       #226
      0100BDB7H   LINE      CODE     ---       #227
      0100BDBCH   LINE      CODE     ---       #228
      0100BDBEH   LINE      CODE     ---       #229
      0100BDBEH   LINE      CODE     ---       #230
      0100BDBEH   LINE      CODE     ---       #231
      0100BDC1H   LINE      CODE     ---       #232
      0100BDC1H   LINE      CODE     ---       #233
      0100BDC1H   LINE      CODE     ---       #234
      0100BDC1H   LINE      CODE     ---       #235
      0100BDC4H   LINE      CODE     ---       #236
      0100BDC4H   LINE      CODE     ---       #237
      ---         BLOCKEND  ---      ---       LVL=0

      0100826BH   BLOCK     CODE     ---       LVL=0
      0100826BH   BLOCK     CODE     NEAR LAB  LVL=1
LX51 LINKER/LOCATER V4.66.97.0                                                        11/04/2023  11:13:39  PAGE 67


      00000006H   SYMBOL    DATA     WORD      Va
      0100827FH   BLOCK     CODE     NEAR LAB  LVL=2
      0200C83AH   SYMBOL    XDATA    BYTE      N
      0200C83BH   SYMBOL    XDATA    BYTE      S
      00000020H.1 SYMBOL    BIT      BIT       Flog
      0200C83CH   SYMBOL    XDATA    ---       TimeS
      0200C843H   SYMBOL    XDATA    WORD      V1
      ---         BLOCKEND  ---      ---       LVL=2
      ---         BLOCKEND  ---      ---       LVL=1
      0100826BH   LINE      CODE     ---       #239
      0100826BH   LINE      CODE     ---       #240
      0100826BH   LINE      CODE     ---       #241
      01008272H   LINE      CODE     ---       #242
      0100827FH   LINE      CODE     ---       #243
      0100827FH   LINE      CODE     ---       #244
      01008285H   LINE      CODE     ---       #245
      01008287H   LINE      CODE     ---       #246
      01008299H   LINE      CODE     ---       #247
      0100829BH   LINE      CODE     ---       #248
      0100829BH   LINE      CODE     ---       #249
      010082A1H   LINE      CODE     ---       #250
      010082A1H   LINE      CODE     ---       #251
      010082ABH   LINE      CODE     ---       #252
      010082ADH   LINE      CODE     ---       #253
      010082ADH   LINE      CODE     ---       #254
      010082B3H   LINE      CODE     ---       #255
      010082B3H   LINE      CODE     ---       #256
      010082BDH   LINE      CODE     ---       #257
      010082CCH   LINE      CODE     ---       #258
      010082D8H   LINE      CODE     ---       #259
      010082E1H   LINE      CODE     ---       #260
      010082E1H   LINE      CODE     ---       #261
      010082EBH   LINE      CODE     ---       #264
      010082F4H   LINE      CODE     ---       #265
      010082F7H   LINE      CODE     ---       #266
      010082F7H   LINE      CODE     ---       #267
      010082F7H   LINE      CODE     ---       #268
      010082F7H   LINE      CODE     ---       #269
      010082F7H   LINE      CODE     ---       #270
      010082F7H   LINE      CODE     ---       #271
      010082F7H   LINE      CODE     ---       #272
      010082F7H   LINE      CODE     ---       #273
      010082F7H   LINE      CODE     ---       #274
      010082F7H   LINE      CODE     ---       #275
      010082F7H   LINE      CODE     ---       #276
      010082F7H   LINE      CODE     ---       #277
      010082F7H   LINE      CODE     ---       #278
      010082F7H   LINE      CODE     ---       #279
      010082F7H   LINE      CODE     ---       #280
      010082F7H   LINE      CODE     ---       #281
      010082FAH   LINE      CODE     ---       #282
      010082FFH   LINE      CODE     ---       #283
      01008307H   LINE      CODE     ---       #284
      0100830FH   LINE      CODE     ---       #285
      01008317H   LINE      CODE     ---       #286
      0100831FH   LINE      CODE     ---       #287
      01008327H   LINE      CODE     ---       #288
      0100832FH   LINE      CODE     ---       #289
      01008334H   LINE      CODE     ---       #290
      01008334H   LINE      CODE     ---       #291
      01008334H   LINE      CODE     ---       #292
      01008337H   LINE      CODE     ---       #293
      01008337H   LINE      CODE     ---       #294
      01008337H   LINE      CODE     ---       #295
      01008337H   LINE      CODE     ---       #296
LX51 LINKER/LOCATER V4.66.97.0                                                        11/04/2023  11:13:39  PAGE 68


      0100833AH   LINE      CODE     ---       #297
      0100833CH   LINE      CODE     ---       #298
      0100833EH   LINE      CODE     ---       #299
      0100833EH   LINE      CODE     ---       #300
      ---         BLOCKEND  ---      ---       LVL=0

      0100CFC6H   BLOCK     CODE     ---       LVL=0
      ---         BLOCKEND  ---      ---       LVL=0

      0100CFD1H   BLOCK     CODE     ---       LVL=0
      00000007H   SYMBOL    DATA     BYTE      t
      00000006H   SYMBOL    DATA     CHAR      i
      0100CFD1H   BLOCK     CODE     NEAR LAB  LVL=1
      00000006H   SYMBOL    DATA     CHAR      i
      ---         BLOCKEND  ---      ---       LVL=1
      0100CFD1H   LINE      CODE     ---       #304
      0100CFD1H   LINE      CODE     ---       #305
      0100CFD1H   LINE      CODE     ---       #307
      0100CFD4H   LINE      CODE     ---       #308
      0100CFD4H   LINE      CODE     ---       #309
      0100CFE7H   LINE      CODE     ---       #310
      0100CFE7H   LINE      CODE     ---       #311
      0100CFE7H   LINE      CODE     ---       #312
      0100CFEAH   LINE      CODE     ---       #313
      0100CFEBH   LINE      CODE     ---       #314
      0100CFEDH   LINE      CODE     ---       #315
      ---         BLOCKEND  ---      ---       LVL=0

      0100D3B1H   BLOCK     CODE     ---       LVL=0
      0100D3B1H   LINE      CODE     ---       #327
      0100D3B1H   LINE      CODE     ---       #328
      0100D3B1H   LINE      CODE     ---       #329
      0100D3B4H   LINE      CODE     ---       #330
      0100D3B6H   LINE      CODE     ---       #331
      0100D3B8H   LINE      CODE     ---       #332
      0100D3BDH   LINE      CODE     ---       #333
      0100D3BFH   LINE      CODE     ---       #334
      0100D3C4H   LINE      CODE     ---       #335
      0100D3C6H   LINE      CODE     ---       #336
      ---         BLOCKEND  ---      ---       LVL=0

      0100D268H   BLOCK     CODE     ---       LVL=0
      ---         BLOCKEND  ---      ---       LVL=0

      0100D272H   BLOCK     CODE     ---       LVL=0
      0100D272H   LINE      CODE     ---       #339
      0100D272H   LINE      CODE     ---       #340
      0100D272H   LINE      CODE     ---       #341
      0100D275H   LINE      CODE     ---       #342
      0100D277H   LINE      CODE     ---       #343
      0100D279H   LINE      CODE     ---       #344
      0100D27EH   LINE      CODE     ---       #345
      0100D280H   LINE      CODE     ---       #346
      0100D285H   LINE      CODE     ---       #347
      ---         BLOCKEND  ---      ---       LVL=0

      0100D5A8H   BLOCK     CODE     ---       LVL=0
      0100D5A8H   LINE      CODE     ---       #350
      0100D5A8H   LINE      CODE     ---       #351
      0100D5A8H   LINE      CODE     ---       #352
      0100D5ABH   LINE      CODE     ---       #353
      0100D5ADH   LINE      CODE     ---       #354
      0100D5ADH   LINE      CODE     ---       #355
      0100D5ADH   LINE      CODE     ---       #356
      0100D5B0H   LINE      CODE     ---       #357
LX51 LINKER/LOCATER V4.66.97.0                                                        11/04/2023  11:13:39  PAGE 69


      0100D5B2H   LINE      CODE     ---       #358
      ---         BLOCKEND  ---      ---       LVL=0

      0100D5F0H   BLOCK     CODE     ---       LVL=0
      0100D5F0H   LINE      CODE     ---       #361
      0100D5F0H   LINE      CODE     ---       #362
      0100D5F0H   LINE      CODE     ---       #363
      0100D5F3H   LINE      CODE     ---       #364
      0100D5F3H   LINE      CODE     ---       #365
      0100D5F3H   LINE      CODE     ---       #366
      0100D5F3H   LINE      CODE     ---       #367
      0100D5F6H   LINE      CODE     ---       #368
      0100D5F8H   LINE      CODE     ---       #369
      ---         BLOCKEND  ---      ---       LVL=0

      0100D117H   BLOCK     CODE     ---       LVL=0
      0100D117H   BLOCK     CODE     NEAR LAB  LVL=1
      00000003H   SYMBOL    DATA     BYTE      i
      ---         BLOCKEND  ---      ---       LVL=1
      0100D117H   LINE      CODE     ---       #372
      0100D117H   LINE      CODE     ---       #373
      0100D117H   LINE      CODE     ---       #375
      0100D11AH   LINE      CODE     ---       #376
      0100D11AH   LINE      CODE     ---       #377
      0100D11AH   LINE      CODE     ---       #378
      0100D11AH   LINE      CODE     ---       #379
      0100D11DH   LINE      CODE     ---       #380
      0100D129H   LINE      CODE     ---       #381
      0100D129H   LINE      CODE     ---       #382
      0100D12CH   LINE      CODE     ---       #383
      0100D12CH   LINE      CODE     ---       #384
      0100D12CH   LINE      CODE     ---       #385
      0100D12CH   LINE      CODE     ---       #386
      0100D131H   LINE      CODE     ---       #387
      0100D134H   LINE      CODE     ---       #388
      0100D134H   LINE      CODE     ---       #389
      0100D137H   LINE      CODE     ---       #390
      ---         BLOCKEND  ---      ---       LVL=0

      0100C7A5H   BLOCK     CODE     ---       LVL=0
      ---         BLOCKEND  ---      ---       LVL=0

      0100C7C3H   BLOCK     CODE     ---       LVL=0
      00000003H   SYMBOL    DATA     BYTE      dat
      00000002H   SYMBOL    DATA     CHAR      i
      0100C7C5H   BLOCK     CODE     NEAR LAB  LVL=1
      00000002H   SYMBOL    DATA     CHAR      i
      ---         BLOCKEND  ---      ---       LVL=1
      0100C7C3H   LINE      CODE     ---       #394
      0100C7C5H   LINE      CODE     ---       #395
      0100C7C5H   LINE      CODE     ---       #397
      0100C7C8H   LINE      CODE     ---       #398
      0100C7CFH   LINE      CODE     ---       #399
      0100C7CFH   LINE      CODE     ---       #400
      0100C7D3H   LINE      CODE     ---       #401
      0100C7D3H   LINE      CODE     ---       #402
      0100C7D5H   LINE      CODE     ---       #403
      0100C7D7H   LINE      CODE     ---       #405
      0100C7D7H   LINE      CODE     ---       #406
      0100C7D9H   LINE      CODE     ---       #407
      0100C7D9H   LINE      CODE     ---       #408
      0100C7DDH   LINE      CODE     ---       #409
      0100C7DDH   LINE      CODE     ---       #410
      0100C7DDH   LINE      CODE     ---       #411
      0100C7E0H   LINE      CODE     ---       #412
LX51 LINKER/LOCATER V4.66.97.0                                                        11/04/2023  11:13:39  PAGE 70


      0100C7E0H   LINE      CODE     ---       #413
      0100C7E3H   LINE      CODE     ---       #414
      0100C7E6H   LINE      CODE     ---       #415
      ---         BLOCKEND  ---      ---       LVL=0

      0100D03CH   BLOCK     CODE     ---       LVL=0
      0100D03CH   BLOCK     CODE     NEAR LAB  LVL=1
      00000002H   SYMBOL    DATA     CHAR      i
      00000003H   SYMBOL    DATA     BYTE      dat
      ---         BLOCKEND  ---      ---       LVL=1
      0100D03CH   LINE      CODE     ---       #419
      0100D03CH   LINE      CODE     ---       #420
      0100D03CH   LINE      CODE     ---       #423
      0100D03FH   LINE      CODE     ---       #424
      0100D046H   LINE      CODE     ---       #425
      0100D046H   LINE      CODE     ---       #426
      0100D046H   LINE      CODE     ---       #427
      0100D046H   LINE      CODE     ---       #428
      0100D049H   LINE      CODE     ---       #429
      0100D04DH   LINE      CODE     ---       #430
      0100D050H   LINE      CODE     ---       #431
      0100D050H   LINE      CODE     ---       #432
      0100D053H   LINE      CODE     ---       #433
      0100D055H   LINE      CODE     ---       #435
      0100D055H   LINE      CODE     ---       #436
      0100D059H   LINE      CODE     ---       #437
      0100D059H   LINE      CODE     ---       #439
      0100D059H   LINE      CODE     ---       #440
      0100D05CH   LINE      CODE     ---       #441
      0100D05FH   LINE      CODE     ---       #442
      0100D061H   LINE      CODE     ---       #443
      ---         BLOCKEND  ---      ---       LVL=0

      0100A310H   BLOCK     CODE     ---       LVL=0
      0100A310H   BLOCK     CODE     NEAR LAB  LVL=1
      0200C83AH   SYMBOL    XDATA    BYTE      dat1
      00000001H   SYMBOL    DATA     BYTE      dat2
      ---         BLOCKEND  ---      ---       LVL=1
      0100A310H   LINE      CODE     ---       #446
      0100A310H   LINE      CODE     ---       #447
      0100A310H   LINE      CODE     ---       #450
      0100A310H   LINE      CODE     ---       #451
      0100A313H   LINE      CODE     ---       #452
      0100A313H   LINE      CODE     ---       #453
      0100A313H   LINE      CODE     ---       #454
      0100A316H   LINE      CODE     ---       #455
      0100A31BH   LINE      CODE     ---       #456
      0100A31EH   LINE      CODE     ---       #457
      0100A324H   LINE      CODE     ---       #458
      0100A324H   LINE      CODE     ---       #459
      0100A327H   LINE      CODE     ---       #460
      0100A32BH   LINE      CODE     ---       #461
      0100A32BH   LINE      CODE     ---       #462
      0100A32FH   LINE      CODE     ---       #463
      0100A32FH   LINE      CODE     ---       #464
      0100A333H   LINE      CODE     ---       #465
      0100A333H   LINE      CODE     ---       #466
      0100A336H   LINE      CODE     ---       #467
      0100A336H   LINE      CODE     ---       #468
      0100A336H   LINE      CODE     ---       #469
      0100A339H   LINE      CODE     ---       #470
      0100A339H   LINE      CODE     ---       #471
      0100A33DH   LINE      CODE     ---       #473
      0100A344H   LINE      CODE     ---       #474
      0100A344H   LINE      CODE     ---       #475
LX51 LINKER/LOCATER V4.66.97.0                                                        11/04/2023  11:13:39  PAGE 71


      0100A347H   LINE      CODE     ---       #476
      0100A347H   LINE      CODE     ---       #477
      0100A34AH   LINE      CODE     ---       #478
      0100A34AH   LINE      CODE     ---       #479
      0100A34AH   LINE      CODE     ---       #480
      0100A34DH   LINE      CODE     ---       #481
      0100A34DH   LINE      CODE     ---       #484
      0100A354H   LINE      CODE     ---       #485
      0100A354H   LINE      CODE     ---       #486
      0100A357H   LINE      CODE     ---       #487
      0100A357H   LINE      CODE     ---       #488
      0100A357H   LINE      CODE     ---       #489
      0100A35AH   LINE      CODE     ---       #490
      0100A35EH   LINE      CODE     ---       #491
      0100A35EH   LINE      CODE     ---       #492
      0100A361H   LINE      CODE     ---       #493
      0100A366H   LINE      CODE     ---       #494
      0100A368H   LINE      CODE     ---       #495
      0100A368H   LINE      CODE     ---       #498
      0100A368H   LINE      CODE     ---       #499
      0100A36BH   LINE      CODE     ---       #500
      0100A370H   LINE      CODE     ---       #501
      0100A375H   LINE      CODE     ---       #502
      0100A37AH   LINE      CODE     ---       #503
      0100A37FH   LINE      CODE     ---       #504
      0100A384H   LINE      CODE     ---       #505
      0100A389H   LINE      CODE     ---       #506
      0100A38EH   LINE      CODE     ---       #507
      0100A390H   LINE      CODE     ---       #508
      0100A393H   LINE      CODE     ---       #509
      0100A397H   LINE      CODE     ---       #510
      0100A397H   LINE      CODE     ---       #511
      0100A397H   LINE      CODE     ---       #512
      0100A397H   LINE      CODE     ---       #513
      0100A397H   LINE      CODE     ---       #514
      0100A397H   LINE      CODE     ---       #515
      0100A397H   LINE      CODE     ---       #516
      0100A397H   LINE      CODE     ---       #517
      0100A39AH   LINE      CODE     ---       #518
      0100A39AH   LINE      CODE     ---       #519
      0100A39AH   LINE      CODE     ---       #520
      0100A39DH   LINE      CODE     ---       #521
      0100A39DH   LINE      CODE     ---       #522
      ---         BLOCKEND  ---      ---       LVL=0

      0100A867H   BLOCK     CODE     ---       LVL=0
      0200C84AH   SYMBOL    XDATA    ---       prtc_set
      0100A86DH   BLOCK     CODE     NEAR LAB  LVL=1
      0200C84DH   SYMBOL    XDATA    BYTE      dat
      0200C84EH   SYMBOL    XDATA    BYTE      dat1
      ---         BLOCKEND  ---      ---       LVL=1
      0100A867H   LINE      CODE     ---       #524
      0100A86DH   LINE      CODE     ---       #525
      0100A86DH   LINE      CODE     ---       #527
      0100A86DH   LINE      CODE     ---       #528
      0100A870H   LINE      CODE     ---       #529
      0100A870H   LINE      CODE     ---       #530
      0100A870H   LINE      CODE     ---       #531
      0100A873H   LINE      CODE     ---       #532
      0100A87BH   LINE      CODE     ---       #533
      0100A87EH   LINE      CODE     ---       #534
      0100A882H   LINE      CODE     ---       #535
      0100A882H   LINE      CODE     ---       #536
      0100A885H   LINE      CODE     ---       #537
      0100A889H   LINE      CODE     ---       #538
LX51 LINKER/LOCATER V4.66.97.0                                                        11/04/2023  11:13:39  PAGE 72


      0100A889H   LINE      CODE     ---       #539
      0100A88CH   LINE      CODE     ---       #540
      0100A88CH   LINE      CODE     ---       #541
      0100A88CH   LINE      CODE     ---       #542
      0100A88FH   LINE      CODE     ---       #543
      0100A896H   LINE      CODE     ---       #544
      0100A896H   LINE      CODE     ---       #545
      0100A899H   LINE      CODE     ---       #546
      0100A89BH   LINE      CODE     ---       #547
      0100A89BH   LINE      CODE     ---       #548
      0100A89BH   LINE      CODE     ---       #550
      0100A89BH   LINE      CODE     ---       #551
      0100A89EH   LINE      CODE     ---       #552
      0100A89FH   LINE      CODE     ---       #553
      0100A8A5H   LINE      CODE     ---       #554
      0100A8ABH   LINE      CODE     ---       #555
      0100A8B1H   LINE      CODE     ---       #556
      0100A8B7H   LINE      CODE     ---       #557
      0100A8BDH   LINE      CODE     ---       #558
      0100A8C3H   LINE      CODE     ---       #559
      0100A8C9H   LINE      CODE     ---       #560
      0100A8CCH   LINE      CODE     ---       #561
      0100A8D3H   LINE      CODE     ---       #562
      0100A8D4H   LINE      CODE     ---       #563
      0100A8D4H   LINE      CODE     ---       #564
      0100A8D4H   LINE      CODE     ---       #565
      0100A8D4H   LINE      CODE     ---       #566
      0100A8D4H   LINE      CODE     ---       #567
      0100A8D4H   LINE      CODE     ---       #568
      0100A8D4H   LINE      CODE     ---       #569
      0100A8D7H   LINE      CODE     ---       #570
      0100A8DCH   LINE      CODE     ---       #571
      0100A8E4H   LINE      CODE     ---       #572
      ---         BLOCKEND  ---      ---       LVL=0

      0100A541H   BLOCK     CODE     ---       LVL=0
      0100A541H   BLOCK     CODE     NEAR LAB  LVL=1
      0200C83AH   SYMBOL    XDATA    ---       rtcdata
      00000001H   SYMBOL    DATA     BYTE      i
      0200C842H   SYMBOL    XDATA    BYTE      n
      0200C843H   SYMBOL    XDATA    BYTE      m
      ---         BLOCKEND  ---      ---       LVL=1
      0100A541H   LINE      CODE     ---       #576
      0100A541H   LINE      CODE     ---       #577
      0100A541H   LINE      CODE     ---       #580
      0100A541H   LINE      CODE     ---       #581
      0100A544H   LINE      CODE     ---       #582
      0100A546H   LINE      CODE     ---       #583
      0100A546H   LINE      CODE     ---       #584
      0100A549H   LINE      CODE     ---       #585
      0100A555H   LINE      CODE     ---       #586
      0100A555H   LINE      CODE     ---       #587
      0100A55DH   LINE      CODE     ---       #588
      0100A560H   LINE      CODE     ---       #589
      0100A563H   LINE      CODE     ---       #590
      0100A569H   LINE      CODE     ---       #591
      0100A569H   LINE      CODE     ---       #592
      0100A56CH   LINE      CODE     ---       #593
      0100A573H   LINE      CODE     ---       #594
      0100A57BH   LINE      CODE     ---       #595
      0100A57BH   LINE      CODE     ---       #596
      0100A582H   LINE      CODE     ---       #597
      0100A582H   LINE      CODE     ---       #598
      0100A58AH   LINE      CODE     ---       #599
      0100A58DH   LINE      CODE     ---       #600
LX51 LINKER/LOCATER V4.66.97.0                                                        11/04/2023  11:13:39  PAGE 73


      0100A599H   LINE      CODE     ---       #601
      0100A599H   LINE      CODE     ---       #602
      0100A5A5H   LINE      CODE     ---       #603
      0100A5A5H   LINE      CODE     ---       #604
      0100A5ADH   LINE      CODE     ---       #605
      0100A5B0H   LINE      CODE     ---       #607
      0100A5B5H   LINE      CODE     ---       #608
      ---         BLOCKEND  ---      ---       LVL=0

      0100D667H   BLOCK     CODE     ---       LVL=0
      00000007H   SYMBOL    DATA     BYTE      dat
      0100D667H   LINE      CODE     ---       #621
      0100D667H   LINE      CODE     ---       #622
      0100D667H   LINE      CODE     ---       #623
      0100D66FH   LINE      CODE     ---       #624
      ---         BLOCKEND  ---      ---       LVL=0

      0100A1ECH   BLOCK     CODE     ---       LVL=0
      00000004H   SYMBOL    DATA     BYTE      year
      00000005H   SYMBOL    DATA     BYTE      month
      0200C84AH   SYMBOL    XDATA    BYTE      day
      0100A1F3H   BLOCK     CODE     NEAR LAB  LVL=1
      00000006H   SYMBOL    DATA     WORD      tmp
      0200C84BH   SYMBOL    XDATA    WORD      mon
      0200C84DH   SYMBOL    XDATA    WORD      y
      00000007H   SYMBOL    DATA     BYTE      week
      ---         BLOCKEND  ---      ---       LVL=1
      0100A1ECH   LINE      CODE     ---       #631
      0100A1F3H   LINE      CODE     ---       #632
      0100A1F3H   LINE      CODE     ---       #635
      0100A200H   LINE      CODE     ---       #636
      0100A200H   LINE      CODE     ---       #637
      0100A20DH   LINE      CODE     ---       #638
      0100A219H   LINE      CODE     ---       #639
      0100A21BH   LINE      CODE     ---       #641
      0100A21BH   LINE      CODE     ---       #642
      0100A225H   LINE      CODE     ---       #643
      0100A22DH   LINE      CODE     ---       #644
      0100A22DH   LINE      CODE     ---       #645
      0100A278H   LINE      CODE     ---       #646
      0100A27FH   LINE      CODE     ---       #647
      0100A27FH   LINE      CODE     ---       #648
      ---         BLOCKEND  ---      ---       LVL=0

      01009781H   BLOCK     CODE     ---       LVL=0
      01009781H   BLOCK     CODE     NEAR LAB  LVL=1
      0200C83AH   SYMBOL    XDATA    ---       rtc_parm
      0200C842H   SYMBOL    XDATA    ---       rtc_set
      ---         BLOCKEND  ---      ---       LVL=1
      01009781H   LINE      CODE     ---       #650
      01009781H   LINE      CODE     ---       #651
      01009781H   LINE      CODE     ---       #653
      01009797H   LINE      CODE     ---       #654
      010097ABH   LINE      CODE     ---       #655
      010097ABH   LINE      CODE     ---       #656
      010097B6H   LINE      CODE     ---       #657
      010097C3H   LINE      CODE     ---       #658
      010097D0H   LINE      CODE     ---       #659
      010097E3H   LINE      CODE     ---       #660
      010097F0H   LINE      CODE     ---       #661
      010097F3H   LINE      CODE     ---       #662
      01009800H   LINE      CODE     ---       #663
      0100980DH   LINE      CODE     ---       #664
      01009816H   LINE      CODE     ---       #665
      0100981BH   LINE      CODE     ---       #666
LX51 LINKER/LOCATER V4.66.97.0                                                        11/04/2023  11:13:39  PAGE 74


      0100981DH   LINE      CODE     ---       #667
      01009832H   LINE      CODE     ---       #668
      01009832H   LINE      CODE     ---       #669
      ---         BLOCKEND  ---      ---       LVL=0

      0100D3CBH   BLOCK     CODE     ---       LVL=0
      0100D3CBH   LINE      CODE     ---       #671
      0100D3CBH   LINE      CODE     ---       #672
      0100D3CBH   LINE      CODE     ---       #674
      0100D3CEH   LINE      CODE     ---       #675
      0100D3CEH   LINE      CODE     ---       #676
      0100D3D0H   LINE      CODE     ---       #677
      0100D3D3H   LINE      CODE     ---       #678
      0100D3D3H   LINE      CODE     ---       #679
      0100D3D8H   LINE      CODE     ---       #680
      0100D3D8H   LINE      CODE     ---       #681
      0100D3DBH   LINE      CODE     ---       #682
      0100D3E2H   LINE      CODE     ---       #683
      0100D3E2H   LINE      CODE     ---       #684
      ---         BLOCKEND  ---      ---       LVL=0

      0100CE0AH   BLOCK     CODE     ---       LVL=0
      0100CE0AH   BLOCK     CODE     NEAR LAB  LVL=1
      00000020H.0 SYMBOL    BIT      BIT       k
      ---         BLOCKEND  ---      ---       LVL=1
      0100CE0AH   LINE      CODE     ---       #690
      0100CE0AH   LINE      CODE     ---       #691
      0100CE0AH   LINE      CODE     ---       #692
      0100CE0CH   LINE      CODE     ---       #693
      0100CE0EH   LINE      CODE     ---       #695
      0100CE16H   LINE      CODE     ---       #696
      0100CE16H   LINE      CODE     ---       #697
      0100CE19H   LINE      CODE     ---       #698
      0100CE19H   LINE      CODE     ---       #699
      0100CE1BH   LINE      CODE     ---       #700
      0100CE1EH   LINE      CODE     ---       #701
      0100CE1EH   LINE      CODE     ---       #702
      0100CE23H   LINE      CODE     ---       #703
      0100CE23H   LINE      CODE     ---       #704
      0100CE26H   LINE      CODE     ---       #705
      0100CE2DH   LINE      CODE     ---       #706
      0100CE2DH   LINE      CODE     ---       #707
      0100CE30H   LINE      CODE     ---       #708
      0100CE30H   LINE      CODE     ---       #709
      0100CE38H   LINE      CODE     ---       #710
      0100CE38H   LINE      CODE     ---       #711
      0100CE3BH   LINE      CODE     ---       #712
      0100CE3BH   LINE      CODE     ---       #714
      ---         BLOCKEND  ---      ---       LVL=0

      ---         MODULE    ---      ---       UART
      0200940FH   PUBLIC    XDATA    BYTE      R_OD5
      0200940EH   PUBLIC    XDATA    BYTE      R_OD4
      0200940DH   PUBLIC    XDATA    BYTE      R_OD3
      0200940BH   PUBLIC    XDATA    WORD      R_CN5
      0200940AH   PUBLIC    XDATA    BYTE      R_OD2
      02009408H   PUBLIC    XDATA    WORD      R_CN4
      02009406H   PUBLIC    XDATA    WORD      R_CN3
      02009404H   PUBLIC    XDATA    WORD      R_CN2
      00000021H.7 PUBLIC    BIT      BIT       Response_flog
      02008C04H   PUBLIC    XDATA    ---       R_u5
      02008BF0H   PUBLIC    XDATA    ---       R_u3
      00000021H.6 PUBLIC    BIT      BIT       Busy5
      00000021H.5 PUBLIC    BIT      BIT       Busy4
      020083F0H   PUBLIC    XDATA    ---       R_u2
LX51 LINKER/LOCATER V4.66.97.0                                                        11/04/2023  11:13:39  PAGE 75


      00000021H.4 PUBLIC    BIT      BIT       Busy3
      00000021H.3 PUBLIC    BIT      BIT       Busy2
      020083EFH   PUBLIC    XDATA    BYTE      T_O5
      020083EEH   PUBLIC    XDATA    BYTE      T_O4
      020083EDH   PUBLIC    XDATA    BYTE      T_O3
      020083ECH   PUBLIC    XDATA    BYTE      T_O2
      020083E9H   PUBLIC    XDATA    ---       base64char
      02008001H   PUBLIC    XDATA    ---       HR
      02008000H   PUBLIC    XDATA    BYTE      i_test
      00000021H.2 PUBLIC    BIT      BIT       Crc_check_flog
      00000021H.1 PUBLIC    BIT      BIT       Auto_data_upload
      0100D624H   PUBLIC    CODE     ---       _putchar
      0100BDC5H   PUBLIC    CODE     ---       uart2_Risr
      0100B5ACH   PUBLIC    CODE     ---       uart3_Risr
      0100D6F8H   PUBLIC    CODE     ---       uart5_Tisr
      0100C308H   PUBLIC    CODE     ---       uart5_Risr
      0100D6F2H   PUBLIC    CODE     ---       uart4_Tisr
      0100BBA2H   PUBLIC    CODE     ---       uart4_Risr
      0100A39EH   PUBLIC    CODE     ---       uart_frame_deal
      00000020H.0 PUBLIC    BIT      BIT       ?_deal_uart_data?BIT
      0200C83AH   PUBLIC    XDATA    BYTE      ?_deal_uart_data?BYTE
      0100874AH   PUBLIC    CODE     ---       _deal_uart_data
      0200C942H   PUBLIC    XDATA    BYTE      ?_deal_83_cmd?BYTE
      0100678AH   PUBLIC    CODE     ---       _deal_83_cmd
      010070DEH   PUBLIC    CODE     ---       _deal_82_cmd
      0100BEE1H   PUBLIC    CODE     ---       _uart_send_byte
      0100D205H   PUBLIC    CODE     ---       uart_init
      0100D1E4H   PUBLIC    CODE     ---       _Uart5_Init
      0100D1C3H   PUBLIC    CODE     ---       _Uart4_Init
      0100CBC1H   PUBLIC    CODE     ---       _Uart2_Init
      000000F1H   SFRSYM    DATA     BYTE      ADR_H
      00000080H   SFRSYM    DATA     BYTE      P0
      00000090H   SFRSYM    DATA     BYTE      P1
      000000A0H   SFRSYM    DATA     BYTE      P2
      000000B0H   SFRSYM    DATA     BYTE      P3
      000000F3H   SFRSYM    DATA     BYTE      ADR_L
      000000D0H.6 SFRSYM    DATA     BIT       AC
      000000A0H.6 SFRSYM    DATA     BIT       Red_LED1
      00000094H   SFRSYM    DATA     BYTE      PAGESEL
      000000F2H   SFRSYM    DATA     BYTE      ADR_M
      000000A8H.7 SFRSYM    DATA     BIT       EA
      000000F8H   SFRSYM    DATA     BYTE      RAMMODE
      000000B7H   SFRSYM    DATA     BYTE      P0MDOUT
      000000BCH   SFRSYM    DATA     BYTE      P1MDOUT
      000000A8H   SFRSYM    DATA     BYTE      IEN0
      000000BDH   SFRSYM    DATA     BYTE      P2MDOUT
      000000B8H   SFRSYM    DATA     BYTE      IEN1
      000000BEH   SFRSYM    DATA     BYTE      P3MDOUT
      0000009AH   SFRSYM    DATA     BYTE      IEN2
      000000F8H.4 SFRSYM    DATA     BIT       APP_ACK
      000000F4H   SFRSYM    DATA     BYTE      ADR_INC
      000000B8H.1 SFRSYM    DATA     BIT       ECAN
      000000D0H.7 SFRSYM    DATA     BIT       CY
      000000B8H.3 SFRSYM    DATA     BIT       ES4R
      000000B8H.5 SFRSYM    DATA     BIT       ES5R
      000000B8H.2 SFRSYM    DATA     BIT       ES4T
      000000B8H.4 SFRSYM    DATA     BIT       ES5T
      000000B0H.3 SFRSYM    DATA     BIT       RTC_SDA
      00000081H   SFRSYM    DATA     BYTE      SP
      000000D0H.2 SFRSYM    DATA     BIT       OV
      00000095H   SFRSYM    DATA     BYTE      D_PAGESEL
      000000F8H.7 SFRSYM    DATA     BIT       APP_REQ
      000000B0H.2 SFRSYM    DATA     BIT       RTC_SCL
      000000BFH   SFRSYM    DATA     BYTE      IRCON2
      00000087H   SFRSYM    DATA     BYTE      PCON
LX51 LINKER/LOCATER V4.66.97.0                                                        11/04/2023  11:13:39  PAGE 76


      000000BAH   SFRSYM    DATA     BYTE      SREL2H
      000000BBH   SFRSYM    DATA     BYTE      SREL3H
      000000F9H   SFRSYM    DATA     BYTE      PORTDRV
      00000089H   SFRSYM    DATA     BYTE      TMOD
      00000088H   SFRSYM    DATA     BYTE      TCON
      000000AAH   SFRSYM    DATA     BYTE      SREL2L
      0000009DH   SFRSYM    DATA     BYTE      SREL3L
      000000FFH   SFRSYM    DATA     BYTE      EXDATA
      00000097H   SFRSYM    DATA     BYTE      SCON4R
      000000ABH   SFRSYM    DATA     BYTE      SCON5R
      000000D9H   SFRSYM    DATA     BYTE      BODE4_DIV_H
      000000AEH   SFRSYM    DATA     BYTE      BODE5_DIV_H
      00000096H   SFRSYM    DATA     BYTE      SCON4T
      000000A7H   SFRSYM    DATA     BYTE      SCON5T
      00000088H.1 SFRSYM    DATA     BIT       IE0
      00000088H.3 SFRSYM    DATA     BIT       IE1
      000000C9H   SFRSYM    DATA     BYTE      MUX_SEL
      000000E7H   SFRSYM    DATA     BYTE      BODE4_DIV_L
      000000AFH   SFRSYM    DATA     BYTE      BODE5_DIV_L
      000000F0H   SFRSYM    DATA     BYTE      B
      000000E0H   SFRSYM    DATA     BYTE      ACC
      0000008FH   SFRSYM    DATA     BYTE      CAN_CR
      000000A9H   SFRSYM    DATA     BYTE      IP0
      000000A8H.1 SFRSYM    DATA     BIT       ET0
      000000B9H   SFRSYM    DATA     BYTE      IP1
      000000A8H.3 SFRSYM    DATA     BIT       ET1
      000000A8H.4 SFRSYM    DATA     BIT       ES2
      00000088H.5 SFRSYM    DATA     BIT       TF0
      000000FDH   SFRSYM    DATA     BYTE      DATA0
      000000A8H.5 SFRSYM    DATA     BIT       ET2
      00000088H.7 SFRSYM    DATA     BIT       TF1
      000000E8H   SFRSYM    DATA     BYTE      CAN_ET
      000000FCH   SFRSYM    DATA     BYTE      DATA1
      000000C0H.6 SFRSYM    DATA     BIT       TF2
      0000008CH   SFRSYM    DATA     BYTE      TH0
      000000FBH   SFRSYM    DATA     BYTE      DATA2
      000000A8H.0 SFRSYM    DATA     BIT       EX0
      00000098H.0 SFRSYM    DATA     BIT       RI2
      0000008DH   SFRSYM    DATA     BYTE      TH1
      00000088H.0 SFRSYM    DATA     BIT       IT0
      00000091H   SFRSYM    DATA     BYTE      CAN_IR
      000000FAH   SFRSYM    DATA     BYTE      DATA3
      000000CDH   SFRSYM    DATA     BYTE      TH2
      000000A8H.2 SFRSYM    DATA     BIT       EX1
      00000088H.2 SFRSYM    DATA     BIT       IT1
      000000D0H.0 SFRSYM    DATA     BIT       P
      00000098H.1 SFRSYM    DATA     BIT       TI2
      0000008AH   SFRSYM    DATA     BYTE      TL0
      0000008BH   SFRSYM    DATA     BYTE      TL1
      000000CCH   SFRSYM    DATA     BYTE      TL2
      000000F8H.6 SFRSYM    DATA     BIT       APP_EN
      000000D0H.3 SFRSYM    DATA     BIT       RS0
      000000D0H.4 SFRSYM    DATA     BIT       RS1
      00000088H.4 SFRSYM    DATA     BIT       TR0
      00000093H   SFRSYM    DATA     BYTE      DPC
      00000088H.6 SFRSYM    DATA     BIT       TR1
      000000E5H   SFRSYM    DATA     BYTE      MAC_MODE
      000000C8H.0 SFRSYM    DATA     BIT       TR2
      00000080H.0 SFRSYM    DATA     BIT       TR4
      00000080H.1 SFRSYM    DATA     BIT       TR5
      000000A0H.7 SFRSYM    DATA     BIT       Green_LED2
      00000083H   SFRSYM    DATA     BYTE      DPH
      00000082H   SFRSYM    DATA     BYTE      DPL
      00000099H   SFRSYM    DATA     BYTE      SBUF2
      0000009CH   SFRSYM    DATA     BYTE      SBUF3
LX51 LINKER/LOCATER V4.66.97.0                                                        11/04/2023  11:13:39  PAGE 77


      000000D8H   SFRSYM    DATA     BYTE      ADCON
      00000098H   SFRSYM    DATA     BYTE      SCON2
      000000C8H   SFRSYM    DATA     BYTE      T2CON
      0000009BH   SFRSYM    DATA     BYTE      SCON3
      000000E6H   SFRSYM    DATA     BYTE      DIV_MODE
      000000F8H.5 SFRSYM    DATA     BIT       APP_RW
      000000CBH   SFRSYM    DATA     BYTE      TRL2H
      0000008EH   SFRSYM    DATA     BYTE      CKCON
      0000009FH   SFRSYM    DATA     BYTE      SBUF4_RX
      000000ADH   SFRSYM    DATA     BYTE      SBUF5_RX
      000000CAH   SFRSYM    DATA     BYTE      TRL2L
      0000009EH   SFRSYM    DATA     BYTE      SBUF4_TX
      000000ACH   SFRSYM    DATA     BYTE      SBUF5_TX
      000000FEH   SFRSYM    DATA     BYTE      EXADR
      000000D0H.5 SFRSYM    DATA     BIT       F0
      000000D0H.1 SFRSYM    DATA     BIT       F1
      000000D0H   SFRSYM    DATA     BYTE      PSW
      000000C0H   SFRSYM    DATA     BYTE      IRCON
      0100EFB9H   SYMBOL    CONST    ---       _?ix1000
      0100EFC1H   SYMBOL    CONST    ---       _?ix1001
      0100F025H   SYMBOL    CONST    ---       _?ix1002
      0100F02BH   SYMBOL    CONST    ---       _?ix1003
      0100F033H   SYMBOL    CONST    ---       _?ix1004

      01006AD8H   BLOCK     CODE     ---       LVL=0
      ---         BLOCKEND  ---      ---       LVL=0
      00000005H   SYMBOL    DATA     CHAR      c

      0100CBC1H   BLOCK     CODE     ---       LVL=0
      0200C83AH   SYMBOL    XDATA    DWORD     baud_rate
      0100CBC7H   BLOCK     CODE     NEAR LAB  LVL=1
      00000004H   SYMBOL    DATA     WORD      i
      ---         BLOCKEND  ---      ---       LVL=1
      0100CBC1H   LINE      CODE     ---       #136
      0100CBC7H   LINE      CODE     ---       #137
      0100CBC7H   LINE      CODE     ---       #138
      0100CBCAH   LINE      CODE     ---       #139
      0100CBE0H   LINE      CODE     ---       #140
      0100CBE2H   LINE      CODE     ---       #141
      0100CBE6H   LINE      CODE     ---       #142
      0100CBE9H   LINE      CODE     ---       #143
      0100CBECH   LINE      CODE     ---       #144
      0100CBEFH   LINE      CODE     ---       #145
      0100CBF2H   LINE      CODE     ---       #146
      0100CBF5H   LINE      CODE     ---       #147
      0100CBF7H   LINE      CODE     ---       #148
      ---         BLOCKEND  ---      ---       LVL=0

      0100D1C3H   BLOCK     CODE     ---       LVL=0
      0200C83AH   SYMBOL    XDATA    DWORD     baud_rate
      0100D1C9H   BLOCK     CODE     NEAR LAB  LVL=1
      00000004H   SYMBOL    DATA     WORD      i
      ---         BLOCKEND  ---      ---       LVL=1
      0100D1C3H   LINE      CODE     ---       #167
      0100D1C9H   LINE      CODE     ---       #168
      0100D1C9H   LINE      CODE     ---       #169
      0100D1C9H   LINE      CODE     ---       #170
      0100D1CCH   LINE      CODE     ---       #171
      0100D1D1H   LINE      CODE     ---       #172
      0100D1D5H   LINE      CODE     ---       #173
      0100D1D8H   LINE      CODE     ---       #174
      0100D1DBH   LINE      CODE     ---       #175
      0100D1DDH   LINE      CODE     ---       #176
      0100D1DFH   LINE      CODE     ---       #177
      0100D1E1H   LINE      CODE     ---       #178
LX51 LINKER/LOCATER V4.66.97.0                                                        11/04/2023  11:13:39  PAGE 78


      0100D1E3H   LINE      CODE     ---       #179
      ---         BLOCKEND  ---      ---       LVL=0

      0100D1E4H   BLOCK     CODE     ---       LVL=0
      0200C83AH   SYMBOL    XDATA    DWORD     baud_rate
      0100D1EAH   BLOCK     CODE     NEAR LAB  LVL=1
      00000004H   SYMBOL    DATA     WORD      i
      ---         BLOCKEND  ---      ---       LVL=1
      0100D1E4H   LINE      CODE     ---       #183
      0100D1EAH   LINE      CODE     ---       #184
      0100D1EAH   LINE      CODE     ---       #185
      0100D1EAH   LINE      CODE     ---       #186
      0100D1EDH   LINE      CODE     ---       #187
      0100D1F2H   LINE      CODE     ---       #188
      0100D1F6H   LINE      CODE     ---       #189
      0100D1F9H   LINE      CODE     ---       #191
      0100D1FCH   LINE      CODE     ---       #192
      0100D1FEH   LINE      CODE     ---       #193
      0100D200H   LINE      CODE     ---       #194
      0100D202H   LINE      CODE     ---       #195
      0100D204H   LINE      CODE     ---       #196
      ---         BLOCKEND  ---      ---       LVL=0

      0100D205H   BLOCK     CODE     ---       LVL=0
      0100D205H   LINE      CODE     ---       #199
      0100D205H   LINE      CODE     ---       #200
      0100D205H   LINE      CODE     ---       #202
      0100D210H   LINE      CODE     ---       #208
      0100D21BH   LINE      CODE     ---       #211
      ---         BLOCKEND  ---      ---       LVL=0

      0100BECFH   BLOCK     CODE     VOID      LVL=0
      ---         BLOCKEND  ---      ---       LVL=0

      0100BEE1H   BLOCK     CODE     ---       LVL=0
      00000007H   SYMBOL    DATA     BYTE      Uart_number
      00000005H   SYMBOL    DATA     BYTE      Dat
      0100BEE1H   LINE      CODE     ---       #227
      0100BEE1H   LINE      CODE     ---       #228
      0100BEE1H   LINE      CODE     ---       #229
      0100BEE9H   LINE      CODE     ---       #230
      0100BEE9H   LINE      CODE     ---       #231
      0100BEECH   LINE      CODE     ---       #233
      0100BEEEH   LINE      CODE     ---       #234
      0100BEF0H   LINE      CODE     ---       #235
      0100BEF1H   LINE      CODE     ---       #236
      0100BEF7H   LINE      CODE     ---       #237
      0100BEF7H   LINE      CODE     ---       #238
      0100BEFAH   LINE      CODE     ---       #240
      0100BEFCH   LINE      CODE     ---       #241
      0100BEFEH   LINE      CODE     ---       #242
      0100BEFFH   LINE      CODE     ---       #243
      0100BF07H   LINE      CODE     ---       #244
      0100BF07H   LINE      CODE     ---       #245
      0100BF09H   LINE      CODE     ---       #246
      0100BF0CH   LINE      CODE     ---       #248
      0100BF0EH   LINE      CODE     ---       #249
      0100BF10H   LINE      CODE     ---       #250
      0100BF13H   LINE      CODE     ---       #252
      0100BF15H   LINE      CODE     ---       #253
      0100BF16H   LINE      CODE     ---       #254
      0100BF1CH   LINE      CODE     ---       #255
      0100BF1CH   LINE      CODE     ---       #256
      0100BF1FH   LINE      CODE     ---       #258
      0100BF21H   LINE      CODE     ---       #259
LX51 LINKER/LOCATER V4.66.97.0                                                        11/04/2023  11:13:39  PAGE 79


      0100BF25H   LINE      CODE     ---       #260
      0100BF25H   LINE      CODE     ---       #261
      ---         BLOCKEND  ---      ---       LVL=0

      010070DEH   BLOCK     CODE     ---       LVL=0
      0200C942H   SYMBOL    XDATA    BYTE      Uart
      0200C943H   SYMBOL    XDATA    ---       arr
      010070E7H   BLOCK     CODE     NEAR LAB  LVL=1
      0200C946H   SYMBOL    XDATA    BYTE      i
      01007120H   BLOCK     CODE     NEAR LAB  LVL=2
      0200C947H   SYMBOL    XDATA    ---       Temp_arr
      ---         BLOCKEND  ---      ---       LVL=2
      0100717AH   BLOCK     CODE     NEAR LAB  LVL=2
      0200C947H   SYMBOL    XDATA    WORD      Crc
      0200C949H   SYMBOL    XDATA    WORD      Crc_check
      010071F6H   BLOCK     CODE     NEAR LAB  LVL=3
      0200C94BH   SYMBOL    XDATA    ---       Temp_arr
      ---         BLOCKEND  ---      ---       LVL=3
      ---         BLOCKEND  ---      ---       LVL=2
      ---         BLOCKEND  ---      ---       LVL=1
      010070DEH   LINE      CODE     ---       #362
      010070E7H   LINE      CODE     ---       #363
      010070E7H   LINE      CODE     ---       #364
      010070ECH   LINE      CODE     ---       #365
      010070F2H   LINE      CODE     ---       #366
      010070F2H   LINE      CODE     ---       #367
      0100711AH   LINE      CODE     ---       #368
      01007120H   LINE      CODE     ---       #369
      01007120H   LINE      CODE     ---       #370
      0100712AH   LINE      CODE     ---       #371
      0100712FH   LINE      CODE     ---       #372
      01007133H   LINE      CODE     ---       #373
      01007139H   LINE      CODE     ---       #374
      0100713BH   LINE      CODE     ---       #375
      0100714EH   LINE      CODE     ---       #376
      01007160H   LINE      CODE     ---       #377
      01007165H   LINE      CODE     ---       #378
      01007165H   LINE      CODE     ---       #379
      01007168H   LINE      CODE     ---       #381
      0100716AH   LINE      CODE     ---       #382
      0100716BH   LINE      CODE     ---       #383
      01007174H   LINE      CODE     ---       #384
      01007174H   LINE      CODE     ---       #385
      01007177H   LINE      CODE     ---       #387
      01007179H   LINE      CODE     ---       #388
      01007179H   LINE      CODE     ---       #389
      01007179H   LINE      CODE     ---       #390
      0100717AH   LINE      CODE     ---       #392
      0100717AH   LINE      CODE     ---       #393
      01007180H   LINE      CODE     ---       #394
      010071A9H   LINE      CODE     ---       #395
      010071BCH   LINE      CODE     ---       #396
      010071CBH   LINE      CODE     ---       #397
      010071CBH   LINE      CODE     ---       #398
      010071F3H   LINE      CODE     ---       #399
      010071F6H   LINE      CODE     ---       #400
      010071F6H   LINE      CODE     ---       #401
      01007200H   LINE      CODE     ---       #402
      01007205H   LINE      CODE     ---       #403
      01007209H   LINE      CODE     ---       #404
      0100720FH   LINE      CODE     ---       #405
      01007211H   LINE      CODE     ---       #406
      01007224H   LINE      CODE     ---       #407
      01007236H   LINE      CODE     ---       #408
      0100723BH   LINE      CODE     ---       #409
LX51 LINKER/LOCATER V4.66.97.0                                                        11/04/2023  11:13:39  PAGE 80


      0100723BH   LINE      CODE     ---       #410
      0100723EH   LINE      CODE     ---       #412
      01007240H   LINE      CODE     ---       #413
      01007241H   LINE      CODE     ---       #414
      01007247H   LINE      CODE     ---       #415
      01007247H   LINE      CODE     ---       #416
      0100724AH   LINE      CODE     ---       #418
      0100724CH   LINE      CODE     ---       #419
      0100724CH   LINE      CODE     ---       #420
      0100724CH   LINE      CODE     ---       #421
      0100724CH   LINE      CODE     ---       #422
      0100724CH   LINE      CODE     ---       #423
      ---         BLOCKEND  ---      ---       LVL=0

      0100678AH   BLOCK     CODE     ---       LVL=0
      0200C942H   SYMBOL    XDATA    BYTE      Uart
      0200C943H   SYMBOL    XDATA    ---       arr
      0200C946H   SYMBOL    XDATA    ---       arr1
      01006793H   BLOCK     CODE     NEAR LAB  LVL=1
      0200C949H   SYMBOL    XDATA    BYTE      i
      01006823H   BLOCK     CODE     NEAR LAB  LVL=2
      0200C94AH   SYMBOL    XDATA    WORD      Crc
      0200C94CH   SYMBOL    XDATA    WORD      Crc_check
      ---         BLOCKEND  ---      ---       LVL=2
      ---         BLOCKEND  ---      ---       LVL=1
      0100678AH   LINE      CODE     ---       #425
      01006793H   LINE      CODE     ---       #426
      01006793H   LINE      CODE     ---       #427
      01006798H   LINE      CODE     ---       #428
      0100679EH   LINE      CODE     ---       #429
      0100679EH   LINE      CODE     ---       #430
      010067ACH   LINE      CODE     ---       #431
      010067B1H   LINE      CODE     ---       #432
      010067CDH   LINE      CODE     ---       #433
      010067DAH   LINE      CODE     ---       #434
      010067E2H   LINE      CODE     ---       #435
      010067E6H   LINE      CODE     ---       #436
      010067ECH   LINE      CODE     ---       #437
      010067EEH   LINE      CODE     ---       #438
      010067FEH   LINE      CODE     ---       #439
      01006806H   LINE      CODE     ---       #440
      0100680EH   LINE      CODE     ---       #441
      0100680EH   LINE      CODE     ---       #442
      01006811H   LINE      CODE     ---       #444
      01006813H   LINE      CODE     ---       #445
      01006814H   LINE      CODE     ---       #446
      0100681DH   LINE      CODE     ---       #447
      0100681DH   LINE      CODE     ---       #448
      01006820H   LINE      CODE     ---       #450
      01006822H   LINE      CODE     ---       #451
      01006822H   LINE      CODE     ---       #452
      01006823H   LINE      CODE     ---       #454
      01006823H   LINE      CODE     ---       #455
      0100682AH   LINE      CODE     ---       #456
      0100683BH   LINE      CODE     ---       #457
      01006840H   LINE      CODE     ---       #458
      0100685EH   LINE      CODE     ---       #459
      0100686EH   LINE      CODE     ---       #460
      0100687DH   LINE      CODE     ---       #461
      0100687DH   LINE      CODE     ---       #462
      01006899H   LINE      CODE     ---       #463
      010068A3H   LINE      CODE     ---       #464
      010068BBH   LINE      CODE     ---       #465
      010068C5H   LINE      CODE     ---       #466
      010068D5H   LINE      CODE     ---       #467
LX51 LINKER/LOCATER V4.66.97.0                                                        11/04/2023  11:13:39  PAGE 81


      010068DDH   LINE      CODE     ---       #468
      010068E1H   LINE      CODE     ---       #469
      010068E7H   LINE      CODE     ---       #470
      010068E9H   LINE      CODE     ---       #471
      010068FFH   LINE      CODE     ---       #472
      01006907H   LINE      CODE     ---       #473
      0100690FH   LINE      CODE     ---       #474
      0100690FH   LINE      CODE     ---       #475
      01006912H   LINE      CODE     ---       #477
      01006914H   LINE      CODE     ---       #478
      01006915H   LINE      CODE     ---       #479
      0100691BH   LINE      CODE     ---       #480
      0100691BH   LINE      CODE     ---       #481
      0100691EH   LINE      CODE     ---       #483
      01006920H   LINE      CODE     ---       #484
      01006920H   LINE      CODE     ---       #485
      01006920H   LINE      CODE     ---       #486
      01006920H   LINE      CODE     ---       #487
      ---         BLOCKEND  ---      ---       LVL=0

      0100874AH   BLOCK     CODE     ---       LVL=0
      0200C83AH   SYMBOL    XDATA    ---       Arr_rece
      0200C83DH   SYMBOL    XDATA    ---       Data_len
      0200C840H   SYMBOL    XDATA    BYTE      Uart_num
      00000020H.0 SYMBOL    BIT      BIT       Response
      00000020H.1 SYMBOL    BIT      BIT       Crc_ck
      01008750H   BLOCK     CODE     NEAR LAB  LVL=1
      0200C841H   SYMBOL    XDATA    WORD      N
      00000020H.2 SYMBOL    BIT      BIT       Flog
      010087A8H   BLOCK     CODE     NEAR LAB  LVL=2
      0200C843H   SYMBOL    XDATA    ---       Val
      ---         BLOCKEND  ---      ---       LVL=2
      ---         BLOCKEND  ---      ---       LVL=1
      0100874AH   LINE      CODE     ---       #494
      01008750H   LINE      CODE     ---       #495
      01008750H   LINE      CODE     ---       #496
      01008757H   LINE      CODE     ---       #497
      01008759H   LINE      CODE     ---       #498
      0100875FH   LINE      CODE     ---       #499
      0100875FH   LINE      CODE     ---       #500
      01008786H   LINE      CODE     ---       #501
      01008786H   LINE      CODE     ---       #502
      0100878DH   LINE      CODE     ---       #503
      0100878DH   LINE      CODE     ---       #504
      01008791H   LINE      CODE     ---       #505
      01008791H   LINE      CODE     ---       #506
      0100879FH   LINE      CODE     ---       #507
      0100879FH   LINE      CODE     ---       #508
      010087A1H   LINE      CODE     ---       #509
      010087A8H   LINE      CODE     ---       #510
      010087A8H   LINE      CODE     ---       #512
      010087BAH   LINE      CODE     ---       #513
      010087BAH   LINE      CODE     ---       #514
      010087D4H   LINE      CODE     ---       #515
      010087F9H   LINE      CODE     ---       #516
      010087FBH   LINE      CODE     ---       #518
      01008801H   LINE      CODE     ---       #519
      01008801H   LINE      CODE     ---       #520
      0100881FH   LINE      CODE     ---       #521
      01008825H   LINE      CODE     ---       #523
      01008827H   LINE      CODE     ---       #524
      0100882AH   LINE      CODE     ---       #525
      ---         BLOCKEND  ---      ---       LVL=0

      0100A39EH   BLOCK     CODE     ---       LVL=0
LX51 LINKER/LOCATER V4.66.97.0                                                        11/04/2023  11:13:39  PAGE 82


      0100A39EH   LINE      CODE     ---       #527
      0100A39EH   LINE      CODE     ---       #528
      0100A39EH   LINE      CODE     ---       #541
      0100A3ACH   LINE      CODE     ---       #542
      0100A3ACH   LINE      CODE     ---       #543
      0100A3C1H   LINE      CODE     ---       #545
      0100A3C6H   LINE      CODE     ---       #546
      0100A3CCH   LINE      CODE     ---       #547
      0100A3CCH   LINE      CODE     ---       #548
      0100A3DAH   LINE      CODE     ---       #549
      0100A3DAH   LINE      CODE     ---       #550
      0100A3EFH   LINE      CODE     ---       #551
      0100A3F4H   LINE      CODE     ---       #552
      0100A3FAH   LINE      CODE     ---       #553
      0100A3FAH   LINE      CODE     ---       #558
      0100A408H   LINE      CODE     ---       #559
      0100A408H   LINE      CODE     ---       #560
      0100A41FH   LINE      CODE     ---       #561
      0100A424H   LINE      CODE     ---       #562
      0100A42AH   LINE      CODE     ---       #564
      0100A42AH   LINE      CODE     ---       #565
      ---         BLOCKEND  ---      ---       LVL=0

      0100BBA2H   BLOCK     CODE     ---       LVL=0
      0100BBA2H   LINE      CODE     ---       #571
      0100BBBFH   LINE      CODE     ---       #574
      0100BBC2H   LINE      CODE     ---       #575
      0100BBC5H   LINE      CODE     ---       #576
      0100BBCBH   LINE      CODE     ---       #577
      0100BBDAH   LINE      CODE     ---       #578
      0100BBDDH   LINE      CODE     ---       #579
      0100BBE3H   LINE      CODE     ---       #580
      ---         BLOCKEND  ---      ---       LVL=0

      0100D6F2H   BLOCK     CODE     ---       LVL=0
      0100D6F2H   LINE      CODE     ---       #582
      0100D6F2H   LINE      CODE     ---       #585
      0100D6F5H   LINE      CODE     ---       #586
      0100D6F7H   LINE      CODE     ---       #587
      ---         BLOCKEND  ---      ---       LVL=0

      0100C308H   BLOCK     CODE     ---       LVL=0
      0100C308H   LINE      CODE     ---       #589
      0100C31BH   LINE      CODE     ---       #591
      0100C32FH   LINE      CODE     ---       #592
      0100C332H   LINE      CODE     ---       #593
      0100C335H   LINE      CODE     ---       #594
      0100C33AH   LINE      CODE     ---       #595
      0100C340H   LINE      CODE     ---       #596
      0100C346H   LINE      CODE     ---       #597
      ---         BLOCKEND  ---      ---       LVL=0

      0100D6F8H   BLOCK     CODE     ---       LVL=0
      0100D6F8H   LINE      CODE     ---       #599
      0100D6F8H   LINE      CODE     ---       #601
      0100D6FBH   LINE      CODE     ---       #602
      0100D6FDH   LINE      CODE     ---       #603
      ---         BLOCKEND  ---      ---       LVL=0

      0100B5ACH   BLOCK     CODE     ---       LVL=0
      0100B5ACH   LINE      CODE     ---       #606
      0100B5BFH   LINE      CODE     ---       #608
      0100B5C4H   LINE      CODE     ---       #609
      0100B5C4H   LINE      CODE     ---       #610
      0100B5D8H   LINE      CODE     ---       #611
LX51 LINKER/LOCATER V4.66.97.0                                                        11/04/2023  11:13:39  PAGE 83


      0100B5DBH   LINE      CODE     ---       #613
      0100B5DEH   LINE      CODE     ---       #614
      0100B5E3H   LINE      CODE     ---       #615
      0100B5E9H   LINE      CODE     ---       #616
      0100B5EFH   LINE      CODE     ---       #617
      0100B5EFH   LINE      CODE     ---       #618
      0100B5F4H   LINE      CODE     ---       #619
      0100B5F4H   LINE      CODE     ---       #621
      0100B5F7H   LINE      CODE     ---       #622
      0100B5FAH   LINE      CODE     ---       #623
      0100B5FCH   LINE      CODE     ---       #624
      0100B5FCH   LINE      CODE     ---       #625
      ---         BLOCKEND  ---      ---       LVL=0

      0100BDC5H   BLOCK     CODE     ---       LVL=0
      0100BDC5H   LINE      CODE     ---       #627
      0100BDD8H   LINE      CODE     ---       #629
      0100BDDBH   LINE      CODE     ---       #630
      0100BDDBH   LINE      CODE     ---       #631
      0100BDEFH   LINE      CODE     ---       #632
      0100BDF2H   LINE      CODE     ---       #633
      0100BDF5H   LINE      CODE     ---       #634
      0100BDFAH   LINE      CODE     ---       #635
      0100BE00H   LINE      CODE     ---       #636
      0100BE06H   LINE      CODE     ---       #637
      0100BE06H   LINE      CODE     ---       #638
      0100BE09H   LINE      CODE     ---       #639
      0100BE09H   LINE      CODE     ---       #640
      0100BE0CH   LINE      CODE     ---       #641
      0100BE0EH   LINE      CODE     ---       #642
      0100BE0EH   LINE      CODE     ---       #643
      ---         BLOCKEND  ---      ---       LVL=0
      00000007H   SYMBOL    DATA     CHAR      c

      0100D624H   BLOCK     CODE     ---       LVL=0
      00000006H   SYMBOL    DATA     CHAR      c
      0100D624H   LINE      CODE     ---       #657
      0100D626H   LINE      CODE     ---       #658
      0100D626H   LINE      CODE     ---       #659
      0100D62DH   LINE      CODE     ---       #660
      0100D62FH   LINE      CODE     ---       #661
      ---         BLOCKEND  ---      ---       LVL=0

      ---         MODULE    ---      ---       T5LLIB
      0200CB74H   PUBLIC    XDATA    BYTE      ?_write_dgusii_vp?BYTE
      0100A8E7H   PUBLIC    CODE     ---       _write_dgusii_vp
      0200CB74H   PUBLIC    XDATA    BYTE      ?_read_dgusii_vp?BYTE
      0100C123H   PUBLIC    CODE     ---       _read_dgusii_vp
      0200C850H   PUBLIC    XDATA    BYTE      ?_T5L_Flash?BYTE
      0100B851H   PUBLIC    CODE     ---       _T5L_Flash
      0100CD70H   PUBLIC    CODE     ---       _wait_ok
      000000F1H   SFRSYM    DATA     BYTE      ADR_H
      00000080H   SFRSYM    DATA     BYTE      P0
      00000090H   SFRSYM    DATA     BYTE      P1
      000000A0H   SFRSYM    DATA     BYTE      P2
      000000B0H   SFRSYM    DATA     BYTE      P3
      000000F3H   SFRSYM    DATA     BYTE      ADR_L
      000000D0H.6 SFRSYM    DATA     BIT       AC
      000000A0H.6 SFRSYM    DATA     BIT       Red_LED1
      00000094H   SFRSYM    DATA     BYTE      PAGESEL
      000000F2H   SFRSYM    DATA     BYTE      ADR_M
      000000A8H.7 SFRSYM    DATA     BIT       EA
      000000F8H   SFRSYM    DATA     BYTE      RAMMODE
      000000B7H   SFRSYM    DATA     BYTE      P0MDOUT
      000000BCH   SFRSYM    DATA     BYTE      P1MDOUT
LX51 LINKER/LOCATER V4.66.97.0                                                        11/04/2023  11:13:39  PAGE 84


      000000A8H   SFRSYM    DATA     BYTE      IEN0
      000000BDH   SFRSYM    DATA     BYTE      P2MDOUT
      000000B8H   SFRSYM    DATA     BYTE      IEN1
      000000BEH   SFRSYM    DATA     BYTE      P3MDOUT
      0000009AH   SFRSYM    DATA     BYTE      IEN2
      000000F8H.4 SFRSYM    DATA     BIT       APP_ACK
      000000F4H   SFRSYM    DATA     BYTE      ADR_INC
      000000B8H.1 SFRSYM    DATA     BIT       ECAN
      000000D0H.7 SFRSYM    DATA     BIT       CY
      000000B8H.3 SFRSYM    DATA     BIT       ES4R
      000000B8H.5 SFRSYM    DATA     BIT       ES5R
      000000B8H.2 SFRSYM    DATA     BIT       ES4T
      000000B8H.4 SFRSYM    DATA     BIT       ES5T
      000000B0H.3 SFRSYM    DATA     BIT       RTC_SDA
      00000081H   SFRSYM    DATA     BYTE      SP
      000000D0H.2 SFRSYM    DATA     BIT       OV
      00000095H   SFRSYM    DATA     BYTE      D_PAGESEL
      000000F8H.7 SFRSYM    DATA     BIT       APP_REQ
      000000B0H.2 SFRSYM    DATA     BIT       RTC_SCL
      000000BFH   SFRSYM    DATA     BYTE      IRCON2
      00000087H   SFRSYM    DATA     BYTE      PCON
      000000BAH   SFRSYM    DATA     BYTE      SREL2H
      000000BBH   SFRSYM    DATA     BYTE      SREL3H
      000000F9H   SFRSYM    DATA     BYTE      PORTDRV
      00000089H   SFRSYM    DATA     BYTE      TMOD
      00000088H   SFRSYM    DATA     BYTE      TCON
      000000AAH   SFRSYM    DATA     BYTE      SREL2L
      0000009DH   SFRSYM    DATA     BYTE      SREL3L
      000000FFH   SFRSYM    DATA     BYTE      EXDATA
      00000097H   SFRSYM    DATA     BYTE      SCON4R
      000000ABH   SFRSYM    DATA     BYTE      SCON5R
      000000D9H   SFRSYM    DATA     BYTE      BODE4_DIV_H
      000000AEH   SFRSYM    DATA     BYTE      BODE5_DIV_H
      00000096H   SFRSYM    DATA     BYTE      SCON4T
      000000A7H   SFRSYM    DATA     BYTE      SCON5T
      00000088H.1 SFRSYM    DATA     BIT       IE0
      00000088H.3 SFRSYM    DATA     BIT       IE1
      000000C9H   SFRSYM    DATA     BYTE      MUX_SEL
      000000E7H   SFRSYM    DATA     BYTE      BODE4_DIV_L
      000000AFH   SFRSYM    DATA     BYTE      BODE5_DIV_L
      000000F0H   SFRSYM    DATA     BYTE      B
      000000E0H   SFRSYM    DATA     BYTE      ACC
      0000008FH   SFRSYM    DATA     BYTE      CAN_CR
      000000A9H   SFRSYM    DATA     BYTE      IP0
      000000A8H.1 SFRSYM    DATA     BIT       ET0
      000000B9H   SFRSYM    DATA     BYTE      IP1
      000000A8H.3 SFRSYM    DATA     BIT       ET1
      000000A8H.4 SFRSYM    DATA     BIT       ES2
      00000088H.5 SFRSYM    DATA     BIT       TF0
      000000FDH   SFRSYM    DATA     BYTE      DATA0
      000000A8H.5 SFRSYM    DATA     BIT       ET2
      00000088H.7 SFRSYM    DATA     BIT       TF1
      000000E8H   SFRSYM    DATA     BYTE      CAN_ET
      000000FCH   SFRSYM    DATA     BYTE      DATA1
      000000C0H.6 SFRSYM    DATA     BIT       TF2
      0000008CH   SFRSYM    DATA     BYTE      TH0
      000000FBH   SFRSYM    DATA     BYTE      DATA2
      000000A8H.0 SFRSYM    DATA     BIT       EX0
      00000098H.0 SFRSYM    DATA     BIT       RI2
      0000008DH   SFRSYM    DATA     BYTE      TH1
      00000088H.0 SFRSYM    DATA     BIT       IT0
      00000091H   SFRSYM    DATA     BYTE      CAN_IR
      000000FAH   SFRSYM    DATA     BYTE      DATA3
      000000CDH   SFRSYM    DATA     BYTE      TH2
      000000A8H.2 SFRSYM    DATA     BIT       EX1
LX51 LINKER/LOCATER V4.66.97.0                                                        11/04/2023  11:13:39  PAGE 85


      00000088H.2 SFRSYM    DATA     BIT       IT1
      000000D0H.0 SFRSYM    DATA     BIT       P
      00000098H.1 SFRSYM    DATA     BIT       TI2
      0000008AH   SFRSYM    DATA     BYTE      TL0
      0000008BH   SFRSYM    DATA     BYTE      TL1
      000000CCH   SFRSYM    DATA     BYTE      TL2
      000000F8H.6 SFRSYM    DATA     BIT       APP_EN
      000000D0H.3 SFRSYM    DATA     BIT       RS0
      000000D0H.4 SFRSYM    DATA     BIT       RS1
      00000088H.4 SFRSYM    DATA     BIT       TR0
      00000093H   SFRSYM    DATA     BYTE      DPC
      00000088H.6 SFRSYM    DATA     BIT       TR1
      000000E5H   SFRSYM    DATA     BYTE      MAC_MODE
      000000C8H.0 SFRSYM    DATA     BIT       TR2
      00000080H.0 SFRSYM    DATA     BIT       TR4
      00000080H.1 SFRSYM    DATA     BIT       TR5
      000000A0H.7 SFRSYM    DATA     BIT       Green_LED2
      00000083H   SFRSYM    DATA     BYTE      DPH
      00000082H   SFRSYM    DATA     BYTE      DPL
      00000099H   SFRSYM    DATA     BYTE      SBUF2
      0000009CH   SFRSYM    DATA     BYTE      SBUF3
      000000D8H   SFRSYM    DATA     BYTE      ADCON
      00000098H   SFRSYM    DATA     BYTE      SCON2
      000000C8H   SFRSYM    DATA     BYTE      T2CON
      0000009BH   SFRSYM    DATA     BYTE      SCON3
      000000E6H   SFRSYM    DATA     BYTE      DIV_MODE
      000000F8H.5 SFRSYM    DATA     BIT       APP_RW
      000000CBH   SFRSYM    DATA     BYTE      TRL2H
      0000008EH   SFRSYM    DATA     BYTE      CKCON
      0000009FH   SFRSYM    DATA     BYTE      SBUF4_RX
      000000ADH   SFRSYM    DATA     BYTE      SBUF5_RX
      000000CAH   SFRSYM    DATA     BYTE      TRL2L
      0000009EH   SFRSYM    DATA     BYTE      SBUF4_TX
      000000ACH   SFRSYM    DATA     BYTE      SBUF5_TX
      000000FEH   SFRSYM    DATA     BYTE      EXADR
      000000D0H.5 SFRSYM    DATA     BIT       F0
      000000D0H.1 SFRSYM    DATA     BIT       F1
      000000D0H   SFRSYM    DATA     BYTE      PSW
      000000C0H   SFRSYM    DATA     BYTE      IRCON

      0100B028H   BLOCK     CODE     ---       LVL=0
      ---         BLOCKEND  ---      ---       LVL=0

      0100CD70H   BLOCK     CODE     ---       LVL=0
      00000004H   SYMBOL    DATA     WORD      addr
      0100CD70H   LINE      CODE     ---       #5
      0100CD74H   LINE      CODE     ---       #6
      0100CD74H   LINE      CODE     ---       #7
      0100CD77H   LINE      CODE     ---       #8
      0100CD7AH   LINE      CODE     ---       #9
      0100CD7CH   LINE      CODE     ---       #10
      0100CD7FH   LINE      CODE     ---       #12
      0100CD7FH   LINE      CODE     ---       #13
      0100CD82H   LINE      CODE     ---       #14
      0100CD82H   LINE      CODE     ---       #15
      0100CD85H   LINE      CODE     ---       #16
      0100CD90H   LINE      CODE     ---       #17
      0100CD93H   LINE      CODE     ---       #18
      0100CD96H   LINE      CODE     ---       #20
      0100CD98H   LINE      CODE     ---       #21
      0100CD9BH   LINE      CODE     ---       #23
      0100CD9EH   LINE      CODE     ---       #24
      0100CDA3H   LINE      CODE     ---       #25
      ---         BLOCKEND  ---      ---       LVL=0

LX51 LINKER/LOCATER V4.66.97.0                                                        11/04/2023  11:13:39  PAGE 86


      0100B851H   BLOCK     CODE     ---       LVL=0
      00000007H   SYMBOL    DATA     BYTE      mod
      00000002H   SYMBOL    DATA     WORD      addr
      0200C853H   SYMBOL    XDATA    LONG      addr_flash
      0200C857H   SYMBOL    XDATA    WORD      len
      0100B851H   LINE      CODE     ---       #29
      0100B855H   LINE      CODE     ---       #30
      0100B855H   LINE      CODE     ---       #31
      0100B858H   LINE      CODE     ---       #32
      0100B85AH   LINE      CODE     ---       #33
      0100B85DH   LINE      CODE     ---       #34
      0100B860H   LINE      CODE     ---       #35
      0100B863H   LINE      CODE     ---       #36
      0100B866H   LINE      CODE     ---       #38
      0100B868H   LINE      CODE     ---       #39
      0100B872H   LINE      CODE     ---       #40
      0100B87CH   LINE      CODE     ---       #41
      0100B885H   LINE      CODE     ---       #42
      0100B887H   LINE      CODE     ---       #43
      0100B88AH   LINE      CODE     ---       #45
      0100B88DH   LINE      CODE     ---       #46
      0100B892H   LINE      CODE     ---       #47
      0100B89DH   LINE      CODE     ---       #48
      0100B8A2H   LINE      CODE     ---       #49
      0100B8A4H   LINE      CODE     ---       #50
      0100B8A7H   LINE      CODE     ---       #52
      0100B8AAH   LINE      CODE     ---       #53
      ---         BLOCKEND  ---      ---       LVL=0

      0100C123H   BLOCK     CODE     ---       LVL=0
      00000004H   SYMBOL    DATA     WORD      addr
      0200CB76H   SYMBOL    XDATA    ---       buf
      0200CB79H   SYMBOL    XDATA    WORD      len
      0100C126H   BLOCK     CODE     NEAR LAB  LVL=1
      00000003H   SYMBOL    DATA     BYTE      i
      ---         BLOCKEND  ---      ---       LVL=1
      0100C123H   LINE      CODE     ---       #57
      0100C126H   LINE      CODE     ---       #58
      0100C126H   LINE      CODE     ---       #60
      0100C126H   LINE      CODE     ---       #61
      0100C126H   LINE      CODE     ---       #62
      0100C126H   LINE      CODE     ---       #63
      0100C126H   LINE      CODE     ---       #64
      0100C126H   LINE      CODE     ---       #65
      0100C129H   LINE      CODE     ---       #66
      0100C12CH   LINE      CODE     ---       #67
      0100C12FH   LINE      CODE     ---       #69
      0100C134H   LINE      CODE     ---       #70
      0100C134H   LINE      CODE     ---       #71
      0100C136H   LINE      CODE     ---       #72
      0100C139H   LINE      CODE     ---       #74
      0100C141H   LINE      CODE     ---       #75
      0100C141H   LINE      CODE     ---       #76
      0100C146H   LINE      CODE     ---       #77
      0100C14EH   LINE      CODE     ---       #78
      0100C150H   LINE      CODE     ---       #79
      0100C153H   LINE      CODE     ---       #80
      0100C153H   LINE      CODE     ---       #81
      0100C15DH   LINE      CODE     ---       #82
      0100C15DH   LINE      CODE     ---       #83
      0100C162H   LINE      CODE     ---       #84
      0100C16AH   LINE      CODE     ---       #85
      0100C16CH   LINE      CODE     ---       #86
      0100C16FH   LINE      CODE     ---       #87
      0100C16FH   LINE      CODE     ---       #88
LX51 LINKER/LOCATER V4.66.97.0                                                        11/04/2023  11:13:39  PAGE 87


      0100C171H   LINE      CODE     ---       #89
      0100C174H   LINE      CODE     ---       #90
      ---         BLOCKEND  ---      ---       LVL=0

      0100A8E7H   BLOCK     CODE     ---       LVL=0
      00000004H   SYMBOL    DATA     WORD      addr
      0200CB76H   SYMBOL    XDATA    ---       buf
      0200CB79H   SYMBOL    XDATA    WORD      len
      0100A8EAH   BLOCK     CODE     NEAR LAB  LVL=1
      00000003H   SYMBOL    DATA     BYTE      i
      ---         BLOCKEND  ---      ---       LVL=1
      0100A8E7H   LINE      CODE     ---       #93
      0100A8EAH   LINE      CODE     ---       #94
      0100A8EAH   LINE      CODE     ---       #96
      0100A8EAH   LINE      CODE     ---       #97
      0100A8EAH   LINE      CODE     ---       #98
      0100A8EAH   LINE      CODE     ---       #99
      0100A8EAH   LINE      CODE     ---       #100
      0100A8EAH   LINE      CODE     ---       #101
      0100A8EDH   LINE      CODE     ---       #102
      0100A8F0H   LINE      CODE     ---       #103
      0100A8F3H   LINE      CODE     ---       #105
      0100A905H   LINE      CODE     ---       #106
      0100A905H   LINE      CODE     ---       #107
      0100A908H   LINE      CODE     ---       #108
      0100A908H   LINE      CODE     ---       #109
      0100A90DH   LINE      CODE     ---       #110
      0100A90FH   LINE      CODE     ---       #111
      0100A912H   LINE      CODE     ---       #113
      0100A918H   LINE      CODE     ---       #114
      0100A918H   LINE      CODE     ---       #115
      0100A91BH   LINE      CODE     ---       #116
      0100A92BH   LINE      CODE     ---       #117
      0100A92BH   LINE      CODE     ---       #118
      0100A930H   LINE      CODE     ---       #119
      0100A935H   LINE      CODE     ---       #120
      0100A935H   LINE      CODE     ---       #121
      0100A93AH   LINE      CODE     ---       #122
      0100A93CH   LINE      CODE     ---       #123
      0100A93FH   LINE      CODE     ---       #125
      0100A94AH   LINE      CODE     ---       #126
      0100A94CH   LINE      CODE     ---       #127
      0100A950H   LINE      CODE     ---       #128
      0100A950H   LINE      CODE     ---       #129
      0100A953H   LINE      CODE     ---       #130
      0100A958H   LINE      CODE     ---       #131
      0100A95DH   LINE      CODE     ---       #132
      0100A95FH   LINE      CODE     ---       #133
      0100A962H   LINE      CODE     ---       #135
      0100A962H   LINE      CODE     ---       #136
      0100A965H   LINE      CODE     ---       #137
      ---         BLOCKEND  ---      ---       LVL=0

      ---         MODULE    ---      ---       MODULE
      0200AE9FH   PUBLIC    XDATA    ---       g_var_module
      0200AE9EH   PUBLIC    XDATA    BYTE      modfity_index
      0200AD86H   PUBLIC    XDATA    ---       timing_module
      0200AD84H   PUBLIC    XDATA    WORD      module_key_nb_bak
      0200AD82H   PUBLIC    XDATA    WORD      init_pwd
      0200AD62H   PUBLIC    XDATA    ---       led_sta
      0200AD60H   PUBLIC    XDATA    WORD      channel
      0200AD4FH   PUBLIC    XDATA    ---       module_default_name
      0200AD4DH   PUBLIC    XDATA    WORD      num_return
      0200AC35H   PUBLIC    XDATA    ---       st_module
      0200AC33H   PUBLIC    XDATA    WORD      temp_adr
LX51 LINKER/LOCATER V4.66.97.0                                                        11/04/2023  11:13:39  PAGE 88


      0200AC22H   PUBLIC    XDATA    ---       module_no_name
      0200AC21H   PUBLIC    XDATA    BYTE      channel_number
      0200AC1FH   PUBLIC    XDATA    WORD      key
      0200AC1DH   PUBLIC    XDATA    WORD      module_type_bak
      0200AC1BH   PUBLIC    XDATA    WORD      adr
      0200AC19H   PUBLIC    XDATA    WORD      module_type
      0200AC18H   PUBLIC    XDATA    BYTE      var_previous_page
      0200AC17H   PUBLIC    XDATA    BYTE      module_select_sta_bak
      0200ABC9H   PUBLIC    XDATA    ---       module_name_tab
      0200AAB1H   PUBLIC    XDATA    ---       auto_module
      0200A999H   PUBLIC    XDATA    ---       temp_module
      0200A98FH   PUBLIC    XDATA    ---       module_tab
      0200A88FH   PUBLIC    XDATA    ---       default_module_channel_name
      0200A777H   PUBLIC    XDATA    ---       module
      0200A775H   PUBLIC    XDATA    WORD      num4
      0100B290H   PUBLIC    CODE     ---       simulate_touch
      0100CF9DH   PUBLIC    CODE     ---       init_flash_parameters
      010091B5H   PUBLIC    CODE     ---       module_modify
      0100BCB6H   PUBLIC    CODE     ---       return_page
      010065D7H   PUBLIC    CODE     ---       module_all_ctrl
      01008AC0H   PUBLIC    CODE     ---       auto_add_module
      0100AD2CH   PUBLIC    CODE     ---       automatically_retrieve
      0100D596H   PUBLIC    CODE     ---       _read_device_information
      0100CF20H   PUBLIC    CODE     ---       automatically_retrieve_cmd
      01009994H   PUBLIC    CODE     ---       batch_set_time_parameters
      0100A280H   PUBLIC    CODE     ---       timing_module_parameter_batch_send
      0200C83AH   PUBLIC    XDATA    BYTE      ?_run_timing_module_parameter_set?BYTE
      0100C5FBH   PUBLIC    CODE     ---       _run_timing_module_parameter_set
      0100D062H   PUBLIC    CODE     ---       clear_batch_set_var
      0100C86FH   PUBLIC    CODE     ---       black_screen_switches_to_home_page
      0100B3BFH   PUBLIC    CODE     ---       back_light_set
      0100B66EH   PUBLIC    CODE     ---       lock_screen_enable_ctrl
      0100CE3CH   PUBLIC    CODE     ---       _check_or_not_frame
      0100BAE8H   PUBLIC    CODE     ---       save_back_light_parameters
      01009333H   PUBLIC    CODE     ---       init_back_light_parameters
      0100B60DH   PUBLIC    CODE     ---       _starup_page_pwd
      0100D088H   PUBLIC    CODE     ---       _check_whether_the_passwords_are_consistent
      0100D6E4H   PUBLIC    CODE     ---       _clear_pwd
      0100A761H   PUBLIC    CODE     ---       select_beep_enable
      0100AAE0H   PUBLIC    CODE     ---       init_beep_enable
      0100BBFEH   PUBLIC    CODE     ---       select_password_enable
      0100A0C2H   PUBLIC    CODE     ---       _change_pwd
      0100ABCEH   PUBLIC    CODE     ---       init_pwd_f
      0100A023H   PUBLIC    CODE     ---       clear_all_module_information
      0100846DH   PUBLIC    CODE     ---       clear_select_module_information
      0100836CH   PUBLIC    CODE     ---       _modifying_module_information
      01006DDFH   PUBLIC    CODE     ---       _display_edit_interface
      01000086H   PUBLIC    CODE     ---       factory_data_reset
      0100CEF4H   PUBLIC    CODE     ---       module_touch_ctrl
      0100D44DH   PUBLIC    CODE     ---       _module_touch
      0100C07CH   PUBLIC    CODE     ---       _display_interface
      0100D47EH   PUBLIC    CODE     ---       _dim_ctrl
      0100C7E9H   PUBLIC    CODE     ---       _dim_refesh
      01007D32H   PUBLIC    CODE     ---       all_dim_on_off
      010079B2H   PUBLIC    CODE     ---       _dim_all_ctrl
      01005FE4H   PUBLIC    CODE     ---       _dim_single_ctrl
      0100D2C8H   PUBLIC    CODE     ---       _dim_read
      0100D466H   PUBLIC    CODE     ---       _relay_ctrl
      0100CDA4H   PUBLIC    CODE     ---       _relay_refesh
      010090F6H   PUBLIC    CODE     ---       all_module_on_off
      01008C5DH   PUBLIC    CODE     ---       _relay_all_ctrl
      01006243H   PUBLIC    CODE     ---       _relay_single_ctrl
      0100D584H   PUBLIC    CODE     ---       _relay_read
      0100B08FH   PUBLIC    CODE     ---       _timing_module_parameter_key_ctrl
      0200C842H   PUBLIC    XDATA    BYTE      ?_timing_module_parameter_ctrl?BYTE
LX51 LINKER/LOCATER V4.66.97.0                                                        11/04/2023  11:13:39  PAGE 89


      010096CEH   PUBLIC    CODE     ---       _timing_module_parameter_ctrl
      010098E4H   PUBLIC    CODE     ---       _timing_module_parameter_time_send
      0100553AH   PUBLIC    CODE     ---       _timing_module_parameter_ongitude_latitude_send
      0100C5B3H   PUBLIC    CODE     ---       select_either_or_all
      01009566H   PUBLIC    CODE     ---       _select_either_or_single
      0200C849H   PUBLIC    XDATA    BYTE      ?_timing_module_parameter_time_frame_channel_send?BYTE
      01005258H   PUBLIC    CODE     ---       _timing_module_parameter_time_frame_channel_send
      0200C849H   PUBLIC    XDATA    BYTE      ?_timing_module_parameter_solar_channel_send?BYTE
      01007C09H   PUBLIC    CODE     ---       _timing_module_parameter_solar_channel_send
      0200C849H   PUBLIC    XDATA    BYTE      ?_timing_module_parameter_week_enable_channel_send?BYTE
      010089ECH   PUBLIC    CODE     ---       _timing_module_parameter_week_enable_channel_send
      0200C864H   PUBLIC    XDATA    BYTE      ?_get_channel_set?BYTE
      0100BFD2H   PUBLIC    CODE     ---       _get_channel_set
      01006931H   PUBLIC    CODE     ---       _display_timing_module_parameter
      0100B8B0H   PUBLIC    CODE     ---       _display_time_frame_parameter
      0200C85DH   PUBLIC    XDATA    BYTE      ?_display_solar_parameter?BYTE
      0100B22AH   PUBLIC    CODE     ---       _display_solar_parameter
      0100B1C4H   PUBLIC    CODE     ---       _display_week_parameter
      0100C268H   PUBLIC    CODE     ---       _read_timing_module_set_parameter
      0100D65DH   PUBLIC    CODE     ---       return_to_previous_page
      0100C175H   PUBLIC    CODE     ---       _display_dim_interface
      01009037H   PUBLIC    CODE     ---       _display_relay_interface
      0200C845H   PUBLIC    XDATA    BYTE      ?_relay_interface_trigger?BYTE
      0100CA66H   PUBLIC    CODE     ---       _relay_interface_trigger
      0100AA63H   PUBLIC    CODE     ---       read_dgus_time
      0100D5FDH   PUBLIC    CODE     ---       _read_sys_time
      01007883H   PUBLIC    CODE     ---       set_module_type
      0100C569H   PUBLIC    CODE     ---       set_channel_nb
      0100BE1FH   PUBLIC    CODE     ---       _pic_set
      0100002EH   PUBLIC    CODE     ---       read_pic
      0100D180H   PUBLIC    CODE     ---       _delay_us
      0100CADDH   PUBLIC    CODE     ---       _get_box_select_number
      0200C83CH   PUBLIC    XDATA    BYTE      ?_set_box_select?BYTE
      01008B8FH   PUBLIC    CODE     ---       _set_box_select
      01006C5DH   PUBLIC    CODE     ---       _save_module_information
      0100890CH   PUBLIC    CODE     ---       _display_module_information
      0200C841H   PUBLIC    XDATA    BYTE      ?_set_module_information?BYTE
      0100A9E5H   PUBLIC    CODE     ---       _set_module_information
      0100C51FH   PUBLIC    CODE     ---       _find_index
      0100C0D0H   PUBLIC    CODE     ---       _check_whether_data_exists
      0100D3E5H   PUBLIC    CODE     ---       clear_touch_sta
      0100C6D3H   PUBLIC    CODE     ---       _clear_key_value
      0100D6DCH   PUBLIC    CODE     ---       _get_key_value
      000000F1H   SFRSYM    DATA     BYTE      ADR_H
      00000080H   SFRSYM    DATA     BYTE      P0
      00000090H   SFRSYM    DATA     BYTE      P1
      000000A0H   SFRSYM    DATA     BYTE      P2
      000000B0H   SFRSYM    DATA     BYTE      P3
      000000F3H   SFRSYM    DATA     BYTE      ADR_L
      000000D0H.6 SFRSYM    DATA     BIT       AC
      000000A0H.6 SFRSYM    DATA     BIT       Red_LED1
      00000094H   SFRSYM    DATA     BYTE      PAGESEL
      000000F2H   SFRSYM    DATA     BYTE      ADR_M
      000000A8H.7 SFRSYM    DATA     BIT       EA
      000000F8H   SFRSYM    DATA     BYTE      RAMMODE
      000000B7H   SFRSYM    DATA     BYTE      P0MDOUT
      000000BCH   SFRSYM    DATA     BYTE      P1MDOUT
      000000A8H   SFRSYM    DATA     BYTE      IEN0
      000000BDH   SFRSYM    DATA     BYTE      P2MDOUT
      000000B8H   SFRSYM    DATA     BYTE      IEN1
      000000BEH   SFRSYM    DATA     BYTE      P3MDOUT
      0000009AH   SFRSYM    DATA     BYTE      IEN2
      000000F8H.4 SFRSYM    DATA     BIT       APP_ACK
      000000F4H   SFRSYM    DATA     BYTE      ADR_INC
      000000B8H.1 SFRSYM    DATA     BIT       ECAN
LX51 LINKER/LOCATER V4.66.97.0                                                        11/04/2023  11:13:39  PAGE 90


      000000D0H.7 SFRSYM    DATA     BIT       CY
      000000B8H.3 SFRSYM    DATA     BIT       ES4R
      000000B8H.5 SFRSYM    DATA     BIT       ES5R
      000000B8H.2 SFRSYM    DATA     BIT       ES4T
      000000B8H.4 SFRSYM    DATA     BIT       ES5T
      000000B0H.3 SFRSYM    DATA     BIT       RTC_SDA
      00000081H   SFRSYM    DATA     BYTE      SP
      000000D0H.2 SFRSYM    DATA     BIT       OV
      00000095H   SFRSYM    DATA     BYTE      D_PAGESEL
      000000F8H.7 SFRSYM    DATA     BIT       APP_REQ
      000000B0H.2 SFRSYM    DATA     BIT       RTC_SCL
      000000BFH   SFRSYM    DATA     BYTE      IRCON2
      00000087H   SFRSYM    DATA     BYTE      PCON
      000000BAH   SFRSYM    DATA     BYTE      SREL2H
      000000BBH   SFRSYM    DATA     BYTE      SREL3H
      000000F9H   SFRSYM    DATA     BYTE      PORTDRV
      00000089H   SFRSYM    DATA     BYTE      TMOD
      00000088H   SFRSYM    DATA     BYTE      TCON
      000000AAH   SFRSYM    DATA     BYTE      SREL2L
      0000009DH   SFRSYM    DATA     BYTE      SREL3L
      000000FFH   SFRSYM    DATA     BYTE      EXDATA
      00000097H   SFRSYM    DATA     BYTE      SCON4R
      000000ABH   SFRSYM    DATA     BYTE      SCON5R
      000000D9H   SFRSYM    DATA     BYTE      BODE4_DIV_H
      000000AEH   SFRSYM    DATA     BYTE      BODE5_DIV_H
      00000096H   SFRSYM    DATA     BYTE      SCON4T
      000000A7H   SFRSYM    DATA     BYTE      SCON5T
      00000088H.1 SFRSYM    DATA     BIT       IE0
      00000088H.3 SFRSYM    DATA     BIT       IE1
      000000C9H   SFRSYM    DATA     BYTE      MUX_SEL
      000000E7H   SFRSYM    DATA     BYTE      BODE4_DIV_L
      000000AFH   SFRSYM    DATA     BYTE      BODE5_DIV_L
      000000F0H   SFRSYM    DATA     BYTE      B
      000000E0H   SFRSYM    DATA     BYTE      ACC
      0000008FH   SFRSYM    DATA     BYTE      CAN_CR
      000000A9H   SFRSYM    DATA     BYTE      IP0
      000000A8H.1 SFRSYM    DATA     BIT       ET0
      000000B9H   SFRSYM    DATA     BYTE      IP1
      000000A8H.3 SFRSYM    DATA     BIT       ET1
      000000A8H.4 SFRSYM    DATA     BIT       ES2
      00000088H.5 SFRSYM    DATA     BIT       TF0
      000000FDH   SFRSYM    DATA     BYTE      DATA0
      000000A8H.5 SFRSYM    DATA     BIT       ET2
      00000088H.7 SFRSYM    DATA     BIT       TF1
      000000E8H   SFRSYM    DATA     BYTE      CAN_ET
      000000FCH   SFRSYM    DATA     BYTE      DATA1
      000000C0H.6 SFRSYM    DATA     BIT       TF2
      0000008CH   SFRSYM    DATA     BYTE      TH0
      000000FBH   SFRSYM    DATA     BYTE      DATA2
      000000A8H.0 SFRSYM    DATA     BIT       EX0
      00000098H.0 SFRSYM    DATA     BIT       RI2
      0000008DH   SFRSYM    DATA     BYTE      TH1
      00000088H.0 SFRSYM    DATA     BIT       IT0
      00000091H   SFRSYM    DATA     BYTE      CAN_IR
      000000FAH   SFRSYM    DATA     BYTE      DATA3
      000000CDH   SFRSYM    DATA     BYTE      TH2
      000000A8H.2 SFRSYM    DATA     BIT       EX1
      00000088H.2 SFRSYM    DATA     BIT       IT1
      000000D0H.0 SFRSYM    DATA     BIT       P
      00000098H.1 SFRSYM    DATA     BIT       TI2
      0000008AH   SFRSYM    DATA     BYTE      TL0
      0000008BH   SFRSYM    DATA     BYTE      TL1
      000000CCH   SFRSYM    DATA     BYTE      TL2
      000000F8H.6 SFRSYM    DATA     BIT       APP_EN
      000000D0H.3 SFRSYM    DATA     BIT       RS0
LX51 LINKER/LOCATER V4.66.97.0                                                        11/04/2023  11:13:39  PAGE 91


      000000D0H.4 SFRSYM    DATA     BIT       RS1
      00000088H.4 SFRSYM    DATA     BIT       TR0
      00000093H   SFRSYM    DATA     BYTE      DPC
      00000088H.6 SFRSYM    DATA     BIT       TR1
      000000E5H   SFRSYM    DATA     BYTE      MAC_MODE
      000000C8H.0 SFRSYM    DATA     BIT       TR2
      00000080H.0 SFRSYM    DATA     BIT       TR4
      00000080H.1 SFRSYM    DATA     BIT       TR5
      000000A0H.7 SFRSYM    DATA     BIT       Green_LED2
      00000083H   SFRSYM    DATA     BYTE      DPH
      00000082H   SFRSYM    DATA     BYTE      DPL
      00000099H   SFRSYM    DATA     BYTE      SBUF2
      0000009CH   SFRSYM    DATA     BYTE      SBUF3
      000000D8H   SFRSYM    DATA     BYTE      ADCON
      00000098H   SFRSYM    DATA     BYTE      SCON2
      000000C8H   SFRSYM    DATA     BYTE      T2CON
      0000009BH   SFRSYM    DATA     BYTE      SCON3
      000000E6H   SFRSYM    DATA     BYTE      DIV_MODE
      000000F8H.5 SFRSYM    DATA     BIT       APP_RW
      000000CBH   SFRSYM    DATA     BYTE      TRL2H
      0000008EH   SFRSYM    DATA     BYTE      CKCON
      0000009FH   SFRSYM    DATA     BYTE      SBUF4_RX
      000000ADH   SFRSYM    DATA     BYTE      SBUF5_RX
      000000CAH   SFRSYM    DATA     BYTE      TRL2L
      0000009EH   SFRSYM    DATA     BYTE      SBUF4_TX
      000000ACH   SFRSYM    DATA     BYTE      SBUF5_TX
      000000FEH   SFRSYM    DATA     BYTE      EXADR
      000000D0H.5 SFRSYM    DATA     BIT       F0
      000000D0H.1 SFRSYM    DATA     BIT       F1
      000000D0H   SFRSYM    DATA     BYTE      PSW
      000000C0H   SFRSYM    DATA     BYTE      IRCON
      0200A774H   SYMBOL    XDATA    BYTE      para_set_fun
      0100EC9FH   SYMBOL    CONST    ---       _?ix1000
      0100ED75H   SYMBOL    CONST    ---       _?ix1010
      0100ECA7H   SYMBOL    CONST    ---       _?ix1001
      0100ED7DH   SYMBOL    CONST    ---       _?ix1011
      0100ECABH   SYMBOL    CONST    ---       _?ix1002
      0100ED81H   SYMBOL    CONST    ---       _?ix1012
      0100ECEBH   SYMBOL    CONST    ---       _?ix1003
      0100ED85H   SYMBOL    CONST    ---       _?ix1013
      0100ECF8H   SYMBOL    CONST    ---       _?ix1004
      0100ED89H   SYMBOL    CONST    ---       _?ix1014
      0100ED00H   SYMBOL    CONST    ---       _?ix1005
      0100ED8DH   SYMBOL    CONST    ---       _?ix1015
      0100ED11H   SYMBOL    CONST    ---       _?ix1006
      0100ED91H   SYMBOL    CONST    ---       _?ix1016
      0100ED21H   SYMBOL    CONST    ---       _?ix1007
      0100ED95H   SYMBOL    CONST    ---       _?ix1017
      0100ED5DH   SYMBOL    CONST    ---       _?ix1008
      0100ED99H   SYMBOL    CONST    ---       _?ix1018
      0100ED6DH   SYMBOL    CONST    ---       _?ix1009

      01003D14H   BLOCK     CODE     ---       LVL=0
      ---         BLOCKEND  ---      ---       LVL=0

      0100D6DCH   BLOCK     CODE     ---       LVL=0
      00000006H   SYMBOL    DATA     WORD      adr
      00000001H   SYMBOL    DATA     ---       key_value
      0100D6DCH   LINE      CODE     ---       #146
      0100D6DCH   LINE      CODE     ---       #147
      0100D6DCH   LINE      CODE     ---       #148
      ---         BLOCKEND  ---      ---       LVL=0

      0100C6D3H   BLOCK     CODE     ---       LVL=0
      0200C88FH   SYMBOL    XDATA    WORD      adr
LX51 LINKER/LOCATER V4.66.97.0                                                        11/04/2023  11:13:39  PAGE 92


      0200C891H   SYMBOL    XDATA    ---       key_value
      0100C6E1H   BLOCK     CODE     NEAR LAB  LVL=1
      0200C894H   SYMBOL    XDATA    WORD      key_zero
      ---         BLOCKEND  ---      ---       LVL=1
      0100C6D3H   LINE      CODE     ---       #151
      0100C6E1H   LINE      CODE     ---       #152
      0100C6E1H   LINE      CODE     ---       #153
      0100C6E8H   LINE      CODE     ---       #154
      0100C708H   LINE      CODE     ---       #155
      ---         BLOCKEND  ---      ---       LVL=0

      0100D3E5H   BLOCK     CODE     ---       LVL=0
      0100D3E5H   BLOCK     CODE     NEAR LAB  LVL=1
      0200C842H   SYMBOL    XDATA    ---       tab_zero
      ---         BLOCKEND  ---      ---       LVL=1
      0100D3E5H   LINE      CODE     ---       #159
      0100D3E5H   LINE      CODE     ---       #160
      0100D3E5H   LINE      CODE     ---       #161
      0100D3F0H   LINE      CODE     ---       #162
      ---         BLOCKEND  ---      ---       LVL=0

      0100C0D0H   BLOCK     CODE     ---       LVL=0
      0200C849H   SYMBOL    XDATA    WORD      adr_start
      0200C84BH   SYMBOL    XDATA    BYTE      index
      0200C84CH   SYMBOL    XDATA    BYTE      flash_block
      0100C0D9H   BLOCK     CODE     NEAR LAB  LVL=1
      0200C84DH   SYMBOL    XDATA    BYTE      ch_data
      0200C84EH   SYMBOL    XDATA    ---       tab_data
      ---         BLOCKEND  ---      ---       LVL=1
      0100C0D0H   LINE      CODE     ---       #166
      0100C0D9H   LINE      CODE     ---       #167
      0100C0D9H   LINE      CODE     ---       #168
      0100C0DCH   LINE      CODE     ---       #169
      0100C0E7H   LINE      CODE     ---       #170
      0100C10EH   LINE      CODE     ---       #172
      0100C117H   LINE      CODE     ---       #173
      0100C117H   LINE      CODE     ---       #174
      0100C118H   LINE      CODE     ---       #176
      0100C11AH   LINE      CODE     ---       #178
      0100C11DH   LINE      CODE     ---       #180
      0100C122H   LINE      CODE     ---       #181
      ---         BLOCKEND  ---      ---       LVL=0

      0100C51FH   BLOCK     CODE     ---       LVL=0
      0200C842H   SYMBOL    XDATA    WORD      adr_start
      0200C844H   SYMBOL    XDATA    BYTE      flash_size
      0200C845H   SYMBOL    XDATA    WORD      quantity
      0100C529H   BLOCK     CODE     NEAR LAB  LVL=1
      0200C847H   SYMBOL    XDATA    WORD      index
      ---         BLOCKEND  ---      ---       LVL=1
      0100C51FH   LINE      CODE     ---       #184
      0100C529H   LINE      CODE     ---       #185
      0100C529H   LINE      CODE     ---       #186
      0100C52CH   LINE      CODE     ---       #187
      0100C542H   LINE      CODE     ---       #188
      0100C542H   LINE      CODE     ---       #189
      0100C54FH   LINE      CODE     ---       #190
      0100C54FH   LINE      CODE     ---       #191
      0100C558H   LINE      CODE     ---       #192
      0100C558H   LINE      CODE     ---       #193
      0100C564H   LINE      CODE     ---       #194
      0100C568H   LINE      CODE     ---       #195
      ---         BLOCKEND  ---      ---       LVL=0

      0100A9E5H   BLOCK     CODE     ---       LVL=0
LX51 LINKER/LOCATER V4.66.97.0                                                        11/04/2023  11:13:39  PAGE 93


      0200C841H   SYMBOL    XDATA    ---       p
      00000005H   SYMBOL    DATA     BYTE      index
      0200C845H   SYMBOL    XDATA    WORD      module_type
      0100A9EBH   BLOCK     CODE     NEAR LAB  LVL=1
      0200C847H   SYMBOL    XDATA    WORD      temp
      ---         BLOCKEND  ---      ---       LVL=1
      0100A9E5H   LINE      CODE     ---       #198
      0100A9EBH   LINE      CODE     ---       #199
      0100A9EBH   LINE      CODE     ---       #200
      0100A9F2H   LINE      CODE     ---       #217
      0100A9F9H   LINE      CODE     ---       #218
      0100AA02H   LINE      CODE     ---       #219
      0100AA09H   LINE      CODE     ---       #220
      0100AA12H   LINE      CODE     ---       #221
      0100AA1CH   LINE      CODE     ---       #223
      0100AA28H   LINE      CODE     ---       #229
      0100AA3BH   LINE      CODE     ---       #230
      0100AA43H   LINE      CODE     ---       #231
      0100AA53H   LINE      CODE     ---       #236
      ---         BLOCKEND  ---      ---       LVL=0

      0100890CH   BLOCK     CODE     ---       LVL=0
      0200C841H   SYMBOL    XDATA    ---       p
      0200C844H   SYMBOL    XDATA    BYTE      index
      01008917H   BLOCK     CODE     NEAR LAB  LVL=1
      0200C845H   SYMBOL    XDATA    ---       mod_infom_tab
      0200C885H   SYMBOL    XDATA    ---       module_name_1
      ---         BLOCKEND  ---      ---       LVL=1
      0100890CH   LINE      CODE     ---       #238
      01008917H   LINE      CODE     ---       #239
      01008917H   LINE      CODE     ---       #240
      01008924H   LINE      CODE     ---       #241
      01008931H   LINE      CODE     ---       #243
      01008941H   LINE      CODE     ---       #244
      01008941H   LINE      CODE     ---       #245
      01008946H   LINE      CODE     ---       #246
      01008948H   LINE      CODE     ---       #247
      01008953H   LINE      CODE     ---       #248
      01008953H   LINE      CODE     ---       #249
      01008958H   LINE      CODE     ---       #250
      0100895AH   LINE      CODE     ---       #252
      0100895AH   LINE      CODE     ---       #253
      0100896DH   LINE      CODE     ---       #254
      0100896DH   LINE      CODE     ---       #256
      01008998H   LINE      CODE     ---       #260
      010089D1H   LINE      CODE     ---       #263
      ---         BLOCKEND  ---      ---       LVL=0

      01006C5DH   BLOCK     CODE     ---       LVL=0
      0200C83CH   SYMBOL    XDATA    ---       p
      01006C63H   BLOCK     CODE     NEAR LAB  LVL=1
      0200C83FH   SYMBOL    XDATA    WORD      key_nb2
      ---         BLOCKEND  ---      ---       LVL=1
      01006C5DH   LINE      CODE     ---       #293
      01006C63H   LINE      CODE     ---       #294
      01006C63H   LINE      CODE     ---       #296
      01006C6AH   LINE      CODE     ---       #318
      01006C70H   LINE      CODE     ---       #319
      01006C7DH   LINE      CODE     ---       #324
      01006CBDH   LINE      CODE     ---       #325
      01006CBDH   LINE      CODE     ---       #326
      01006CBEH   LINE      CODE     ---       #327
      01006CBEH   LINE      CODE     ---       #328
      01006CCAH   LINE      CODE     ---       #329
      01006CD4H   LINE      CODE     ---       #330
LX51 LINKER/LOCATER V4.66.97.0                                                        11/04/2023  11:13:39  PAGE 94


      01006CE6H   LINE      CODE     ---       #331
      01006CEDH   LINE      CODE     ---       #332
      01006CFCH   LINE      CODE     ---       #333
      01006CFCH   LINE      CODE     ---       #334
      01006D01H   LINE      CODE     ---       #335
      01006D0AH   LINE      CODE     ---       #336
      01006D13H   LINE      CODE     ---       #338
      01006D13H   LINE      CODE     ---       #339
      01006D24H   LINE      CODE     ---       #342
      01006D39H   LINE      CODE     ---       #344
      01006D56H   LINE      CODE     ---       #345
      01006D6EH   LINE      CODE     ---       #346
      01006D74H   LINE      CODE     ---       #347
      01006D7DH   LINE      CODE     ---       #348
      01006D87H   LINE      CODE     ---       #349
      01006D87H   LINE      CODE     ---       #350
      01006D93H   LINE      CODE     ---       #351
      01006D93H   LINE      CODE     ---       #352
      01006D95H   LINE      CODE     ---       #354
      01006D95H   LINE      CODE     ---       #355
      01006D9BH   LINE      CODE     ---       #356
      01006DA2H   LINE      CODE     ---       #357
      01006DA2H   LINE      CODE     ---       #358
      01006DA9H   LINE      CODE     ---       #359
      01006DAAH   LINE      CODE     ---       #360
      01006DB5H   LINE      CODE     ---       #361
      01006DB5H   LINE      CODE     ---       #362
      01006DB5H   LINE      CODE     ---       #363
      01006DB5H   LINE      CODE     ---       #364
      01006DC1H   LINE      CODE     ---       #365
      01006DCBH   LINE      CODE     ---       #374
      01006DCBH   LINE      CODE     ---       #377
      ---         BLOCKEND  ---      ---       LVL=0
      0200A759H   SYMBOL    XDATA    BYTE      select_sta
      0200A75AH   SYMBOL    XDATA    BYTE      page

      01008B8FH   BLOCK     CODE     ---       LVL=0
      0200C83CH   SYMBOL    XDATA    WORD      touch_key_adr
      0200C83EH   SYMBOL    XDATA    WORD      select_key_adr
      0200C840H   SYMBOL    XDATA    BYTE      nb
      0200C841H   SYMBOL    XDATA    ---       p_key_nb_bak
      0200C844H   SYMBOL    XDATA    ---       p_select_sta
      01008B9FH   BLOCK     CODE     NEAR LAB  LVL=1
      0200C847H   SYMBOL    XDATA    WORD      key_nb
      0200C849H   SYMBOL    XDATA    BYTE      i
      ---         BLOCKEND  ---      ---       LVL=1
      01008B8FH   LINE      CODE     ---       #412
      01008B9FH   LINE      CODE     ---       #413
      01008B9FH   LINE      CODE     ---       #414
      01008BA2H   LINE      CODE     ---       #417
      01008BA2H   LINE      CODE     ---       #418
      01008BACH   LINE      CODE     ---       #420
      01008BB9H   LINE      CODE     ---       #421
      01008BB9H   LINE      CODE     ---       #422
      01008BCCH   LINE      CODE     ---       #423
      01008BCCH   LINE      CODE     ---       #424
      01008BE2H   LINE      CODE     ---       #425
      01008BE2H   LINE      CODE     ---       #426
      01008BE2H   LINE      CODE     ---       #427
      01008BE2H   LINE      CODE     ---       #428
      01008BF2H   LINE      CODE     ---       #429
      01008BFAH   LINE      CODE     ---       #430
      01008C14H   LINE      CODE     ---       #431
      01008C14H   LINE      CODE     ---       #432
      01008C1AH   LINE      CODE     ---       #433
LX51 LINKER/LOCATER V4.66.97.0                                                        11/04/2023  11:13:39  PAGE 95


      01008C24H   LINE      CODE     ---       #434
      01008C24H   LINE      CODE     ---       #436
      01008C2CH   LINE      CODE     ---       #438
      01008C4FH   LINE      CODE     ---       #439
      01008C5CH   LINE      CODE     ---       #440
      01008C5CH   LINE      CODE     ---       #441
      ---         BLOCKEND  ---      ---       LVL=0

      0100CADDH   BLOCK     CODE     ---       LVL=0
      0200C84AH   SYMBOL    XDATA    WORD      select_key_adr
      0200C84CH   SYMBOL    XDATA    BYTE      nb
      0100CAE3H   BLOCK     CODE     NEAR LAB  LVL=1
      0200C84DH   SYMBOL    XDATA    BYTE      i
      00000007H   SYMBOL    DATA     BYTE      seq_nb
      ---         BLOCKEND  ---      ---       LVL=1
      0100CADDH   LINE      CODE     ---       #445
      0100CAE3H   LINE      CODE     ---       #446
      0100CAE3H   LINE      CODE     ---       #447
      0100CAE6H   LINE      CODE     ---       #448
      0100CAE6H   LINE      CODE     ---       #449
      0100CAF3H   LINE      CODE     ---       #450
      0100CAF3H   LINE      CODE     ---       #451
      0100CB02H   LINE      CODE     ---       #452
      0100CB05H   LINE      CODE     ---       #453
      0100CB05H   LINE      CODE     ---       #454
      0100CB0BH   LINE      CODE     ---       #456
      0100CB0CH   LINE      CODE     ---       #457
      0100CB0CH   LINE      CODE     ---       #458
      0100CB14H   LINE      CODE     ---       #459
      0100CB16H   LINE      CODE     ---       #460
      ---         BLOCKEND  ---      ---       LVL=0
      00000007H   SYMBOL    DATA     BYTE      seq_nb

      0100D180H   BLOCK     CODE     ---       LVL=0
      00000006H   SYMBOL    DATA     WORD      t
      0100D180H   BLOCK     CODE     NEAR LAB  LVL=1
      00000005H   SYMBOL    DATA     CHAR      i
      ---         BLOCKEND  ---      ---       LVL=1
      0100D180H   LINE      CODE     ---       #477
      0100D180H   LINE      CODE     ---       #478
      0100D180H   LINE      CODE     ---       #480
      0100D184H   LINE      CODE     ---       #481
      0100D184H   LINE      CODE     ---       #482
      0100D197H   LINE      CODE     ---       #483
      0100D197H   LINE      CODE     ---       #484
      0100D197H   LINE      CODE     ---       #485
      0100D19AH   LINE      CODE     ---       #486
      0100D19FH   LINE      CODE     ---       #487
      0100D1A1H   LINE      CODE     ---       #488
      ---         BLOCKEND  ---      ---       LVL=0

      0100002EH   BLOCK     CODE     ---       LVL=0
      0100002EH   BLOCK     CODE     NEAR LAB  LVL=1
      0200C85DH   SYMBOL    XDATA    WORD      pic
      ---         BLOCKEND  ---      ---       LVL=1
      0100002EH   LINE      CODE     ---       #490
      0100002EH   LINE      CODE     ---       #491
      0100002EH   LINE      CODE     ---       #492
      01000035H   LINE      CODE     ---       #493
      01000043H   LINE      CODE     ---       #494
      0100004AH   LINE      CODE     ---       #495
      01000052H   LINE      CODE     ---       #496
      ---         BLOCKEND  ---      ---       LVL=0

      0100BE1FH   BLOCK     CODE     ---       LVL=0
LX51 LINKER/LOCATER V4.66.97.0                                                        11/04/2023  11:13:39  PAGE 96


      0200C85BH   SYMBOL    XDATA    WORD      pic
      0100BE25H   BLOCK     CODE     NEAR LAB  LVL=1
      0200C85DH   SYMBOL    XDATA    WORD      run_num
      ---         BLOCKEND  ---      ---       LVL=1
      0100BE1FH   LINE      CODE     ---       #499
      0100BE25H   LINE      CODE     ---       #500
      0100BE25H   LINE      CODE     ---       #501
      0100BE28H   LINE      CODE     ---       #502
      0100BE32H   LINE      CODE     ---       #503
      0100BE43H   LINE      CODE     ---       #504
      0100BE55H   LINE      CODE     ---       #505
      0100BE5BH   LINE      CODE     ---       #506
      0100BE5BH   LINE      CODE     ---       #507
      0100BE6DH   LINE      CODE     ---       #508
      0100BE74H   LINE      CODE     ---       #509
      0100BE76H   LINE      CODE     ---       #510
      ---         BLOCKEND  ---      ---       LVL=0

      0100C569H   BLOCK     CODE     ---       LVL=0
      0100C569H   LINE      CODE     ---       #512
      0100C569H   LINE      CODE     ---       #513
      0100C569H   LINE      CODE     ---       #514
      0100C578H   LINE      CODE     ---       #517
      0100C578H   LINE      CODE     ---       #518
      0100C5A0H   LINE      CODE     ---       #519
      0100C5A0H   LINE      CODE     ---       #520
      0100C5A0H   LINE      CODE     ---       #523
      0100C5A0H   LINE      CODE     ---       #524
      0100C5A0H   LINE      CODE     ---       #530
      0100C5A0H   LINE      CODE     ---       #536
      0100C5A0H   LINE      CODE     ---       #542
      0100C5A0H   LINE      CODE     ---       #548
      0100C5A0H   LINE      CODE     ---       #554
      0100C5A0H   LINE      CODE     ---       #556
      0100C5A0H   LINE      CODE     ---       #559
      0100C5A0H   LINE      CODE     ---       #560
      0100C5B2H   LINE      CODE     ---       #565
      0100C5B2H   LINE      CODE     ---       #566
      0100C5B2H   LINE      CODE     ---       #568
      0100C5B2H   LINE      CODE     ---       #569
      0100C5B2H   LINE      CODE     ---       #570
      0100C5B2H   LINE      CODE     ---       #571
      ---         BLOCKEND  ---      ---       LVL=0

      01007883H   BLOCK     CODE     ---       LVL=0
      01007883H   BLOCK     CODE     NEAR LAB  LVL=1
      0200C83CH   SYMBOL    XDATA    WORD      default_channel
      ---         BLOCKEND  ---      ---       LVL=1
      01007883H   LINE      CODE     ---       #574
      01007883H   LINE      CODE     ---       #575
      01007883H   LINE      CODE     ---       #585
      0100788CH   LINE      CODE     ---       #587
      0100789DH   LINE      CODE     ---       #590
      010078C8H   LINE      CODE     ---       #591
      010078C8H   LINE      CODE     ---       #592
      010078C8H   LINE      CODE     ---       #593
      010078C8H   LINE      CODE     ---       #594
      010078D1H   LINE      CODE     ---       #598
      010078D1H   LINE      CODE     ---       #599
      010078D1H   LINE      CODE     ---       #601
      010078D3H   LINE      CODE     ---       #602
      010078D3H   LINE      CODE     ---       #603
      010078D3H   LINE      CODE     ---       #604
      010078D9H   LINE      CODE     ---       #606
      010078E2H   LINE      CODE     ---       #607
LX51 LINKER/LOCATER V4.66.97.0                                                        11/04/2023  11:13:39  PAGE 97


      010078E2H   LINE      CODE     ---       #608
      010078E2H   LINE      CODE     ---       #610
      010078E4H   LINE      CODE     ---       #611
      010078E4H   LINE      CODE     ---       #612
      010078EBH   LINE      CODE     ---       #613
      010078EEH   LINE      CODE     ---       #615
      010078F7H   LINE      CODE     ---       #616
      010078F7H   LINE      CODE     ---       #617
      010078F7H   LINE      CODE     ---       #619
      010078F9H   LINE      CODE     ---       #621
      010078F9H   LINE      CODE     ---       #622
      01007900H   LINE      CODE     ---       #623
      01007900H   LINE      CODE     ---       #624
      01007903H   LINE      CODE     ---       #625
      01007903H   LINE      CODE     ---       #626
      01007903H   LINE      CODE     ---       #629
      01007905H   LINE      CODE     ---       #630
      01007905H   LINE      CODE     ---       #631
      0100790CH   LINE      CODE     ---       #632
      0100790CH   LINE      CODE     ---       #633
      0100790FH   LINE      CODE     ---       #634
      0100790FH   LINE      CODE     ---       #635
      0100790FH   LINE      CODE     ---       #642
      01007911H   LINE      CODE     ---       #643
      01007911H   LINE      CODE     ---       #644
      01007918H   LINE      CODE     ---       #645
      0100791EH   LINE      CODE     ---       #646
      01007927H   LINE      CODE     ---       #647
      01007927H   LINE      CODE     ---       #648
      01007927H   LINE      CODE     ---       #652
      01007929H   LINE      CODE     ---       #653
      01007929H   LINE      CODE     ---       #654
      01007930H   LINE      CODE     ---       #655
      01007936H   LINE      CODE     ---       #656
      01007942H   LINE      CODE     ---       #657
      01007942H   LINE      CODE     ---       #658
      01007942H   LINE      CODE     ---       #663
      01007944H   LINE      CODE     ---       #664
      01007944H   LINE      CODE     ---       #666
      01007947H   LINE      CODE     ---       #667
      0100794BH   LINE      CODE     ---       #668
      0100795DH   LINE      CODE     ---       #674
      0100795DH   LINE      CODE     ---       #675
      0100795DH   LINE      CODE     ---       #677
      ---         BLOCKEND  ---      ---       LVL=0

      0100D5FDH   BLOCK     CODE     ---       LVL=0
      00000001H   SYMBOL    DATA     ---       p
      0100D5FDH   LINE      CODE     ---       #679
      0100D5FDH   LINE      CODE     ---       #680
      0100D5FDH   LINE      CODE     ---       #681
      ---         BLOCKEND  ---      ---       LVL=0

      0100AA63H   BLOCK     CODE     ---       LVL=0
      0100AA63H   BLOCK     CODE     NEAR LAB  LVL=1
      0200C83AH   SYMBOL    XDATA    WORD      key_nb
      0200C83CH   SYMBOL    XDATA    ---       rtc_parm
      ---         BLOCKEND  ---      ---       LVL=1
      0100AA63H   LINE      CODE     ---       #684
      0100AA63H   LINE      CODE     ---       #685
      0100AA63H   LINE      CODE     ---       #686
      0100AA6AH   LINE      CODE     ---       #687
      0100AA75H   LINE      CODE     ---       #691
      0100AA7BH   LINE      CODE     ---       #692
      0100AA87H   LINE      CODE     ---       #693
LX51 LINKER/LOCATER V4.66.97.0                                                        11/04/2023  11:13:39  PAGE 98


      0100AA87H   LINE      CODE     ---       #695
      0100AA8DH   LINE      CODE     ---       #698
      0100AA95H   LINE      CODE     ---       #699
      0100AA9DH   LINE      CODE     ---       #700
      0100AAA5H   LINE      CODE     ---       #701
      0100AAADH   LINE      CODE     ---       #702
      0100AAB0H   LINE      CODE     ---       #703
      0100AAB9H   LINE      CODE     ---       #705
      0100AAC2H   LINE      CODE     ---       #706
      0100AAC9H   LINE      CODE     ---       #708
      0100AACFH   LINE      CODE     ---       #709
      0100AADFH   LINE      CODE     ---       #710
      0100AADFH   LINE      CODE     ---       #711
      ---         BLOCKEND  ---      ---       LVL=0

      0100CA66H   BLOCK     CODE     ---       LVL=0
      00000001H   SYMBOL    DATA     ---       p
      0200C848H   SYMBOL    XDATA    BYTE      relay_page
      0200C849H   SYMBOL    XDATA    BYTE      time_relay_page
      0200C84AH   SYMBOL    XDATA    ---       p_var_page
      0100CA66H   LINE      CODE     ---       #720
      0100CA6BH   LINE      CODE     ---       #721
      0100CA6BH   LINE      CODE     ---       #722
      0100CA76H   LINE      CODE     ---       #723
      0100CA76H   LINE      CODE     ---       #724
      0100CA80H   LINE      CODE     ---       #725
      0100CA88H   LINE      CODE     ---       #726
      0100CA8AH   LINE      CODE     ---       #728
      0100CA8AH   LINE      CODE     ---       #729
      0100CA94H   LINE      CODE     ---       #730
      0100CAA1H   LINE      CODE     ---       #731
      0100CAA1H   LINE      CODE     ---       #732
      ---         BLOCKEND  ---      ---       LVL=0

      01009037H   BLOCK     CODE     ---       LVL=0
      0200C842H   SYMBOL    XDATA    ---       p
      01009037H   LINE      CODE     ---       #734
      0100903DH   LINE      CODE     ---       #735
      0100903DH   LINE      CODE     ---       #736
      0100904AH   LINE      CODE     ---       #738
      0100905DH   LINE      CODE     ---       #739
      01009070H   LINE      CODE     ---       #740
      01009092H   LINE      CODE     ---       #741
      01009092H   LINE      CODE     ---       #742
      01009092H   LINE      CODE     ---       #743
      010090B0H   LINE      CODE     ---       #744
      010090B2H   LINE      CODE     ---       #745
      010090B2H   LINE      CODE     ---       #746
      010090B9H   LINE      CODE     ---       #747
      010090BBH   LINE      CODE     ---       #748
      010090BBH   LINE      CODE     ---       #749
      010090C2H   LINE      CODE     ---       #751
      010090C4H   LINE      CODE     ---       #752
      010090C4H   LINE      CODE     ---       #753
      010090CEH   LINE      CODE     ---       #754
      010090D0H   LINE      CODE     ---       #755
      010090D0H   LINE      CODE     ---       #756
      010090DAH   LINE      CODE     ---       #757
      010090DCH   LINE      CODE     ---       #758
      010090DCH   LINE      CODE     ---       #759
      010090E6H   LINE      CODE     ---       #760
      010090E8H   LINE      CODE     ---       #761
      010090E8H   LINE      CODE     ---       #762
      010090F5H   LINE      CODE     ---       #763
      010090F5H   LINE      CODE     ---       #764
LX51 LINKER/LOCATER V4.66.97.0                                                        11/04/2023  11:13:39  PAGE 99


      010090F5H   LINE      CODE     ---       #765
      010090F5H   LINE      CODE     ---       #766
      010090F5H   LINE      CODE     ---       #767
      ---         BLOCKEND  ---      ---       LVL=0

      0100C175H   BLOCK     CODE     ---       LVL=0
      0200C842H   SYMBOL    XDATA    ---       p
      0100C175H   LINE      CODE     ---       #769
      0100C17BH   LINE      CODE     ---       #770
      0100C17BH   LINE      CODE     ---       #771
      0100C188H   LINE      CODE     ---       #773
      0100C19BH   LINE      CODE     ---       #774
      0100C1AEH   LINE      CODE     ---       #775
      0100C1BBH   LINE      CODE     ---       #776
      0100C1BBH   LINE      CODE     ---       #777
      0100C1BBH   LINE      CODE     ---       #778
      0100C1BDH   LINE      CODE     ---       #779
      0100C1BFH   LINE      CODE     ---       #780
      0100C1BFH   LINE      CODE     ---       #781
      0100C1C6H   LINE      CODE     ---       #782
      0100C1C6H   LINE      CODE     ---       #783
      0100C1C6H   LINE      CODE     ---       #784
      0100C1C6H   LINE      CODE     ---       #785
      0100C1C6H   LINE      CODE     ---       #786
      ---         BLOCKEND  ---      ---       LVL=0

      0100D65DH   BLOCK     CODE     ---       LVL=0
      0100D65DH   LINE      CODE     ---       #791
      0100D65DH   LINE      CODE     ---       #792
      0100D65DH   LINE      CODE     ---       #793
      ---         BLOCKEND  ---      ---       LVL=0

      0100C268H   BLOCK     CODE     ---       LVL=0
      0200C83AH   SYMBOL    XDATA    ---       p
      0100C26EH   BLOCK     CODE     NEAR LAB  LVL=1
      0200C83DH   SYMBOL    XDATA    WORD      key_nb
      ---         BLOCKEND  ---      ---       LVL=1
      0100C268H   LINE      CODE     ---       #809
      0100C26EH   LINE      CODE     ---       #810
      0100C26EH   LINE      CODE     ---       #811
      0100C271H   LINE      CODE     ---       #812
      0100C27FH   LINE      CODE     ---       #813
      0100C287H   LINE      CODE     ---       #814
      0100C287H   LINE      CODE     ---       #817
      0100C28DH   LINE      CODE     ---       #818
      0100C28DH   LINE      CODE     ---       #819
      0100C292H   LINE      CODE     ---       #820
      0100C2A4H   LINE      CODE     ---       #821
      0100C2AAH   LINE      CODE     ---       #822
      0100C2AAH   LINE      CODE     ---       #824
      0100C2B7H   LINE      CODE     ---       #825
      0100C2B7H   LINE      CODE     ---       #826
      ---         BLOCKEND  ---      ---       LVL=0

      0100B1C4H   BLOCK     CODE     ---       LVL=0
      0200C85DH   SYMBOL    XDATA    WORD      week_enable_adr
      0200C85FH   SYMBOL    XDATA    BYTE      week_enable
      0100B1CAH   BLOCK     CODE     NEAR LAB  LVL=1
      0200C860H   SYMBOL    XDATA    BYTE      i
      0200A75BH   SYMBOL    XDATA    BYTE      week_enable_bak
      ---         BLOCKEND  ---      ---       LVL=1
      0100B1C4H   LINE      CODE     ---       #828
      0100B1CAH   LINE      CODE     ---       #829
      0100B1CAH   LINE      CODE     ---       #830
      0100B1CDH   LINE      CODE     ---       #832
LX51 LINKER/LOCATER V4.66.97.0                                                        11/04/2023  11:13:39  PAGE 100


      0100B1D4H   LINE      CODE     ---       #833
      0100B1D4H   LINE      CODE     ---       #834
      0100B1DCH   LINE      CODE     ---       #835
      0100B1E9H   LINE      CODE     ---       #836
      0100B1FBH   LINE      CODE     ---       #837
      0100B1FBH   LINE      CODE     ---       #838
      0100B221H   LINE      CODE     ---       #839
      0100B229H   LINE      CODE     ---       #840
      0100B229H   LINE      CODE     ---       #841
      ---         BLOCKEND  ---      ---       LVL=0

      0100B22AH   BLOCK     CODE     ---       LVL=0
      0200C85DH   SYMBOL    XDATA    WORD      solar_adr
      00000004H   SYMBOL    DATA     WORD      solar_en_adr
      00000003H   SYMBOL    DATA     BYTE      solar_enable
      0200C862H   SYMBOL    XDATA    BYTE      solar_up
      0200C863H   SYMBOL    XDATA    BYTE      solar_down
      0100B232H   BLOCK     CODE     NEAR LAB  LVL=1
      0200A75CH   SYMBOL    XDATA    BYTE      solar_down_bak
      0200A75DH   SYMBOL    XDATA    BYTE      solar_up_bak
      0200A75EH   SYMBOL    XDATA    BYTE      solar_en_bak
      ---         BLOCKEND  ---      ---       LVL=1
      0100B22AH   LINE      CODE     ---       #843
      0100B232H   LINE      CODE     ---       #844
      0100B232H   LINE      CODE     ---       #846
      0100B239H   LINE      CODE     ---       #847
      0100B239H   LINE      CODE     ---       #848
      0100B23BH   LINE      CODE     ---       #849
      0100B245H   LINE      CODE     ---       #850
      0100B245H   LINE      CODE     ---       #851
      0100B251H   LINE      CODE     ---       #852
      0100B251H   LINE      CODE     ---       #853
      0100B25AH   LINE      CODE     ---       #854
      0100B26DH   LINE      CODE     ---       #855
      0100B26DH   LINE      CODE     ---       #856
      0100B279H   LINE      CODE     ---       #857
      0100B279H   LINE      CODE     ---       #858
      0100B282H   LINE      CODE     ---       #859
      0100B28FH   LINE      CODE     ---       #860
      0100B28FH   LINE      CODE     ---       #861
      ---         BLOCKEND  ---      ---       LVL=0

      0100B8B0H   BLOCK     CODE     ---       LVL=0
      0200C85DH   SYMBOL    XDATA    WORD      time_frame_adr
      0200C85FH   SYMBOL    XDATA    ---       p_data
      0100B8BCH   BLOCK     CODE     NEAR LAB  LVL=1
      0200A75FH   SYMBOL    XDATA    ---       time_frame_bak
      0200C862H   SYMBOL    XDATA    BYTE      i
      ---         BLOCKEND  ---      ---       LVL=1
      0100B8B0H   LINE      CODE     ---       #864
      0100B8BCH   LINE      CODE     ---       #865
      0100B8BCH   LINE      CODE     ---       #867
      0100B8C1H   LINE      CODE     ---       #868
      0100B8CAH   LINE      CODE     ---       #869
      0100B8CAH   LINE      CODE     ---       #870
      0100B8DFH   LINE      CODE     ---       #871
      0100B8DFH   LINE      CODE     ---       #872
      0100B8EDH   LINE      CODE     ---       #873
      0100B906H   LINE      CODE     ---       #874
      0100B906H   LINE      CODE     ---       #875
      0100B90EH   LINE      CODE     ---       #876
      ---         BLOCKEND  ---      ---       LVL=0

      01006931H   BLOCK     CODE     ---       LVL=0
      0200C83CH   SYMBOL    XDATA    ---       p
LX51 LINKER/LOCATER V4.66.97.0                                                        11/04/2023  11:13:39  PAGE 101


      0200C83FH   SYMBOL    XDATA    BYTE      channel
      0100693CH   BLOCK     CODE     NEAR LAB  LVL=1
      0200C840H   SYMBOL    XDATA    WORD      week_enable_adr
      0200C842H   SYMBOL    XDATA    BYTE      week_enable
      0200C843H   SYMBOL    XDATA    WORD      solar_adr
      0200C845H   SYMBOL    XDATA    WORD      solar_en_adr
      0200C847H   SYMBOL    XDATA    BYTE      solar_enable
      0200C848H   SYMBOL    XDATA    BYTE      solar_up
      0200C849H   SYMBOL    XDATA    BYTE      solar_down
      0200C84AH   SYMBOL    XDATA    WORD      time_frame_adr
      0200C84CH   SYMBOL    XDATA    ---       p_data
      ---         BLOCKEND  ---      ---       LVL=1
      01006931H   LINE      CODE     ---       #878
      0100693CH   LINE      CODE     ---       #879
      0100693CH   LINE      CODE     ---       #880
      0100693EH   LINE      CODE     ---       #881
      0100693EH   LINE      CODE     ---       #882
      0100693EH   LINE      CODE     ---       #883
      01006941H   LINE      CODE     ---       #884
      01006941H   LINE      CODE     ---       #885
      01006941H   LINE      CODE     ---       #886
      01006941H   LINE      CODE     ---       #887
      01006944H   LINE      CODE     ---       #888
      01006951H   LINE      CODE     ---       #889
      0100695DH   LINE      CODE     ---       #892
      01006973H   LINE      CODE     ---       #893
      01006973H   LINE      CODE     ---       #894
      0100697FH   LINE      CODE     ---       #895
      01006984H   LINE      CODE     ---       #896
      01006987H   LINE      CODE     ---       #897
      01006990H   LINE      CODE     ---       #898
      0100699FH   LINE      CODE     ---       #899
      0100699FH   LINE      CODE     ---       #900
      010069A3H   LINE      CODE     ---       #901
      010069B6H   LINE      CODE     ---       #902
      010069BBH   LINE      CODE     ---       #903
      010069C4H   LINE      CODE     ---       #904
      010069CEH   LINE      CODE     ---       #905
      010069D0H   LINE      CODE     ---       #906
      010069DFH   LINE      CODE     ---       #907
      010069DFH   LINE      CODE     ---       #908
      010069E3H   LINE      CODE     ---       #910
      010069F5H   LINE      CODE     ---       #911
      010069FCH   LINE      CODE     ---       #912
      01006A05H   LINE      CODE     ---       #913
      01006A13H   LINE      CODE     ---       #914
      01006A20H   LINE      CODE     ---       #915
      01006A2DH   LINE      CODE     ---       #916
      01006A4CH   LINE      CODE     ---       #917
      01006A4CH   LINE      CODE     ---       #919
      01006A4CH   LINE      CODE     ---       #920
      01006A4CH   LINE      CODE     ---       #921
      01006A68H   LINE      CODE     ---       #922
      01006A72H   LINE      CODE     ---       #923
      01006A7CH   LINE      CODE     ---       #924
      01006A86H   LINE      CODE     ---       #925
      01006A8FH   LINE      CODE     ---       #926
      01006A98H   LINE      CODE     ---       #932
      01006AA2H   LINE      CODE     ---       #933
      01006AC0H   LINE      CODE     ---       #934
      01006ACDH   LINE      CODE     ---       #935
      01006ACDH   LINE      CODE     ---       #936
      ---         BLOCKEND  ---      ---       LVL=0

      0100BFD2H   BLOCK     CODE     ---       LVL=0
LX51 LINKER/LOCATER V4.66.97.0                                                        11/04/2023  11:13:39  PAGE 102


      00000001H   SYMBOL    DATA     ---       p
      0200C867H   SYMBOL    XDATA    BYTE      channel
      0200C868H   SYMBOL    XDATA    BYTE      state
      0100BFD7H   BLOCK     CODE     NEAR LAB  LVL=1
      00000006H   SYMBOL    DATA     WORD      channel_enable
      ---         BLOCKEND  ---      ---       LVL=1
      0100BFD2H   LINE      CODE     ---       #938
      0100BFD7H   LINE      CODE     ---       #939
      0100BFD7H   LINE      CODE     ---       #940
      0100BFDAH   LINE      CODE     ---       #941
      0100BFE9H   LINE      CODE     ---       #942
      0100BFE9H   LINE      CODE     ---       #943
      0100BFE9H   LINE      CODE     ---       #944
      0100BFE9H   LINE      CODE     ---       #945
      0100BFF0H   LINE      CODE     ---       #946
      0100BFF0H   LINE      CODE     ---       #947
      0100C006H   LINE      CODE     ---       #948
      0100C007H   LINE      CODE     ---       #950
      0100C007H   LINE      CODE     ---       #951
      0100C021H   LINE      CODE     ---       #952
      0100C021H   LINE      CODE     ---       #953
      0100C022H   LINE      CODE     ---       #954
      0100C022H   LINE      CODE     ---       #955
      0100C022H   LINE      CODE     ---       #956
      0100C026H   LINE      CODE     ---       #957
      0100C026H   LINE      CODE     ---       #958
      0100C026H   LINE      CODE     ---       #959
      0100C026H   LINE      CODE     ---       #960
      ---         BLOCKEND  ---      ---       LVL=0

      010089ECH   BLOCK     CODE     ---       LVL=0
      0200C849H   SYMBOL    XDATA    ---       p
      0200C84CH   SYMBOL    XDATA    BYTE      channel
      0200C84DH   SYMBOL    XDATA    BYTE      state
      010089F7H   BLOCK     CODE     NEAR LAB  LVL=1
      0200C84EH   SYMBOL    XDATA    BYTE      week_adr_start
      0200C84FH   SYMBOL    XDATA    BYTE      week_adr_end
      0200C850H   SYMBOL    XDATA    BYTE      data_len
      0200C851H   SYMBOL    XDATA    BYTE      week_enable
      0200C852H   SYMBOL    XDATA    BYTE      i
      ---         BLOCKEND  ---      ---       LVL=1
      010089ECH   LINE      CODE     ---       #962
      010089F7H   LINE      CODE     ---       #963
      010089F7H   LINE      CODE     ---       #964
      010089FBH   LINE      CODE     ---       #965
      010089FBH   LINE      CODE     ---       #966
      010089FBH   LINE      CODE     ---       #967
      010089FEH   LINE      CODE     ---       #968
      01008A0FH   LINE      CODE     ---       #969
      01008A0FH   LINE      CODE     ---       #970
      01008A0FH   LINE      CODE     ---       #971
      01008A11H   LINE      CODE     ---       #972
      01008A13H   LINE      CODE     ---       #973
      01008A13H   LINE      CODE     ---       #974
      01008A17H   LINE      CODE     ---       #975
      01008A19H   LINE      CODE     ---       #976
      01008A19H   LINE      CODE     ---       #977
      01008A19H   LINE      CODE     ---       #978
      01008A26H   LINE      CODE     ---       #979
      01008A26H   LINE      CODE     ---       #980
      01008A26H   LINE      CODE     ---       #981
      01008A26H   LINE      CODE     ---       #982
      01008A26H   LINE      CODE     ---       #983
      01008A33H   LINE      CODE     ---       #984
      01008A33H   LINE      CODE     ---       #985
LX51 LINKER/LOCATER V4.66.97.0                                                        11/04/2023  11:13:39  PAGE 103


      01008A36H   LINE      CODE     ---       #986
      01008A3CH   LINE      CODE     ---       #987
      01008A42H   LINE      CODE     ---       #988
      01008A44H   LINE      CODE     ---       #990
      01008A44H   LINE      CODE     ---       #991
      01008A47H   LINE      CODE     ---       #992
      01008A4DH   LINE      CODE     ---       #993
      01008A53H   LINE      CODE     ---       #994
      01008A53H   LINE      CODE     ---       #998
      01008A69H   LINE      CODE     ---       #999
      01008A7EH   LINE      CODE     ---       #1000
      01008A7EH   LINE      CODE     ---       #1001
      01008A93H   LINE      CODE     ---       #1002
      01008A9BH   LINE      CODE     ---       #1003
      01008AA7H   LINE      CODE     ---       #1004
      ---         BLOCKEND  ---      ---       LVL=0

      01007C09H   BLOCK     CODE     ---       LVL=0
      0200C849H   SYMBOL    XDATA    ---       p
      0200C84CH   SYMBOL    XDATA    BYTE      channel
      0200C84DH   SYMBOL    XDATA    BYTE      state
      01007C14H   BLOCK     CODE     NEAR LAB  LVL=1
      0200C84EH   SYMBOL    XDATA    BYTE      solar_adr_start
      0200C84FH   SYMBOL    XDATA    BYTE      solar_adr_end
      0200C850H   SYMBOL    XDATA    BYTE      data_len
      0200C851H   SYMBOL    XDATA    BYTE      solar_enable
      0200C852H   SYMBOL    XDATA    BYTE      i
      00000007H   SYMBOL    DATA     BYTE      solar_up
      0200C853H   SYMBOL    XDATA    BYTE      solar_down
      0200C854H   SYMBOL    XDATA    WORD      solar_parameter
      ---         BLOCKEND  ---      ---       LVL=1
      01007C09H   LINE      CODE     ---       #1007
      01007C14H   LINE      CODE     ---       #1008
      01007C14H   LINE      CODE     ---       #1009
      01007C18H   LINE      CODE     ---       #1010
      01007C18H   LINE      CODE     ---       #1011
      01007C18H   LINE      CODE     ---       #1013
      01007C1BH   LINE      CODE     ---       #1014
      01007C1CH   LINE      CODE     ---       #1015
      01007C1FH   LINE      CODE     ---       #1016
      01007C30H   LINE      CODE     ---       #1017
      01007C30H   LINE      CODE     ---       #1018
      01007C30H   LINE      CODE     ---       #1019
      01007C35H   LINE      CODE     ---       #1020
      01007C3AH   LINE      CODE     ---       #1021
      01007C3CH   LINE      CODE     ---       #1023
      01007C3EH   LINE      CODE     ---       #1024
      01007C3EH   LINE      CODE     ---       #1026
      01007C43H   LINE      CODE     ---       #1027
      01007C48H   LINE      CODE     ---       #1028
      01007C4CH   LINE      CODE     ---       #1029
      01007C4EH   LINE      CODE     ---       #1030
      01007C4EH   LINE      CODE     ---       #1031
      01007C4EH   LINE      CODE     ---       #1032
      01007C5AH   LINE      CODE     ---       #1033
      01007C66H   LINE      CODE     ---       #1034
      01007C6DH   LINE      CODE     ---       #1035
      01007C6DH   LINE      CODE     ---       #1036
      01007C6DH   LINE      CODE     ---       #1037
      01007C6DH   LINE      CODE     ---       #1038
      01007C6DH   LINE      CODE     ---       #1039
      01007C7AH   LINE      CODE     ---       #1040
      01007C7AH   LINE      CODE     ---       #1041
      01007C7DH   LINE      CODE     ---       #1042
      01007C83H   LINE      CODE     ---       #1043
LX51 LINKER/LOCATER V4.66.97.0                                                        11/04/2023  11:13:39  PAGE 104


      01007C89H   LINE      CODE     ---       #1044
      01007C8BH   LINE      CODE     ---       #1046
      01007C8BH   LINE      CODE     ---       #1047
      01007C8EH   LINE      CODE     ---       #1048
      01007C94H   LINE      CODE     ---       #1049
      01007C9AH   LINE      CODE     ---       #1050
      01007C9AH   LINE      CODE     ---       #1052
      01007CB2H   LINE      CODE     ---       #1053
      01007CC8H   LINE      CODE     ---       #1054
      01007CDDH   LINE      CODE     ---       #1055
      01007CDDH   LINE      CODE     ---       #1056
      01007CEFH   LINE      CODE     ---       #1057
      01007CF7H   LINE      CODE     ---       #1058
      01007D03H   LINE      CODE     ---       #1059
      01007D1CH   LINE      CODE     ---       #1060
      ---         BLOCKEND  ---      ---       LVL=0

      01005258H   BLOCK     CODE     ---       LVL=0
      0200C849H   SYMBOL    XDATA    ---       p
      0200C84CH   SYMBOL    XDATA    BYTE      channel
      0200C84DH   SYMBOL    XDATA    BYTE      state
      01005263H   BLOCK     CODE     NEAR LAB  LVL=1
      0200C84EH   SYMBOL    XDATA    BYTE      time_frame_adr_start
      0200C84FH   SYMBOL    XDATA    BYTE      time_frame_adr_end
      0200C850H   SYMBOL    XDATA    BYTE      data_len
      0200C851H   SYMBOL    XDATA    WORD      time_frame_set_adr
      0200C853H   SYMBOL    XDATA    BYTE      i
      0200C854H   SYMBOL    XDATA    ---       time_frame_parameter
      ---         BLOCKEND  ---      ---       LVL=1
      01005258H   LINE      CODE     ---       #1062
      01005263H   LINE      CODE     ---       #1063
      01005263H   LINE      CODE     ---       #1064
      01005267H   LINE      CODE     ---       #1065
      01005267H   LINE      CODE     ---       #1066
      01005267H   LINE      CODE     ---       #1067
      01005267H   LINE      CODE     ---       #1069
      0100526AH   LINE      CODE     ---       #1070
      01005277H   LINE      CODE     ---       #1071
      01005288H   LINE      CODE     ---       #1072
      01005288H   LINE      CODE     ---       #1073
      01005288H   LINE      CODE     ---       #1074
      01005291H   LINE      CODE     ---       #1084
      01005293H   LINE      CODE     ---       #1085
      01005293H   LINE      CODE     ---       #1086
      0100529DH   LINE      CODE     ---       #1095
      0100529FH   LINE      CODE     ---       #1096
      0100529FH   LINE      CODE     ---       #1097
      0100529FH   LINE      CODE     ---       #1098
      010052A9H   LINE      CODE     ---       #1100
      010052A9H   LINE      CODE     ---       #1101
      010052A9H   LINE      CODE     ---       #1102
      010052A9H   LINE      CODE     ---       #1103
      010052A9H   LINE      CODE     ---       #1104
      010052C0H   LINE      CODE     ---       #1105
      010052D7H   LINE      CODE     ---       #1106
      010052EEH   LINE      CODE     ---       #1107
      01005305H   LINE      CODE     ---       #1108
      0100531CH   LINE      CODE     ---       #1109
      01005333H   LINE      CODE     ---       #1110
      0100534DH   LINE      CODE     ---       #1111
      01005367H   LINE      CODE     ---       #1112
      01005374H   LINE      CODE     ---       #1113
      01005374H   LINE      CODE     ---       #1114
      01005377H   LINE      CODE     ---       #1115
      0100537DH   LINE      CODE     ---       #1116
LX51 LINKER/LOCATER V4.66.97.0                                                        11/04/2023  11:13:39  PAGE 105


      01005383H   LINE      CODE     ---       #1117
      01005385H   LINE      CODE     ---       #1119
      01005385H   LINE      CODE     ---       #1120
      01005388H   LINE      CODE     ---       #1121
      0100538EH   LINE      CODE     ---       #1122
      01005394H   LINE      CODE     ---       #1123
      01005394H   LINE      CODE     ---       #1124
      010053AAH   LINE      CODE     ---       #1126
      010053C2H   LINE      CODE     ---       #1127
      010053C2H   LINE      CODE     ---       #1128
      010053D9H   LINE      CODE     ---       #1129
      010053EAH   LINE      CODE     ---       #1130
      010053FBH   LINE      CODE     ---       #1131
      0100540CH   LINE      CODE     ---       #1132
      0100541DH   LINE      CODE     ---       #1133
      0100542EH   LINE      CODE     ---       #1134
      01005442H   LINE      CODE     ---       #1135
      01005457H   LINE      CODE     ---       #1136
      01005460H   LINE      CODE     ---       #1137
      0100546CH   LINE      CODE     ---       #1138
      01005485H   LINE      CODE     ---       #1139
      ---         BLOCKEND  ---      ---       LVL=0

      01009566H   BLOCK     CODE     ---       LVL=0
      0200C83CH   SYMBOL    XDATA    WORD      key_adr
      0200C83EH   SYMBOL    XDATA    WORD      adr1
      0200C840H   SYMBOL    XDATA    WORD      adr2
      01009579H   BLOCK     CODE     NEAR LAB  LVL=1
      0200C842H   SYMBOL    XDATA    WORD      key_nb
      ---         BLOCKEND  ---      ---       LVL=1
      01009566H   LINE      CODE     ---       #1141
      01009579H   LINE      CODE     ---       #1142
      01009579H   LINE      CODE     ---       #1143
      0100957CH   LINE      CODE     ---       #1144
      01009586H   LINE      CODE     ---       #1145
      0100958EH   LINE      CODE     ---       #1146
      0100958EH   LINE      CODE     ---       #1147
      01009599H   LINE      CODE     ---       #1148
      01009599H   LINE      CODE     ---       #1149
      01009599H   LINE      CODE     ---       #1150
      010095A1H   LINE      CODE     ---       #1151
      010095A1H   LINE      CODE     ---       #1152
      010095A1H   LINE      CODE     ---       #1153
      010095A1H   LINE      CODE     ---       #1154
      010095A3H   LINE      CODE     ---       #1155
      010095A9H   LINE      CODE     ---       #1156
      010095A9H   LINE      CODE     ---       #1157
      010095A9H   LINE      CODE     ---       #1158
      010095A9H   LINE      CODE     ---       #1159
      010095A9H   LINE      CODE     ---       #1160
      010095ABH   LINE      CODE     ---       #1161
      010095ABH   LINE      CODE     ---       #1162
      010095B3H   LINE      CODE     ---       #1163
      010095B3H   LINE      CODE     ---       #1164
      010095BFH   LINE      CODE     ---       #1165
      010095C5H   LINE      CODE     ---       #1166
      010095C7H   LINE      CODE     ---       #1167
      010095CDH   LINE      CODE     ---       #1168
      010095CDH   LINE      CODE     ---       #1169
      010095D8H   LINE      CODE     ---       #1170
      010095E2H   LINE      CODE     ---       #1171
      010095E2H   LINE      CODE     ---       #1172
      010095E2H   LINE      CODE     ---       #1173
      010095E2H   LINE      CODE     ---       #1174
      010095E2H   LINE      CODE     ---       #1175
LX51 LINKER/LOCATER V4.66.97.0                                                        11/04/2023  11:13:39  PAGE 106


      010095E2H   LINE      CODE     ---       #1176
      010095EFH   LINE      CODE     ---       #1177
      010095F2H   LINE      CODE     ---       #1178
      010095F2H   LINE      CODE     ---       #1179
      010095F4H   LINE      CODE     ---       #1180
      ---         BLOCKEND  ---      ---       LVL=0

      0100C5B3H   BLOCK     CODE     ---       LVL=0
      0100C5B3H   LINE      CODE     ---       #1182
      0100C5B3H   LINE      CODE     ---       #1183
      0100C5B3H   LINE      CODE     ---       #1184
      0100C5BCH   LINE      CODE     ---       #1185
      0100C5C5H   LINE      CODE     ---       #1186
      0100C5D3H   LINE      CODE     ---       #1187
      0100C5E2H   LINE      CODE     ---       #1188
      0100C5F1H   LINE      CODE     ---       #1189
      ---         BLOCKEND  ---      ---       LVL=0

      0100553AH   BLOCK     CODE     ---       LVL=0
      0200C849H   SYMBOL    XDATA    ---       p
      0100553AH   LINE      CODE     ---       #1191
      01005540H   LINE      CODE     ---       #1192
      01005540H   LINE      CODE     ---       #1194
      010055A2H   LINE      CODE     ---       #1195
      010055B3H   LINE      CODE     ---       #1196
      010055C4H   LINE      CODE     ---       #1197
      010055D5H   LINE      CODE     ---       #1198
      010055E6H   LINE      CODE     ---       #1199
      010055F3H   LINE      CODE     ---       #1201
      0100564DH   LINE      CODE     ---       #1203
      010057B8H   LINE      CODE     ---       #1205
      010057D0H   LINE      CODE     ---       #1206
      ---         BLOCKEND  ---      ---       LVL=0

      010098E4H   BLOCK     CODE     ---       LVL=0
      0200C849H   SYMBOL    XDATA    ---       p
      010098E4H   LINE      CODE     ---       #1208
      010098EAH   LINE      CODE     ---       #1209
      010098EAH   LINE      CODE     ---       #1210
      010098FAH   LINE      CODE     ---       #1211
      0100990BH   LINE      CODE     ---       #1212
      0100991CH   LINE      CODE     ---       #1213
      0100992DH   LINE      CODE     ---       #1214
      0100993EH   LINE      CODE     ---       #1215
      0100994FH   LINE      CODE     ---       #1216
      01009960H   LINE      CODE     ---       #1217
      01009971H   LINE      CODE     ---       #1218
      0100997EH   LINE      CODE     ---       #1220
      ---         BLOCKEND  ---      ---       LVL=0

      010096CEH   BLOCK     CODE     ---       LVL=0
      0200C842H   SYMBOL    XDATA    BYTE      fun
      0200C843H   SYMBOL    XDATA    ---       p
      0200C846H   SYMBOL    XDATA    BYTE      channel
      010096D7H   BLOCK     CODE     NEAR LAB  LVL=1
      0200C847H   SYMBOL    XDATA    WORD      key_nb
      ---         BLOCKEND  ---      ---       LVL=1
      010096CEH   LINE      CODE     ---       #1222
      010096D7H   LINE      CODE     ---       #1223
      010096D7H   LINE      CODE     ---       #1224
      010096DAH   LINE      CODE     ---       #1225
      010096E8H   LINE      CODE     ---       #1226
      010096F7H   LINE      CODE     ---       #1227
      010096F7H   LINE      CODE     ---       #1228
      0100971AH   LINE      CODE     ---       #1229
LX51 LINKER/LOCATER V4.66.97.0                                                        11/04/2023  11:13:39  PAGE 107


      0100971AH   LINE      CODE     ---       #1230
      0100971AH   LINE      CODE     ---       #1231
      01009721H   LINE      CODE     ---       #1232
      01009723H   LINE      CODE     ---       #1233
      01009723H   LINE      CODE     ---       #1234
      0100972AH   LINE      CODE     ---       #1235
      0100972CH   LINE      CODE     ---       #1236
      0100972CH   LINE      CODE     ---       #1237
      01009733H   LINE      CODE     ---       #1238
      01009735H   LINE      CODE     ---       #1239
      01009735H   LINE      CODE     ---       #1240
      0100973EH   LINE      CODE     ---       #1241
      01009740H   LINE      CODE     ---       #1242
      01009740H   LINE      CODE     ---       #1243
      01009749H   LINE      CODE     ---       #1244
      0100974BH   LINE      CODE     ---       #1245
      0100974BH   LINE      CODE     ---       #1246
      01009757H   LINE      CODE     ---       #1247
      01009759H   LINE      CODE     ---       #1248
      01009759H   LINE      CODE     ---       #1249
      01009765H   LINE      CODE     ---       #1250
      01009767H   LINE      CODE     ---       #1251
      01009767H   LINE      CODE     ---       #1252
      01009773H   LINE      CODE     ---       #1253
      01009773H   LINE      CODE     ---       #1254
      01009773H   LINE      CODE     ---       #1255
      01009773H   LINE      CODE     ---       #1256
      01009773H   LINE      CODE     ---       #1257
      01009780H   LINE      CODE     ---       #1258
      01009780H   LINE      CODE     ---       #1259
      ---         BLOCKEND  ---      ---       LVL=0

      0100B08FH   BLOCK     CODE     ---       LVL=0
      0200C83CH   SYMBOL    XDATA    ---       p
      0200C83FH   SYMBOL    XDATA    BYTE      channel
      0100B09AH   BLOCK     CODE     NEAR LAB  LVL=1
      0200C840H   SYMBOL    XDATA    WORD      key_nb
      ---         BLOCKEND  ---      ---       LVL=1
      0100B08FH   LINE      CODE     ---       #1261
      0100B09AH   LINE      CODE     ---       #1262
      0100B09AH   LINE      CODE     ---       #1263
      0100B09BH   LINE      CODE     ---       #1264
      0100B0A9H   LINE      CODE     ---       #1265
      0100B0B3H   LINE      CODE     ---       #1266
      0100B0B3H   LINE      CODE     ---       #1267
      0100B0BFH   LINE      CODE     ---       #1268
      0100B0CBH   LINE      CODE     ---       #1269
      0100B0CBH   LINE      CODE     ---       #1270
      0100B0CBH   LINE      CODE     ---       #1271
      0100B0CBH   LINE      CODE     ---       #1272
      0100B0CEH   LINE      CODE     ---       #1273
      0100B0CEH   LINE      CODE     ---       #1274
      0100B0CEH   LINE      CODE     ---       #1275
      0100B0CEH   LINE      CODE     ---       #1276
      0100B0CEH   LINE      CODE     ---       #1277
      0100B0D3H   LINE      CODE     ---       #1278
      0100B0E0H   LINE      CODE     ---       #1279
      0100B0E0H   LINE      CODE     ---       #1280
      ---         BLOCKEND  ---      ---       LVL=0
      00000007H   SYMBOL    DATA     BYTE      i

      0100D584H   BLOCK     CODE     ---       LVL=0
      0200C842H   SYMBOL    XDATA    ---       p
      0100D584H   LINE      CODE     ---       #1293
      0100D58AH   LINE      CODE     ---       #1294
LX51 LINKER/LOCATER V4.66.97.0                                                        11/04/2023  11:13:39  PAGE 108


      0100D58AH   LINE      CODE     ---       #1295
      ---         BLOCKEND  ---      ---       LVL=0

      01006243H   BLOCK     CODE     ---       LVL=0
      0200C83DH   SYMBOL    XDATA    ---       p
      01006249H   BLOCK     CODE     NEAR LAB  LVL=1
      0200C840H   SYMBOL    XDATA    WORD      key_nb
      0200C842H   SYMBOL    XDATA    BYTE      i
      0200C843H   SYMBOL    XDATA    ---       single_key_tab
      0200C87FH   SYMBOL    XDATA    ---       double_key_tab
      ---         BLOCKEND  ---      ---       LVL=1
      01006243H   LINE      CODE     ---       #1298
      01006249H   LINE      CODE     ---       #1299
      01006249H   LINE      CODE     ---       #1301
      01006250H   LINE      CODE     ---       #1302
      01006252H   LINE      CODE     ---       #1303
      01006264H   LINE      CODE     ---       #1311
      01006271H   LINE      CODE     ---       #1312
      01006277H   LINE      CODE     ---       #1313
      0100628BH   LINE      CODE     ---       #1315
      0100628BH   LINE      CODE     ---       #1316
      01006294H   LINE      CODE     ---       #1317
      0100629FH   LINE      CODE     ---       #1319
      010062AEH   LINE      CODE     ---       #1320
      010062AEH   LINE      CODE     ---       #1321
      010062CDH   LINE      CODE     ---       #1322
      010062DCH   LINE      CODE     ---       #1324
      010062E4H   LINE      CODE     ---       #1325
      010062E4H   LINE      CODE     ---       #1326
      010062FAH   LINE      CODE     ---       #1327
      010062FAH   LINE      CODE     ---       #1329
      01006315H   LINE      CODE     ---       #1330
      01006322H   LINE      CODE     ---       #1331
      0100634EH   LINE      CODE     ---       #1332
      0100635AH   LINE      CODE     ---       #1333
      0100635AH   LINE      CODE     ---       #1334
      01006361H   LINE      CODE     ---       #1335
      0100636FH   LINE      CODE     ---       #1336
      01006376H   LINE      CODE     ---       #1337
      01006384H   LINE      CODE     ---       #1338
      0100638BH   LINE      CODE     ---       #1339
      01006399H   LINE      CODE     ---       #1340
      010063A0H   LINE      CODE     ---       #1341
      010063AEH   LINE      CODE     ---       #1342
      010063B5H   LINE      CODE     ---       #1343
      010063C1H   LINE      CODE     ---       #1344
      010063C3H   LINE      CODE     ---       #1345
      010063D3H   LINE      CODE     ---       #1346
      010063D3H   LINE      CODE     ---       #1347
      010063EDH   LINE      CODE     ---       #1348
      010063EDH   LINE      CODE     ---       #1349
      010063FAH   LINE      CODE     ---       #1350
      0100640EH   LINE      CODE     ---       #1351
      01006419H   LINE      CODE     ---       #1352
      0100641FH   LINE      CODE     ---       #1353
      0100641FH   LINE      CODE     ---       #1354
      ---         BLOCKEND  ---      ---       LVL=0

      01008C5DH   BLOCK     CODE     ---       LVL=0
      0200C83DH   SYMBOL    XDATA    ---       p
      01008C63H   BLOCK     CODE     NEAR LAB  LVL=1
      0200C840H   SYMBOL    XDATA    BYTE      i
      0200C841H   SYMBOL    XDATA    WORD      key_nb
      ---         BLOCKEND  ---      ---       LVL=1
      01008C5DH   LINE      CODE     ---       #1356
LX51 LINKER/LOCATER V4.66.97.0                                                        11/04/2023  11:13:39  PAGE 109


      01008C63H   LINE      CODE     ---       #1357
      01008C63H   LINE      CODE     ---       #1358
      01008C67H   LINE      CODE     ---       #1359
      01008C67H   LINE      CODE     ---       #1360
      01008C70H   LINE      CODE     ---       #1361
      01008C86H   LINE      CODE     ---       #1362
      01008C86H   LINE      CODE     ---       #1363
      01008C93H   LINE      CODE     ---       #1364
      01008C93H   LINE      CODE     ---       #1365
      01008CA9H   LINE      CODE     ---       #1366
      01008CB8H   LINE      CODE     ---       #1367
      01008CC0H   LINE      CODE     ---       #1368
      01008CCDH   LINE      CODE     ---       #1369
      01008CEFH   LINE      CODE     ---       #1370
      01008CFCH   LINE      CODE     ---       #1371
      01008D12H   LINE      CODE     ---       #1372
      01008D1AH   LINE      CODE     ---       #1373
      01008D25H   LINE      CODE     ---       #1374
      01008D25H   LINE      CODE     ---       #1375
      ---         BLOCKEND  ---      ---       LVL=0

      010090F6H   BLOCK     CODE     ---       LVL=0
      010090F6H   BLOCK     CODE     NEAR LAB  LVL=1
      0200C83AH   SYMBOL    XDATA    WORD      key_nb
      ---         BLOCKEND  ---      ---       LVL=1
      010090F6H   LINE      CODE     ---       #1377
      010090F6H   LINE      CODE     ---       #1378
      010090F6H   LINE      CODE     ---       #1379
      010090F9H   LINE      CODE     ---       #1380
      010090FEH   LINE      CODE     ---       #1381
      01009109H   LINE      CODE     ---       #1382
      01009109H   LINE      CODE     ---       #1383
      01009116H   LINE      CODE     ---       #1384
      01009123H   LINE      CODE     ---       #1385
      01009130H   LINE      CODE     ---       #1386
      01009136H   LINE      CODE     ---       #1387
      01009140H   LINE      CODE     ---       #1388
      01009145H   LINE      CODE     ---       #1389
      01009145H   LINE      CODE     ---       #1390
      01009149H   LINE      CODE     ---       #1391
      01009154H   LINE      CODE     ---       #1392
      01009154H   LINE      CODE     ---       #1393
      01009161H   LINE      CODE     ---       #1394
      0100916EH   LINE      CODE     ---       #1395
      0100917BH   LINE      CODE     ---       #1396
      01009181H   LINE      CODE     ---       #1397
      0100918BH   LINE      CODE     ---       #1398
      0100918FH   LINE      CODE     ---       #1399
      0100918FH   LINE      CODE     ---       #1400
      ---         BLOCKEND  ---      ---       LVL=0

      0100CDA4H   BLOCK     CODE     ---       LVL=0
      0200C83DH   SYMBOL    XDATA    ---       p
      0100CDAAH   BLOCK     CODE     NEAR LAB  LVL=1
      0200C840H   SYMBOL    XDATA    WORD      key_nb
      ---         BLOCKEND  ---      ---       LVL=1
      0100CDA4H   LINE      CODE     ---       #1402
      0100CDAAH   LINE      CODE     ---       #1403
      0100CDAAH   LINE      CODE     ---       #1404
      0100CDADH   LINE      CODE     ---       #1405
      0100CDB6H   LINE      CODE     ---       #1406
      0100CDC2H   LINE      CODE     ---       #1407
      0100CDC2H   LINE      CODE     ---       #1408
      0100CDCEH   LINE      CODE     ---       #1410
      0100CDD6H   LINE      CODE     ---       #1411
LX51 LINKER/LOCATER V4.66.97.0                                                        11/04/2023  11:13:39  PAGE 110


      0100CDD6H   LINE      CODE     ---       #1412
      ---         BLOCKEND  ---      ---       LVL=0

      0100D466H   BLOCK     CODE     ---       LVL=0
      0200C83AH   SYMBOL    XDATA    ---       p
      0100D466H   LINE      CODE     ---       #1414
      0100D46CH   LINE      CODE     ---       #1415
      0100D46CH   LINE      CODE     ---       #1416
      0100D472H   LINE      CODE     ---       #1417
      0100D478H   LINE      CODE     ---       #1418
      ---         BLOCKEND  ---      ---       LVL=0

      0100D2C8H   BLOCK     CODE     ---       LVL=0
      0200C842H   SYMBOL    XDATA    ---       p
      0100D2C8H   LINE      CODE     ---       #1421
      0100D2CEH   LINE      CODE     ---       #1422
      0100D2CEH   LINE      CODE     ---       #1423
      0100D2D5H   LINE      CODE     ---       #1424
      ---         BLOCKEND  ---      ---       LVL=0

      01005FE4H   BLOCK     CODE     ---       LVL=0
      0200C83DH   SYMBOL    XDATA    ---       p
      01005FEAH   BLOCK     CODE     NEAR LAB  LVL=1
      0200C840H   SYMBOL    XDATA    BYTE      i
      0200A76FH   SYMBOL    XDATA    BYTE      dim_send_flag
      0200A770H   SYMBOL    XDATA    BYTE      key_down_flag
      0200A771H   SYMBOL    XDATA    BYTE      key_up_flag
      0200C841H   SYMBOL    XDATA    WORD      key_nb
      0200C843H   SYMBOL    XDATA    WORD      y_coordinate
      0200C845H   SYMBOL    XDATA    WORD      x_coordinate
      0200C847H   SYMBOL    XDATA    ---       dim_gear
      0200C84FH   SYMBOL    XDATA    ---       touch_sta
      ---         BLOCKEND  ---      ---       LVL=1
      01005FE4H   LINE      CODE     ---       #1427
      01005FEAH   LINE      CODE     ---       #1428
      01005FEAH   LINE      CODE     ---       #1429
      01005FEEH   LINE      CODE     ---       #1431
      01005FEEH   LINE      CODE     ---       #1432
      01005FEEH   LINE      CODE     ---       #1433
      01005FF1H   LINE      CODE     ---       #1434
      01005FFCH   LINE      CODE     ---       #1435
      01006007H   LINE      CODE     ---       #1436
      0100601DH   LINE      CODE     ---       #1437
      0100601DH   LINE      CODE     ---       #1438
      01006033H   LINE      CODE     ---       #1439
      01006033H   LINE      CODE     ---       #1440
      0100603CH   LINE      CODE     ---       #1441
      0100604DH   LINE      CODE     ---       #1442
      0100605AH   LINE      CODE     ---       #1443
      0100605AH   LINE      CODE     ---       #1445
      01006062H   LINE      CODE     ---       #1446
      01006064H   LINE      CODE     ---       #1448
      01006064H   LINE      CODE     ---       #1449
      01006077H   LINE      CODE     ---       #1450
      01006077H   LINE      CODE     ---       #1451
      01006077H   LINE      CODE     ---       #1453
      0100607FH   LINE      CODE     ---       #1454
      01006094H   LINE      CODE     ---       #1455
      01006094H   LINE      CODE     ---       #1458
      010060A0H   LINE      CODE     ---       #1459
      010060A9H   LINE      CODE     ---       #1460
      010060A9H   LINE      CODE     ---       #1461
      010060B3H   LINE      CODE     ---       #1463
      010060C2H   LINE      CODE     ---       #1464
      010060CFH   LINE      CODE     ---       #1465
LX51 LINKER/LOCATER V4.66.97.0                                                        11/04/2023  11:13:39  PAGE 111


      010060DDH   LINE      CODE     ---       #1466
      010060DDH   LINE      CODE     ---       #1467
      010060DFH   LINE      CODE     ---       #1468
      010060E2H   LINE      CODE     ---       #1469
      010060E8H   LINE      CODE     ---       #1470
      010060EAH   LINE      CODE     ---       #1471
      010060FAH   LINE      CODE     ---       #1472
      010060FAH   LINE      CODE     ---       #1473
      010060FDH   LINE      CODE     ---       #1474
      01006100H   LINE      CODE     ---       #1475
      01006106H   LINE      CODE     ---       #1476
      01006108H   LINE      CODE     ---       #1477
      0100611AH   LINE      CODE     ---       #1478
      0100611AH   LINE      CODE     ---       #1479
      0100611CH   LINE      CODE     ---       #1480
      01006125H   LINE      CODE     ---       #1481
      01006125H   LINE      CODE     ---       #1482
      01006129H   LINE      CODE     ---       #1483
      01006129H   LINE      CODE     ---       #1484
      01006129H   LINE      CODE     ---       #1485
      01006129H   LINE      CODE     ---       #1486
      01006129H   LINE      CODE     ---       #1487
      0100612CH   LINE      CODE     ---       #1488
      0100613AH   LINE      CODE     ---       #1489
      01006156H   LINE      CODE     ---       #1490
      01006156H   LINE      CODE     ---       #1492
      01006163H   LINE      CODE     ---       #1493
      01006176H   LINE      CODE     ---       #1494
      01006176H   LINE      CODE     ---       #1495
      0100617FH   LINE      CODE     ---       #1501
      01006181H   LINE      CODE     ---       #1503
      01006181H   LINE      CODE     ---       #1504
      0100618EH   LINE      CODE     ---       #1505
      0100618EH   LINE      CODE     ---       #1506
      0100619BH   LINE      CODE     ---       #1507
      010061ADH   LINE      CODE     ---       #1508
      010061BFH   LINE      CODE     ---       #1509
      010061D1H   LINE      CODE     ---       #1510
      010061E3H   LINE      CODE     ---       #1511
      010061E3H   LINE      CODE     ---       #1512
      010061E3H   LINE      CODE     ---       #1513
      010061E3H   LINE      CODE     ---       #1514
      010061E6H   LINE      CODE     ---       #1515
      0100620CH   LINE      CODE     ---       #1517
      0100620CH   LINE      CODE     ---       #1518
      01006215H   LINE      CODE     ---       #1519
      0100621AH   LINE      CODE     ---       #1520
      0100621AH   LINE      CODE     ---       #1521
      0100621DH   LINE      CODE     ---       #1522
      0100621DH   LINE      CODE     ---       #1526
      01006225H   LINE      CODE     ---       #1527
      01006225H   LINE      CODE     ---       #1529
      01006226H   LINE      CODE     ---       #1530
      01006232H   LINE      CODE     ---       #1532
      0100623BH   LINE      CODE     ---       #1533
      0100623BH   LINE      CODE     ---       #1534
      0100623BH   LINE      CODE     ---       #1536
      0100623BH   LINE      CODE     ---       #1537
      01006240H   LINE      CODE     ---       #1538
      01006242H   LINE      CODE     ---       #1539
      01006242H   LINE      CODE     ---       #1540
      ---         BLOCKEND  ---      ---       LVL=0

      010079B2H   BLOCK     CODE     ---       LVL=0
      0200C83DH   SYMBOL    XDATA    ---       p
LX51 LINKER/LOCATER V4.66.97.0                                                        11/04/2023  11:13:39  PAGE 112


      010079B8H   BLOCK     CODE     NEAR LAB  LVL=1
      0200C840H   SYMBOL    XDATA    WORD      key_nb
      ---         BLOCKEND  ---      ---       LVL=1
      010079B2H   LINE      CODE     ---       #1542
      010079B8H   LINE      CODE     ---       #1543
      010079B8H   LINE      CODE     ---       #1545
      010079BBH   LINE      CODE     ---       #1547
      010079C4H   LINE      CODE     ---       #1548
      010079DAH   LINE      CODE     ---       #1549
      010079DAH   LINE      CODE     ---       #1551
      010079E2H   LINE      CODE     ---       #1552
      01007A09H   LINE      CODE     ---       #1553
      01007A31H   LINE      CODE     ---       #1554
      01007A59H   LINE      CODE     ---       #1555
      01007A86H   LINE      CODE     ---       #1556
      01007A93H   LINE      CODE     ---       #1557
      01007A9FH   LINE      CODE     ---       #1558
      01007AA7H   LINE      CODE     ---       #1559
      01007AC9H   LINE      CODE     ---       #1560
      01007AC9H   LINE      CODE     ---       #1561
      01007AC9H   LINE      CODE     ---       #1562
      01007AC9H   LINE      CODE     ---       #1563
      01007ACCH   LINE      CODE     ---       #1564
      01007ACCH   LINE      CODE     ---       #1565
      ---         BLOCKEND  ---      ---       LVL=0

      01007D32H   BLOCK     CODE     ---       LVL=0
      01007D32H   BLOCK     CODE     NEAR LAB  LVL=1
      0200C83AH   SYMBOL    XDATA    WORD      key_nb
      ---         BLOCKEND  ---      ---       LVL=1
      01007D32H   LINE      CODE     ---       #1567
      01007D32H   LINE      CODE     ---       #1568
      01007D32H   LINE      CODE     ---       #1570
      01007D35H   LINE      CODE     ---       #1572
      01007D39H   LINE      CODE     ---       #1573
      01007D44H   LINE      CODE     ---       #1574
      01007D44H   LINE      CODE     ---       #1576
      01007D51H   LINE      CODE     ---       #1577
      01007D61H   LINE      CODE     ---       #1578
      01007D71H   LINE      CODE     ---       #1579
      01007D81H   LINE      CODE     ---       #1580
      01007D91H   LINE      CODE     ---       #1581
      01007D9EH   LINE      CODE     ---       #1582
      01007DA4H   LINE      CODE     ---       #1583
      01007DAEH   LINE      CODE     ---       #1584
      01007DAEH   LINE      CODE     ---       #1585
      01007DAEH   LINE      CODE     ---       #1586
      01007DAEH   LINE      CODE     ---       #1587
      01007DB1H   LINE      CODE     ---       #1588
      01007DB1H   LINE      CODE     ---       #1589
      01007DB5H   LINE      CODE     ---       #1590
      01007DC0H   LINE      CODE     ---       #1591
      01007DC0H   LINE      CODE     ---       #1593
      01007DCDH   LINE      CODE     ---       #1594
      01007DDAH   LINE      CODE     ---       #1595
      01007DE7H   LINE      CODE     ---       #1596
      01007DF4H   LINE      CODE     ---       #1597
      01007E01H   LINE      CODE     ---       #1598
      01007E0EH   LINE      CODE     ---       #1599
      01007E14H   LINE      CODE     ---       #1600
      01007E1EH   LINE      CODE     ---       #1601
      01007E1EH   LINE      CODE     ---       #1602
      01007E1EH   LINE      CODE     ---       #1603
      01007E1EH   LINE      CODE     ---       #1604
      01007E21H   LINE      CODE     ---       #1605
LX51 LINKER/LOCATER V4.66.97.0                                                        11/04/2023  11:13:39  PAGE 113


      01007E21H   LINE      CODE     ---       #1606
      ---         BLOCKEND  ---      ---       LVL=0

      0100C7E9H   BLOCK     CODE     ---       LVL=0
      0200C83DH   SYMBOL    XDATA    ---       p
      0100C7EFH   BLOCK     CODE     NEAR LAB  LVL=1
      0200C840H   SYMBOL    XDATA    WORD      key_nb
      ---         BLOCKEND  ---      ---       LVL=1
      0100C7E9H   LINE      CODE     ---       #1608
      0100C7EFH   LINE      CODE     ---       #1609
      0100C7EFH   LINE      CODE     ---       #1610
      0100C7F2H   LINE      CODE     ---       #1611
      0100C800H   LINE      CODE     ---       #1612
      0100C80CH   LINE      CODE     ---       #1613
      0100C80CH   LINE      CODE     ---       #1614
      0100C81EH   LINE      CODE     ---       #1616
      0100C82BH   LINE      CODE     ---       #1617
      0100C82BH   LINE      CODE     ---       #1618
      ---         BLOCKEND  ---      ---       LVL=0

      0100D47EH   BLOCK     CODE     ---       LVL=0
      0200C83AH   SYMBOL    XDATA    ---       p
      0100D47EH   LINE      CODE     ---       #1620
      0100D484H   LINE      CODE     ---       #1621
      0100D484H   LINE      CODE     ---       #1622
      0100D48AH   LINE      CODE     ---       #1623
      0100D490H   LINE      CODE     ---       #1624
      ---         BLOCKEND  ---      ---       LVL=0

      0100C07CH   BLOCK     CODE     ---       LVL=0
      0200C83FH   SYMBOL    XDATA    ---       p
      0100C07CH   LINE      CODE     ---       #1627
      0100C082H   LINE      CODE     ---       #1628
      0100C082H   LINE      CODE     ---       #1629
      0100C08AH   LINE      CODE     ---       #1630
      0100C08AH   LINE      CODE     ---       #1632
      0100C08AH   LINE      CODE     ---       #1633
      0100C0A0H   LINE      CODE     ---       #1634
      0100C0A0H   LINE      CODE     ---       #1635
      0100C0A0H   LINE      CODE     ---       #1636
      0100C0A0H   LINE      CODE     ---       #1637
      0100C0A0H   LINE      CODE     ---       #1638
      0100C0A0H   LINE      CODE     ---       #1640
      0100C0A3H   LINE      CODE     ---       #1641
      0100C0A7H   LINE      CODE     ---       #1642
      0100C0ADH   LINE      CODE     ---       #1643
      0100C0ADH   LINE      CODE     ---       #1644
      0100C0ADH   LINE      CODE     ---       #1645
      0100C0ADH   LINE      CODE     ---       #1646
      0100C0B0H   LINE      CODE     ---       #1647
      0100C0B9H   LINE      CODE     ---       #1648
      0100C0BDH   LINE      CODE     ---       #1649
      0100C0C3H   LINE      CODE     ---       #1650
      0100C0C3H   LINE      CODE     ---       #1651
      0100C0C3H   LINE      CODE     ---       #1653
      0100C0C3H   LINE      CODE     ---       #1654
      0100C0C3H   LINE      CODE     ---       #1655
      ---         BLOCKEND  ---      ---       LVL=0

      0100D44DH   BLOCK     CODE     ---       LVL=0
      0200C83CH   SYMBOL    XDATA    ---       p
      00000005H   SYMBOL    DATA     BYTE      key
      0100D44DH   LINE      CODE     ---       #1658
      0100D453H   LINE      CODE     ---       #1659
      0100D453H   LINE      CODE     ---       #1660
LX51 LINKER/LOCATER V4.66.97.0                                                        11/04/2023  11:13:39  PAGE 114


      0100D45DH   LINE      CODE     ---       #1661
      ---         BLOCKEND  ---      ---       LVL=0

      0100CEF4H   BLOCK     CODE     ---       LVL=0
      0100CEF4H   BLOCK     CODE     NEAR LAB  LVL=1
      0200C83AH   SYMBOL    XDATA    WORD      key_nb
      ---         BLOCKEND  ---      ---       LVL=1
      0100CEF4H   LINE      CODE     ---       #1663
      0100CEF4H   LINE      CODE     ---       #1664
      0100CEF4H   LINE      CODE     ---       #1665
      0100CEF7H   LINE      CODE     ---       #1666
      0100CF00H   LINE      CODE     ---       #1667
      0100CF08H   LINE      CODE     ---       #1668
      0100CF08H   LINE      CODE     ---       #1670
      0100CF10H   LINE      CODE     ---       #1671
      0100CF18H   LINE      CODE     ---       #1672
      0100CF1FH   LINE      CODE     ---       #1673
      0100CF1FH   LINE      CODE     ---       #1674
      ---         BLOCKEND  ---      ---       LVL=0

      01000086H   BLOCK     CODE     ---       LVL=0
      01000086H   BLOCK     CODE     NEAR LAB  LVL=1
      0200C83AH   SYMBOL    XDATA    ---       ret_tab
      0200C83EH   SYMBOL    XDATA    WORD      key_nb
      0200C840H   SYMBOL    XDATA    BYTE      i
      ---         BLOCKEND  ---      ---       LVL=1
      01000086H   LINE      CODE     ---       #1676
      01000086H   LINE      CODE     ---       #1677
      01000086H   LINE      CODE     ---       #1679
      01000091H   LINE      CODE     ---       #1680
      01000095H   LINE      CODE     ---       #1681
      01000095H   LINE      CODE     ---       #1682
      010000A3H   LINE      CODE     ---       #1683
      010000AFH   LINE      CODE     ---       #1684
      010000AFH   LINE      CODE     ---       #1688
      010000C1H   LINE      CODE     ---       #1689
      010000C1H   LINE      CODE     ---       #1690
      010000C7H   LINE      CODE     ---       #1691
      010000CFH   LINE      CODE     ---       #1693
      010000DCH   LINE      CODE     ---       #1694
      010000DFH   LINE      CODE     ---       #1695
      010000F5H   LINE      CODE     ---       #1696
      010000F5H   LINE      CODE     ---       #1697
      ---         BLOCKEND  ---      ---       LVL=0

      01006DDFH   BLOCK     CODE     ---       LVL=0
      0200C842H   SYMBOL    XDATA    ---       p
      01006DDFH   LINE      CODE     ---       #1704
      01006DE5H   LINE      CODE     ---       #1705
      01006DE5H   LINE      CODE     ---       #1707
      01006DEEH   LINE      CODE     ---       #1709
      01006DFEH   LINE      CODE     ---       #1710
      01006E0AH   LINE      CODE     ---       #1711
      01006E1BH   LINE      CODE     ---       #1712
      01006E2BH   LINE      CODE     ---       #1713
      01006E37H   LINE      CODE     ---       #1717
      01006E4AH   LINE      CODE     ---       #1718
      01006E6CH   LINE      CODE     ---       #1719
      01006E6CH   LINE      CODE     ---       #1720
      01006E6CH   LINE      CODE     ---       #1721
      01006E79H   LINE      CODE     ---       #1722
      01006E7DH   LINE      CODE     ---       #1723
      01006E86H   LINE      CODE     ---       #1724
      01006E8AH   LINE      CODE     ---       #1725
      01006E91H   LINE      CODE     ---       #1726
LX51 LINKER/LOCATER V4.66.97.0                                                        11/04/2023  11:13:39  PAGE 115


      01006E95H   LINE      CODE     ---       #1727
      01006E9FH   LINE      CODE     ---       #1728
      01006EA2H   LINE      CODE     ---       #1729
      01006EA5H   LINE      CODE     ---       #1730
      01006EA5H   LINE      CODE     ---       #1731
      01006EB2H   LINE      CODE     ---       #1732
      01006EB9H   LINE      CODE     ---       #1733
      01006EC5H   LINE      CODE     ---       #1734
      01006EC9H   LINE      CODE     ---       #1736
      01006ECCH   LINE      CODE     ---       #1737
      01006ECCH   LINE      CODE     ---       #1738
      01006ED9H   LINE      CODE     ---       #1739
      01006EDFH   LINE      CODE     ---       #1740
      01006EE8H   LINE      CODE     ---       #1741
      01006EECH   LINE      CODE     ---       #1743
      01006EEEH   LINE      CODE     ---       #1744
      01006EEEH   LINE      CODE     ---       #1745
      01006EFBH   LINE      CODE     ---       #1746
      01006F01H   LINE      CODE     ---       #1747
      01006F0AH   LINE      CODE     ---       #1748
      01006F0EH   LINE      CODE     ---       #1750
      01006F10H   LINE      CODE     ---       #1751
      01006F10H   LINE      CODE     ---       #1752
      01006F1DH   LINE      CODE     ---       #1753
      01006F23H   LINE      CODE     ---       #1754
      01006F2CH   LINE      CODE     ---       #1755
      01006F30H   LINE      CODE     ---       #1757
      01006F32H   LINE      CODE     ---       #1758
      01006F32H   LINE      CODE     ---       #1759
      01006F3FH   LINE      CODE     ---       #1760
      01006F43H   LINE      CODE     ---       #1762
      01006F45H   LINE      CODE     ---       #1763
      01006F45H   LINE      CODE     ---       #1764
      01006F52H   LINE      CODE     ---       #1765
      01006F59H   LINE      CODE     ---       #1766
      01006F59H   LINE      CODE     ---       #1767
      01006F59H   LINE      CODE     ---       #1768
      01006F59H   LINE      CODE     ---       #1769
      01006F59H   LINE      CODE     ---       #1770
      ---         BLOCKEND  ---      ---       LVL=0

      0100836CH   BLOCK     CODE     ---       LVL=0
      0200C83CH   SYMBOL    XDATA    ---       p
      01008372H   BLOCK     CODE     NEAR LAB  LVL=1
      0200C83FH   SYMBOL    XDATA    WORD      key_nb
      0200C841H   SYMBOL    XDATA    BYTE      select_index
      ---         BLOCKEND  ---      ---       LVL=1
      0100836CH   LINE      CODE     ---       #1773
      01008372H   LINE      CODE     ---       #1775
      01008372H   LINE      CODE     ---       #1776
      01008376H   LINE      CODE     ---       #1777
      01008376H   LINE      CODE     ---       #1778
      0100837FH   LINE      CODE     ---       #1779
      0100838BH   LINE      CODE     ---       #1780
      0100838BH   LINE      CODE     ---       #1781
      01008391H   LINE      CODE     ---       #1782
      0100839AH   LINE      CODE     ---       #1783
      010083A5H   LINE      CODE     ---       #1784
      010083A8H   LINE      CODE     ---       #1785
      010083A8H   LINE      CODE     ---       #1786
      010083B1H   LINE      CODE     ---       #1787
      010083B6H   LINE      CODE     ---       #1789
      010083B6H   LINE      CODE     ---       #1790
      010083BDH   LINE      CODE     ---       #1792
      010083CCH   LINE      CODE     ---       #1793
LX51 LINKER/LOCATER V4.66.97.0                                                        11/04/2023  11:13:39  PAGE 116


      010083E2H   LINE      CODE     ---       #1794
      010083F1H   LINE      CODE     ---       #1795
      010083FCH   LINE      CODE     ---       #1796
      010083FCH   LINE      CODE     ---       #1797
      01008408H   LINE      CODE     ---       #1798
      01008408H   LINE      CODE     ---       #1799
      0100840EH   LINE      CODE     ---       #1801
      0100841CH   LINE      CODE     ---       #1803
      01008435H   LINE      CODE     ---       #1804
      01008435H   LINE      CODE     ---       #1805
      0100843FH   LINE      CODE     ---       #1806
      0100844FH   LINE      CODE     ---       #1808
      01008458H   LINE      CODE     ---       #1809
      01008461H   LINE      CODE     ---       #1810
      0100846CH   LINE      CODE     ---       #1812
      0100846CH   LINE      CODE     ---       #1813
      0100846CH   LINE      CODE     ---       #1814
      ---         BLOCKEND  ---      ---       LVL=0

      0100846DH   BLOCK     CODE     ---       LVL=0
      0100846DH   BLOCK     CODE     NEAR LAB  LVL=1
      0200C83CH   SYMBOL    XDATA    WORD      key_nb
      0200C83EH   SYMBOL    XDATA    BYTE      select_index
      ---         BLOCKEND  ---      ---       LVL=1
      0100846DH   LINE      CODE     ---       #1817
      0100846DH   LINE      CODE     ---       #1819
      0100846DH   LINE      CODE     ---       #1820
      01008471H   LINE      CODE     ---       #1821
      01008471H   LINE      CODE     ---       #1823
      0100847FH   LINE      CODE     ---       #1824
      0100848EH   LINE      CODE     ---       #1825
      0100848EH   LINE      CODE     ---       #1827
      0100849BH   LINE      CODE     ---       #1829
      010084A0H   LINE      CODE     ---       #1830
      010084A0H   LINE      CODE     ---       #1833
      010084BBH   LINE      CODE     ---       #1834
      010084E6H   LINE      CODE     ---       #1836
      0100850EH   LINE      CODE     ---       #1837
      01008533H   LINE      CODE     ---       #1838
      0100853FH   LINE      CODE     ---       #1839
      01008549H   LINE      CODE     ---       #1841
      01008549H   LINE      CODE     ---       #1842
      01008552H   LINE      CODE     ---       #1843
      0100855FH   LINE      CODE     ---       #1844
      0100855FH   LINE      CODE     ---       #1845
      ---         BLOCKEND  ---      ---       LVL=0

      0100A023H   BLOCK     CODE     ---       LVL=0
      0100A023H   BLOCK     CODE     NEAR LAB  LVL=1
      0200C83CH   SYMBOL    XDATA    WORD      key_nb
      0200C83EH   SYMBOL    XDATA    BYTE      i
      ---         BLOCKEND  ---      ---       LVL=1
      0100A023H   LINE      CODE     ---       #1847
      0100A023H   LINE      CODE     ---       #1849
      0100A023H   LINE      CODE     ---       #1850
      0100A027H   LINE      CODE     ---       #1851
      0100A027H   LINE      CODE     ---       #1853
      0100A035H   LINE      CODE     ---       #1854
      0100A044H   LINE      CODE     ---       #1855
      0100A044H   LINE      CODE     ---       #1856
      0100A04DH   LINE      CODE     ---       #1863
      0100A060H   LINE      CODE     ---       #1864
      0100A060H   LINE      CODE     ---       #1865
      0100A066H   LINE      CODE     ---       #1866
      0100A06EH   LINE      CODE     ---       #1867
LX51 LINKER/LOCATER V4.66.97.0                                                        11/04/2023  11:13:39  PAGE 117


      0100A080H   LINE      CODE     ---       #1868
      0100A096H   LINE      CODE     ---       #1869
      0100A0ACH   LINE      CODE     ---       #1870
      0100A0B4H   LINE      CODE     ---       #1876
      0100A0C1H   LINE      CODE     ---       #1877
      0100A0C1H   LINE      CODE     ---       #1878
      ---         BLOCKEND  ---      ---       LVL=0

      0100ABCEH   BLOCK     CODE     ---       LVL=0
      0100ABCEH   BLOCK     CODE     NEAR LAB  LVL=1
      0200C83AH   SYMBOL    XDATA    ---       mask
      0200C83EH   SYMBOL    XDATA    BYTE      pwd_enable
      ---         BLOCKEND  ---      ---       LVL=1
      0100ABCEH   LINE      CODE     ---       #1880
      0100ABCEH   LINE      CODE     ---       #1881
      0100ABCEH   LINE      CODE     ---       #1882
      0100ABD9H   LINE      CODE     ---       #1883
      0100ABDEH   LINE      CODE     ---       #1884
      0100ABEEH   LINE      CODE     ---       #1886
      0100ABFAH   LINE      CODE     ---       #1887
      0100AC01H   LINE      CODE     ---       #1888
      0100AC01H   LINE      CODE     ---       #1889
      0100AC01H   LINE      CODE     ---       #1890
      0100AC03H   LINE      CODE     ---       #1892
      0100AC03H   LINE      CODE     ---       #1893
      0100AC1BH   LINE      CODE     ---       #1894
      0100AC34H   LINE      CODE     ---       #1895
      0100AC43H   LINE      CODE     ---       #1896
      0100AC43H   LINE      CODE     ---       #1900
      ---         BLOCKEND  ---      ---       LVL=0

      0100A0C2H   BLOCK     CODE     ---       LVL=0
      0200C83CH   SYMBOL    XDATA    ---       pwd_init
      0100A0C8H   BLOCK     CODE     NEAR LAB  LVL=1
      0200C83FH   SYMBOL    XDATA    WORD      key_nb
      0200C841H   SYMBOL    XDATA    ---       mask
      ---         BLOCKEND  ---      ---       LVL=1
      0100A0C2H   LINE      CODE     ---       #1902
      0100A0C8H   LINE      CODE     ---       #1903
      0100A0C8H   LINE      CODE     ---       #1904
      0100A0CFH   LINE      CODE     ---       #1905
      0100A0DAH   LINE      CODE     ---       #1906
      0100A0E0H   LINE      CODE     ---       #1907
      0100A0ECH   LINE      CODE     ---       #1908
      0100A0ECH   LINE      CODE     ---       #1909
      0100A0F2H   LINE      CODE     ---       #1910
      0100A100H   LINE      CODE     ---       #1911
      0100A100H   LINE      CODE     ---       #1912
      0100A109H   LINE      CODE     ---       #1913
      0100A122H   LINE      CODE     ---       #1914
      0100A132H   LINE      CODE     ---       #1915
      0100A13BH   LINE      CODE     ---       #1916
      0100A148H   LINE      CODE     ---       #1917
      0100A148H   LINE      CODE     ---       #1918
      0100A148H   LINE      CODE     ---       #1919
      ---         BLOCKEND  ---      ---       LVL=0

      0100BBFEH   BLOCK     CODE     ---       LVL=0
      0100BBFEH   BLOCK     CODE     NEAR LAB  LVL=1
      0200C83AH   SYMBOL    XDATA    WORD      key_nb
      0200C83CH   SYMBOL    XDATA    BYTE      pwd_enable
      ---         BLOCKEND  ---      ---       LVL=1
      0100BBFEH   LINE      CODE     ---       #1921
      0100BBFEH   LINE      CODE     ---       #1922
      0100BBFEH   LINE      CODE     ---       #1924
LX51 LINKER/LOCATER V4.66.97.0                                                        11/04/2023  11:13:39  PAGE 118


      0100BC01H   LINE      CODE     ---       #1925
      0100BC01H   LINE      CODE     ---       #1926
      0100BC0FH   LINE      CODE     ---       #1927
      0100BC1BH   LINE      CODE     ---       #1928
      0100BC1BH   LINE      CODE     ---       #1930
      0100BC25H   LINE      CODE     ---       #1931
      0100BC34H   LINE      CODE     ---       #1932
      0100BC34H   LINE      CODE     ---       #1933
      0100BC4CH   LINE      CODE     ---       #1935
      0100BC4CH   LINE      CODE     ---       #1937
      0100BC59H   LINE      CODE     ---       #1938
      0100BC59H   LINE      CODE     ---       #1939
      ---         BLOCKEND  ---      ---       LVL=0

      0100AAE0H   BLOCK     CODE     ---       LVL=0
      0100AAE0H   BLOCK     CODE     NEAR LAB  LVL=1
      0200C83AH   SYMBOL    XDATA    ---       mask
      0200C83EH   SYMBOL    XDATA    BYTE      beep_enable
      ---         BLOCKEND  ---      ---       LVL=1
      0100AAE0H   LINE      CODE     ---       #1941
      0100AAE0H   LINE      CODE     ---       #1942
      0100AAE0H   LINE      CODE     ---       #1943
      0100AAEFH   LINE      CODE     ---       #1944
      0100AAF4H   LINE      CODE     ---       #1945
      0100AB07H   LINE      CODE     ---       #1947
      0100AB0EH   LINE      CODE     ---       #1948
      0100AB0EH   LINE      CODE     ---       #1950
      0100AB17H   LINE      CODE     ---       #1951
      0100AB19H   LINE      CODE     ---       #1953
      0100AB19H   LINE      CODE     ---       #1955
      0100AB32H   LINE      CODE     ---       #1956
      0100AB32H   LINE      CODE     ---       #1957
      0100AB3CH   LINE      CODE     ---       #1958
      0100AB42H   LINE      CODE     ---       #1959
      0100AB4AH   LINE      CODE     ---       #1960
      ---         BLOCKEND  ---      ---       LVL=0

      0100A761H   BLOCK     CODE     ---       LVL=0
      0100A761H   BLOCK     CODE     NEAR LAB  LVL=1
      0200C83CH   SYMBOL    XDATA    ---       mask
      0200C840H   SYMBOL    XDATA    WORD      key_nb
      0200C842H   SYMBOL    XDATA    BYTE      beep_enable
      ---         BLOCKEND  ---      ---       LVL=1
      0100A761H   LINE      CODE     ---       #1963
      0100A761H   LINE      CODE     ---       #1964
      0100A761H   LINE      CODE     ---       #1965
      0100A770H   LINE      CODE     ---       #1966
      0100A773H   LINE      CODE     ---       #1967
      0100A773H   LINE      CODE     ---       #1968
      0100A781H   LINE      CODE     ---       #1969
      0100A78DH   LINE      CODE     ---       #1970
      0100A78DH   LINE      CODE     ---       #1971
      0100A796H   LINE      CODE     ---       #1973
      0100A7A5H   LINE      CODE     ---       #1974
      0100A7A5H   LINE      CODE     ---       #1975
      0100A7BEH   LINE      CODE     ---       #1976
      0100A7CFH   LINE      CODE     ---       #1977
      0100A7D7H   LINE      CODE     ---       #1979
      0100A7D7H   LINE      CODE     ---       #1980
      0100A7E4H   LINE      CODE     ---       #1981
      0100A7E4H   LINE      CODE     ---       #1982
      ---         BLOCKEND  ---      ---       LVL=0

      0100D6E4H   BLOCK     CODE     ---       LVL=0
      00000006H   SYMBOL    DATA     WORD      adr
LX51 LINKER/LOCATER V4.66.97.0                                                        11/04/2023  11:13:39  PAGE 119


      0100D6E4H   LINE      CODE     ---       #1984
      0100D6E4H   LINE      CODE     ---       #1985
      0100D6E4H   LINE      CODE     ---       #1986
      ---         BLOCKEND  ---      ---       LVL=0

      0100D088H   BLOCK     CODE     ---       LVL=0
      00000007H   SYMBOL    DATA     BYTE      password_enable
      00000004H   SYMBOL    DATA     WORD      pwd_input
      00000002H   SYMBOL    DATA     WORD      pwd_init
      0100D088H   LINE      CODE     ---       #1989
      0100D088H   LINE      CODE     ---       #1990
      0100D088H   LINE      CODE     ---       #1991
      0100D08BH   LINE      CODE     ---       #1992
      0100D08BH   LINE      CODE     ---       #1993
      0100D09DH   LINE      CODE     ---       #1994
      0100D09DH   LINE      CODE     ---       #1995
      0100D0A4H   LINE      CODE     ---       #1996
      0100D0ABH   LINE      CODE     ---       #1997
      0100D0ABH   LINE      CODE     ---       #1999
      0100D0ABH   LINE      CODE     ---       #2000
      0100D0ABH   LINE      CODE     ---       #2001
      0100D0ABH   LINE      CODE     ---       #2002
      ---         BLOCKEND  ---      ---       LVL=0

      0100B60DH   BLOCK     CODE     ---       LVL=0
      0200C83CH   SYMBOL    XDATA    BYTE      password_enable
      0100B612H   BLOCK     CODE     NEAR LAB  LVL=1
      0200C83DH   SYMBOL    XDATA    WORD      key_nb
      ---         BLOCKEND  ---      ---       LVL=1
      0100B60DH   LINE      CODE     ---       #2004
      0100B612H   LINE      CODE     ---       #2005
      0100B612H   LINE      CODE     ---       #2006
      0100B613H   LINE      CODE     ---       #2007
      0100B621H   LINE      CODE     ---       #2008
      0100B62DH   LINE      CODE     ---       #2009
      0100B62DH   LINE      CODE     ---       #2010
      0100B635H   LINE      CODE     ---       #2011
      0100B635H   LINE      CODE     ---       #2012
      0100B63AH   LINE      CODE     ---       #2013
      0100B63CH   LINE      CODE     ---       #2015
      0100B63CH   LINE      CODE     ---       #2016
      0100B643H   LINE      CODE     ---       #2017
      0100B649H   LINE      CODE     ---       #2018
      0100B649H   LINE      CODE     ---       #2019
      0100B656H   LINE      CODE     ---       #2020
      0100B656H   LINE      CODE     ---       #2021
      ---         BLOCKEND  ---      ---       LVL=0

      01009333H   BLOCK     CODE     ---       LVL=0
      01009333H   BLOCK     CODE     NEAR LAB  LVL=1
      0200C83AH   SYMBOL    XDATA    ---       mask
      0200C83EH   SYMBOL    XDATA    BYTE      backlight_enable
      0200C83FH   SYMBOL    XDATA    BYTE      work_light
      0200C840H   SYMBOL    XDATA    WORD      sleep_time
      ---         BLOCKEND  ---      ---       LVL=1
      01009333H   LINE      CODE     ---       #2024
      01009333H   LINE      CODE     ---       #2025
      01009333H   LINE      CODE     ---       #2026
      01009342H   LINE      CODE     ---       #2027
      01009346H   LINE      CODE     ---       #2028
      01009346H   LINE      CODE     ---       #2029
      01009349H   LINE      CODE     ---       #2030
      0100935CH   LINE      CODE     ---       #2032
      01009363H   LINE      CODE     ---       #2033
      01009363H   LINE      CODE     ---       #2034
LX51 LINKER/LOCATER V4.66.97.0                                                        11/04/2023  11:13:39  PAGE 120


      01009363H   LINE      CODE     ---       #2036
      01009363H   LINE      CODE     ---       #2037
      0100936CH   LINE      CODE     ---       #2038
      01009385H   LINE      CODE     ---       #2039
      0100939EH   LINE      CODE     ---       #2040
      0100939EH   LINE      CODE     ---       #2042
      010093A8H   LINE      CODE     ---       #2044
      010093AEH   LINE      CODE     ---       #2045
      010093B8H   LINE      CODE     ---       #2047
      010093BEH   LINE      CODE     ---       #2048
      010093CFH   LINE      CODE     ---       #2050
      010093D5H   LINE      CODE     ---       #2051
      010093DDH   LINE      CODE     ---       #2052
      010093E4H   LINE      CODE     ---       #2053
      ---         BLOCKEND  ---      ---       LVL=0

      0100BAE8H   BLOCK     CODE     ---       LVL=0
      0100BAE8H   BLOCK     CODE     NEAR LAB  LVL=1
      0200C842H   SYMBOL    XDATA    ---       mask
      ---         BLOCKEND  ---      ---       LVL=1
      0100BAE8H   LINE      CODE     ---       #2056
      0100BAE8H   LINE      CODE     ---       #2057
      0100BAE8H   LINE      CODE     ---       #2058
      0100BAF7H   LINE      CODE     ---       #2059
      0100BB10H   LINE      CODE     ---       #2060
      0100BB29H   LINE      CODE     ---       #2061
      0100BB3CH   LINE      CODE     ---       #2062
      ---         BLOCKEND  ---      ---       LVL=0

      0100CE3CH   BLOCK     CODE     ---       LVL=0
      0200C843H   SYMBOL    XDATA    WORD      adr
      0100CE44H   BLOCK     CODE     NEAR LAB  LVL=1
      0200C845H   SYMBOL    XDATA    BYTE      check_var
      ---         BLOCKEND  ---      ---       LVL=1
      0100CE3CH   LINE      CODE     ---       #2069
      0100CE44H   LINE      CODE     ---       #2070
      0100CE44H   LINE      CODE     ---       #2071
      0100CE47H   LINE      CODE     ---       #2072
      0100CE4FH   LINE      CODE     ---       #2074
      0100CE52H   LINE      CODE     ---       #2075
      0100CE59H   LINE      CODE     ---       #2076
      0100CE65H   LINE      CODE     ---       #2078
      0100CE6AH   LINE      CODE     ---       #2079
      ---         BLOCKEND  ---      ---       LVL=0

      0100B66EH   BLOCK     CODE     ---       LVL=0
      0100B66EH   BLOCK     CODE     NEAR LAB  LVL=1
      0200C83AH   SYMBOL    XDATA    BYTE      backlight_enable
      0200C83BH   SYMBOL    XDATA    WORD      key_nb
      ---         BLOCKEND  ---      ---       LVL=1
      0100B66EH   LINE      CODE     ---       #2084
      0100B66EH   LINE      CODE     ---       #2085
      0100B66EH   LINE      CODE     ---       #2086
      0100B672H   LINE      CODE     ---       #2087
      0100B672H   LINE      CODE     ---       #2088
      0100B680H   LINE      CODE     ---       #2089
      0100B68CH   LINE      CODE     ---       #2090
      0100B68CH   LINE      CODE     ---       #2091
      0100B696H   LINE      CODE     ---       #2093
      0100B6A5H   LINE      CODE     ---       #2094
      0100B6A5H   LINE      CODE     ---       #2095
      0100B6ADH   LINE      CODE     ---       #2096
      0100B6BEH   LINE      CODE     ---       #2097
      0100B6C1H   LINE      CODE     ---       #2098
      0100B6C1H   LINE      CODE     ---       #2100
LX51 LINKER/LOCATER V4.66.97.0                                                        11/04/2023  11:13:39  PAGE 121


      0100B6CEH   LINE      CODE     ---       #2101
      0100B6CEH   LINE      CODE     ---       #2102
      ---         BLOCKEND  ---      ---       LVL=0

      0100B3BFH   BLOCK     CODE     ---       LVL=0
      0100B3BFH   BLOCK     CODE     NEAR LAB  LVL=1
      0200C83CH   SYMBOL    XDATA    WORD      key_nb
      0200C83EH   SYMBOL    XDATA    BYTE      back_enable
      0200C83FH   SYMBOL    XDATA    BYTE      work_light
      0200C840H   SYMBOL    XDATA    WORD      sleep_time
      ---         BLOCKEND  ---      ---       LVL=1
      0100B3BFH   LINE      CODE     ---       #2104
      0100B3BFH   LINE      CODE     ---       #2105
      0100B3BFH   LINE      CODE     ---       #2106
      0100B3C3H   LINE      CODE     ---       #2107
      0100B3C3H   LINE      CODE     ---       #2108
      0100B3C3H   LINE      CODE     ---       #2109
      0100B3C6H   LINE      CODE     ---       #2110
      0100B3CCH   LINE      CODE     ---       #2111
      0100B3D8H   LINE      CODE     ---       #2112
      0100B3D8H   LINE      CODE     ---       #2115
      0100B3E2H   LINE      CODE     ---       #2116
      0100B3E8H   LINE      CODE     ---       #2117
      0100B3F9H   LINE      CODE     ---       #2119
      0100B3FFH   LINE      CODE     ---       #2120
      0100B40AH   LINE      CODE     ---       #2124
      0100B410H   LINE      CODE     ---       #2125
      0100B419H   LINE      CODE     ---       #2126
      0100B41CH   LINE      CODE     ---       #2127
      0100B421H   LINE      CODE     ---       #2128
      0100B421H   LINE      CODE     ---       #2129
      ---         BLOCKEND  ---      ---       LVL=0

      0100C86FH   BLOCK     CODE     ---       LVL=0
      0100C86FH   BLOCK     CODE     NEAR LAB  LVL=1
      0200A772H   SYMBOL    XDATA    BYTE      s_sta
      0200C83CH   SYMBOL    XDATA    ---       read_data
      ---         BLOCKEND  ---      ---       LVL=1
      0100C86FH   LINE      CODE     ---       #2131
      0100C86FH   LINE      CODE     ---       #2132
      0100C86FH   LINE      CODE     ---       #2134
      0100C87CH   LINE      CODE     ---       #2135
      0100C88EH   LINE      CODE     ---       #2136
      0100C894H   LINE      CODE     ---       #2137
      0100C894H   LINE      CODE     ---       #2139
      0100C89AH   LINE      CODE     ---       #2140
      0100C89AH   LINE      CODE     ---       #2141
      0100C89FH   LINE      CODE     ---       #2142
      0100C8A5H   LINE      CODE     ---       #2143
      0100C8A5H   LINE      CODE     ---       #2144
      0100C8A5H   LINE      CODE     ---       #2145
      0100C8ABH   LINE      CODE     ---       #2146
      0100C8ABH   LINE      CODE     ---       #2147
      0100C8B0H   LINE      CODE     ---       #2148
      0100C8B0H   LINE      CODE     ---       #2150
      ---         BLOCKEND  ---      ---       LVL=0

      0100D062H   BLOCK     CODE     ---       LVL=0
      0100D062H   LINE      CODE     ---       #2152
      0100D062H   LINE      CODE     ---       #2153
      0100D062H   LINE      CODE     ---       #2154
      0100D06FH   LINE      CODE     ---       #2155
      0100D06FH   LINE      CODE     ---       #2156
      0100D071H   LINE      CODE     ---       #2157
      0100D075H   LINE      CODE     ---       #2158
LX51 LINKER/LOCATER V4.66.97.0                                                        11/04/2023  11:13:39  PAGE 122


      0100D079H   LINE      CODE     ---       #2159
      0100D07EH   LINE      CODE     ---       #2161
      0100D087H   LINE      CODE     ---       #2162
      0100D087H   LINE      CODE     ---       #2163
      ---         BLOCKEND  ---      ---       LVL=0

      0100C5FBH   BLOCK     CODE     ---       LVL=0
      0200C83AH   SYMBOL    XDATA    ---       p
      00000005H   SYMBOL    DATA     BYTE      fun_execute_nb
      0200C83EH   SYMBOL    XDATA    BYTE      channel
      0200C83FH   SYMBOL    XDATA    BYTE      parameter_set_sta
      0100C5FBH   LINE      CODE     ---       #2165
      0100C601H   LINE      CODE     ---       #2166
      0100C601H   LINE      CODE     ---       #2167
      0100C612H   LINE      CODE     ---       #2168
      0100C612H   LINE      CODE     ---       #2169
      0100C612H   LINE      CODE     ---       #2170
      0100C61BH   LINE      CODE     ---       #2171
      0100C61BH   LINE      CODE     ---       #2172
      0100C61BH   LINE      CODE     ---       #2173
      0100C624H   LINE      CODE     ---       #2174
      0100C624H   LINE      CODE     ---       #2175
      0100C624H   LINE      CODE     ---       #2176
      0100C62EH   LINE      CODE     ---       #2177
      0100C62EH   LINE      CODE     ---       #2178
      0100C62EH   LINE      CODE     ---       #2179
      0100C638H   LINE      CODE     ---       #2180
      0100C638H   LINE      CODE     ---       #2181
      0100C638H   LINE      CODE     ---       #2182
      0100C642H   LINE      CODE     ---       #2183
      0100C642H   LINE      CODE     ---       #2184
      0100C642H   LINE      CODE     ---       #2185
      0100C642H   LINE      CODE     ---       #2186
      0100C642H   LINE      CODE     ---       #2187
      ---         BLOCKEND  ---      ---       LVL=0

      0100A280H   BLOCK     CODE     ---       LVL=0
      0100A280H   LINE      CODE     ---       #2189
      0100A280H   LINE      CODE     ---       #2190
      0100A280H   LINE      CODE     ---       #2193
      0100A2A9H   LINE      CODE     ---       #2194
      0100A2A9H   LINE      CODE     ---       #2196
      0100A2B5H   LINE      CODE     ---       #2197
      0100A2B5H   LINE      CODE     ---       #2198
      0100A2BBH   LINE      CODE     ---       #2199
      0100A2CFH   LINE      CODE     ---       #2200
      0100A2D7H   LINE      CODE     ---       #2201
      0100A2D7H   LINE      CODE     ---       #2202
      0100A2E5H   LINE      CODE     ---       #2203
      0100A2E5H   LINE      CODE     ---       #2205
      0100A303H   LINE      CODE     ---       #2206
      0100A303H   LINE      CODE     ---       #2207
      0100A305H   LINE      CODE     ---       #2209
      0100A305H   LINE      CODE     ---       #2210
      0100A305H   LINE      CODE     ---       #2211
      0100A305H   LINE      CODE     ---       #2212
      0100A307H   LINE      CODE     ---       #2214
      0100A307H   LINE      CODE     ---       #2215
      0100A30DH   LINE      CODE     ---       #2216
      0100A30DH   LINE      CODE     ---       #2217
      0100A30DH   LINE      CODE     ---       #2218
      0100A30DH   LINE      CODE     ---       #2219
      ---         BLOCKEND  ---      ---       LVL=0

      01009994H   BLOCK     CODE     ---       LVL=0
LX51 LINKER/LOCATER V4.66.97.0                                                        11/04/2023  11:13:39  PAGE 123


      01009994H   BLOCK     CODE     NEAR LAB  LVL=1
      0200C83CH   SYMBOL    XDATA    WORD      key_nb
      ---         BLOCKEND  ---      ---       LVL=1
      01009994H   LINE      CODE     ---       #2225
      01009994H   LINE      CODE     ---       #2226
      01009994H   LINE      CODE     ---       #2227
      0100999AH   LINE      CODE     ---       #2228
      010099A0H   LINE      CODE     ---       #2229
      010099ABH   LINE      CODE     ---       #2230
      010099ABH   LINE      CODE     ---       #2231
      010099D1H   LINE      CODE     ---       #2232
      010099D1H   LINE      CODE     ---       #2233
      010099D1H   LINE      CODE     ---       #2234
      010099D6H   LINE      CODE     ---       #2235
      010099D6H   LINE      CODE     ---       #2236
      010099D6H   LINE      CODE     ---       #2237
      010099D8H   LINE      CODE     ---       #2238
      010099D8H   LINE      CODE     ---       #2239
      010099DEH   LINE      CODE     ---       #2240
      010099E3H   LINE      CODE     ---       #2241
      010099E5H   LINE      CODE     ---       #2242
      010099E7H   LINE      CODE     ---       #2243
      010099E7H   LINE      CODE     ---       #2244
      010099EDH   LINE      CODE     ---       #2245
      010099EFH   LINE      CODE     ---       #2246
      010099EFH   LINE      CODE     ---       #2247
      010099F1H   LINE      CODE     ---       #2248
      010099F1H   LINE      CODE     ---       #2249
      010099F7H   LINE      CODE     ---       #2250
      010099F9H   LINE      CODE     ---       #2251
      010099F9H   LINE      CODE     ---       #2252
      010099FBH   LINE      CODE     ---       #2253
      010099FBH   LINE      CODE     ---       #2254
      01009A01H   LINE      CODE     ---       #2255
      01009A0DH   LINE      CODE     ---       #2256
      01009A11H   LINE      CODE     ---       #2257
      01009A13H   LINE      CODE     ---       #2258
      01009A13H   LINE      CODE     ---       #2259
      01009A18H   LINE      CODE     ---       #2260
      01009A18H   LINE      CODE     ---       #2261
      01009A18H   LINE      CODE     ---       #2262
      01009A1AH   LINE      CODE     ---       #2263
      01009A1AH   LINE      CODE     ---       #2264
      01009A1FH   LINE      CODE     ---       #2265
      01009A1FH   LINE      CODE     ---       #2266
      01009A1FH   LINE      CODE     ---       #2267
      01009A21H   LINE      CODE     ---       #2268
      01009A21H   LINE      CODE     ---       #2269
      01009A27H   LINE      CODE     ---       #2270
      01009A2CH   LINE      CODE     ---       #2271
      01009A30H   LINE      CODE     ---       #2272
      01009A30H   LINE      CODE     ---       #2273
      01009A30H   LINE      CODE     ---       #2274
      01009A30H   LINE      CODE     ---       #2275
      01009A30H   LINE      CODE     ---       #2276
      01009A35H   LINE      CODE     ---       #2277
      01009A3DH   LINE      CODE     ---       #2279
      01009A43H   LINE      CODE     ---       #2280
      01009A43H   LINE      CODE     ---       #2281
      ---         BLOCKEND  ---      ---       LVL=0

      0100CF20H   BLOCK     CODE     ---       LVL=0
      0100CF20H   BLOCK     CODE     NEAR LAB  LVL=1
      0200C83CH   SYMBOL    XDATA    WORD      key_nb
      ---         BLOCKEND  ---      ---       LVL=1
LX51 LINKER/LOCATER V4.66.97.0                                                        11/04/2023  11:13:39  PAGE 124


      0100CF20H   LINE      CODE     ---       #2283
      0100CF20H   LINE      CODE     ---       #2284
      0100CF20H   LINE      CODE     ---       #2286
      0100CF27H   LINE      CODE     ---       #2287
      0100CF2DH   LINE      CODE     ---       #2288
      0100CF39H   LINE      CODE     ---       #2289
      0100CF39H   LINE      CODE     ---       #2290
      0100CF3EH   LINE      CODE     ---       #2291
      0100CF43H   LINE      CODE     ---       #2292
      0100CF49H   LINE      CODE     ---       #2293
      0100CF49H   LINE      CODE     ---       #2294
      ---         BLOCKEND  ---      ---       LVL=0

      0100D596H   BLOCK     CODE     ---       LVL=0
      00000007H   SYMBOL    DATA     BYTE      adr
      0100D596H   LINE      CODE     ---       #2296
      0100D596H   LINE      CODE     ---       #2297
      0100D596H   LINE      CODE     ---       #2298
      ---         BLOCKEND  ---      ---       LVL=0

      0100AD2CH   BLOCK     CODE     ---       LVL=0
      0100AD2CH   BLOCK     CODE     NEAR LAB  LVL=1
      0200A773H   SYMBOL    XDATA    BYTE      send_flag
      ---         BLOCKEND  ---      ---       LVL=1
      0100AD2CH   LINE      CODE     ---       #2301
      0100AD2CH   LINE      CODE     ---       #2302
      0100AD2CH   LINE      CODE     ---       #2304
      0100AD34H   LINE      CODE     ---       #2305
      0100AD34H   LINE      CODE     ---       #2312
      0100AD44H   LINE      CODE     ---       #2313
      0100AD44H   LINE      CODE     ---       #2314
      0100AD4DH   LINE      CODE     ---       #2315
      0100AD55H   LINE      CODE     ---       #2316
      0100AD5BH   LINE      CODE     ---       #2318
      0100AD5BH   LINE      CODE     ---       #2323
      0100AD5BH   LINE      CODE     ---       #2325
      0100AD68H   LINE      CODE     ---       #2326
      0100AD68H   LINE      CODE     ---       #2327
      0100AD6DH   LINE      CODE     ---       #2330
      0100AD72H   LINE      CODE     ---       #2331
      0100AD72H   LINE      CODE     ---       #2332
      0100AD84H   LINE      CODE     ---       #2333
      0100AD84H   LINE      CODE     ---       #2334
      0100AD88H   LINE      CODE     ---       #2335
      0100AD8DH   LINE      CODE     ---       #2336
      0100AD92H   LINE      CODE     ---       #2337
      0100AD9BH   LINE      CODE     ---       #2338
      0100AD9BH   LINE      CODE     ---       #2339
      ---         BLOCKEND  ---      ---       LVL=0

      01008AC0H   BLOCK     CODE     ---       LVL=0
      01008AC0H   BLOCK     CODE     NEAR LAB  LVL=1
      00000007H   SYMBOL    DATA     BYTE      device_channel
      ---         BLOCKEND  ---      ---       LVL=1
      01008AC0H   LINE      CODE     ---       #2341
      01008AC0H   LINE      CODE     ---       #2342
      01008AC0H   LINE      CODE     ---       #2344
      01008AC0H   LINE      CODE     ---       #2345
      01008ACDH   LINE      CODE     ---       #2346
      01008ACDH   LINE      CODE     ---       #2347
      01008AD8H   LINE      CODE     ---       #2348
      01008AE3H   LINE      CODE     ---       #2349
      01008AF2H   LINE      CODE     ---       #2350
      01008AFAH   LINE      CODE     ---       #2351
      01008AFDH   LINE      CODE     ---       #2352
LX51 LINKER/LOCATER V4.66.97.0                                                        11/04/2023  11:13:39  PAGE 125


      01008B03H   LINE      CODE     ---       #2353
      01008B14H   LINE      CODE     ---       #2354
      01008B31H   LINE      CODE     ---       #2358
      01008B44H   LINE      CODE     ---       #2367
      01008B58H   LINE      CODE     ---       #2368
      01008B70H   LINE      CODE     ---       #2369
      01008B7EH   LINE      CODE     ---       #2370
      01008B87H   LINE      CODE     ---       #2371
      01008B8EH   LINE      CODE     ---       #2372
      01008B8EH   LINE      CODE     ---       #2373
      ---         BLOCKEND  ---      ---       LVL=0

      010065D7H   BLOCK     CODE     ---       LVL=0
      010065D7H   BLOCK     CODE     NEAR LAB  LVL=1
      0200C83CH   SYMBOL    XDATA    WORD      key_nb
      ---         BLOCKEND  ---      ---       LVL=1
      010065D7H   LINE      CODE     ---       #2380
      010065D7H   LINE      CODE     ---       #2381
      010065D7H   LINE      CODE     ---       #2382
      010065DEH   LINE      CODE     ---       #2383
      010065E0H   LINE      CODE     ---       #2384
      010065EEH   LINE      CODE     ---       #2385
      010065EEH   LINE      CODE     ---       #2386
      010065FBH   LINE      CODE     ---       #2387
      0100660BH   LINE      CODE     ---       #2388
      0100661BH   LINE      CODE     ---       #2389
      0100662BH   LINE      CODE     ---       #2390
      0100663BH   LINE      CODE     ---       #2391
      01006648H   LINE      CODE     ---       #2392
      01006655H   LINE      CODE     ---       #2393
      01006662H   LINE      CODE     ---       #2394
      0100666FH   LINE      CODE     ---       #2395
      0100667CH   LINE      CODE     ---       #2396
      01006689H   LINE      CODE     ---       #2397
      01006696H   LINE      CODE     ---       #2398
      0100669CH   LINE      CODE     ---       #2399
      010066A6H   LINE      CODE     ---       #2400
      010066A6H   LINE      CODE     ---       #2401
      010066A8H   LINE      CODE     ---       #2402
      010066B6H   LINE      CODE     ---       #2403
      010066B6H   LINE      CODE     ---       #2404
      010066C3H   LINE      CODE     ---       #2405
      010066D0H   LINE      CODE     ---       #2406
      010066DDH   LINE      CODE     ---       #2407
      010066EAH   LINE      CODE     ---       #2408
      010066F7H   LINE      CODE     ---       #2409
      01006704H   LINE      CODE     ---       #2410
      01006711H   LINE      CODE     ---       #2411
      0100671EH   LINE      CODE     ---       #2412
      0100672BH   LINE      CODE     ---       #2413
      01006738H   LINE      CODE     ---       #2414
      01006745H   LINE      CODE     ---       #2415
      01006752H   LINE      CODE     ---       #2416
      01006758H   LINE      CODE     ---       #2417
      01006762H   LINE      CODE     ---       #2418
      01006762H   LINE      CODE     ---       #2419
      ---         BLOCKEND  ---      ---       LVL=0

      0100BCB6H   BLOCK     CODE     ---       LVL=0
      0100BCB6H   BLOCK     CODE     NEAR LAB  LVL=1
      0200C83CH   SYMBOL    XDATA    WORD      key_nb
      ---         BLOCKEND  ---      ---       LVL=1
      0100BCB6H   LINE      CODE     ---       #2424
      0100BCB6H   LINE      CODE     ---       #2425
      0100BCB6H   LINE      CODE     ---       #2426
LX51 LINKER/LOCATER V4.66.97.0                                                        11/04/2023  11:13:39  PAGE 126


      0100BCBCH   LINE      CODE     ---       #2427
      0100BCC2H   LINE      CODE     ---       #2428
      0100BCCAH   LINE      CODE     ---       #2429
      0100BCCAH   LINE      CODE     ---       #2430
      0100BCCEH   LINE      CODE     ---       #2431
      0100BCD4H   LINE      CODE     ---       #2432
      0100BCD4H   LINE      CODE     ---       #2433
      0100BCDCH   LINE      CODE     ---       #2434
      0100BCE8H   LINE      CODE     ---       #2435
      0100BCE8H   LINE      CODE     ---       #2436
      0100BCF2H   LINE      CODE     ---       #2437
      0100BD03H   LINE      CODE     ---       #2438
      0100BD10H   LINE      CODE     ---       #2439
      0100BD10H   LINE      CODE     ---       #2440
      ---         BLOCKEND  ---      ---       LVL=0

      010091B5H   BLOCK     CODE     ---       LVL=0
      010091B5H   BLOCK     CODE     NEAR LAB  LVL=1
      00000006H   SYMBOL    DATA     WORD      page
      0200C83AH   SYMBOL    XDATA    WORD      size_struct
      ---         BLOCKEND  ---      ---       LVL=1
      010091B5H   LINE      CODE     ---       #2442
      010091B5H   LINE      CODE     ---       #2443
      010091B5H   LINE      CODE     ---       #2444
      010091B8H   LINE      CODE     ---       #2445
      010091BEH   LINE      CODE     ---       #2446
      010091C1H   LINE      CODE     ---       #2447
      010091CBH   LINE      CODE     ---       #2449
      010091FBH   LINE      CODE     ---       #2450
      010091FBH   LINE      CODE     ---       #2452
      010091FEH   LINE      CODE     ---       #2453
      01009204H   LINE      CODE     ---       #2454
      01009204H   LINE      CODE     ---       #2456
      01009227H   LINE      CODE     ---       #2457
      0100922DH   LINE      CODE     ---       #2458
      01009230H   LINE      CODE     ---       #2459
      01009233H   LINE      CODE     ---       #2460
      0100923EH   LINE      CODE     ---       #2461
      01009249H   LINE      CODE     ---       #2462
      0100924CH   LINE      CODE     ---       #2463
      01009256H   LINE      CODE     ---       #2464
      0100925FH   LINE      CODE     ---       #2465
      01009262H   LINE      CODE     ---       #2466
      01009265H   LINE      CODE     ---       #2468
      01009268H   LINE      CODE     ---       #2469
      0100926BH   LINE      CODE     ---       #2470
      0100926EH   LINE      CODE     ---       #2471
      01009271H   LINE      CODE     ---       #2472
      ---         BLOCKEND  ---      ---       LVL=0

      0100CF9DH   BLOCK     CODE     ---       LVL=0
      0100CF9DH   LINE      CODE     ---       #2479
      0100CF9DH   LINE      CODE     ---       #2480
      0100CF9DH   LINE      CODE     ---       #2481
      0100CFA0H   LINE      CODE     ---       #2482
      0100CFA3H   LINE      CODE     ---       #2483
      0100CFA6H   LINE      CODE     ---       #2484
      0100CFAFH   LINE      CODE     ---       #2485
      0100CFB4H   LINE      CODE     ---       #2486
      0100CFB9H   LINE      CODE     ---       #2487
      0100CFBFH   LINE      CODE     ---       #2488
      0100CFC1H   LINE      CODE     ---       #2489
      0100CFC5H   LINE      CODE     ---       #2490
      ---         BLOCKEND  ---      ---       LVL=0

LX51 LINKER/LOCATER V4.66.97.0                                                        11/04/2023  11:13:39  PAGE 127


      0100B290H   BLOCK     CODE     ---       LVL=0
      0100B290H   BLOCK     CODE     NEAR LAB  LVL=1
      0200C83AH   SYMBOL    XDATA    WORD      cmd
      ---         BLOCKEND  ---      ---       LVL=1
      0100B290H   LINE      CODE     ---       #2495
      0100B290H   LINE      CODE     ---       #2496
      0100B290H   LINE      CODE     ---       #2497
      0100B297H   LINE      CODE     ---       #2498
      0100B29BH   LINE      CODE     ---       #2499
      0100B29EH   LINE      CODE     ---       #2501
      0100B2A4H   LINE      CODE     ---       #2502
      0100B2A9H   LINE      CODE     ---       #2503
      0100B2B3H   LINE      CODE     ---       #2505
      0100B2BDH   LINE      CODE     ---       #2506
      0100B2BDH   LINE      CODE     ---       #2507
      0100B2C0H   LINE      CODE     ---       #2508
      0100B2C2H   LINE      CODE     ---       #2510
      0100B2C7H   LINE      CODE     ---       #2511
      0100B2D2H   LINE      CODE     ---       #2512
      ---         BLOCKEND  ---      ---       LVL=0

      ---         MODULE    ---      ---       MB_USER
      0200B3CEH   PUBLIC    XDATA    ---       master_send_hr
      0200B3C8H   PUBLIC    XDATA    ---       mb_master_func
      0200B3B2H   PUBLIC    XDATA    ---       user_modbus
      0200AFB2H   PUBLIC    XDATA    ---       send_table
      0200C8A2H   PUBLIC    XDATA    BYTE      ?_pack_data_send?BYTE
      0100CBF8H   PUBLIC    CODE     ---       _pack_data_send
      0100C643H   PUBLIC    CODE     ---       _modbus_send_data
      0200C8A2H   PUBLIC    XDATA    BYTE      ?_set_master_send_hr?BYTE
      0100D396H   PUBLIC    CODE     ---       _set_master_send_hr
      0200C8AAH   PUBLIC    XDATA    BYTE      ?_modtify_mb_infom?BYTE
      0100C3A5H   PUBLIC    CODE     ---       _modtify_mb_infom
      0100C935H   PUBLIC    CODE     ---       _mb_data_init
      01006420H   PUBLIC    CODE     ---       _modbus_master_send
      0200C8C0H   PUBLIC    XDATA    BYTE      ?_short_copy_xch?BYTE
      0100AB57H   PUBLIC    CODE     ---       _short_copy_xch
      000000F1H   SFRSYM    DATA     BYTE      ADR_H
      00000080H   SFRSYM    DATA     BYTE      P0
      00000090H   SFRSYM    DATA     BYTE      P1
      000000A0H   SFRSYM    DATA     BYTE      P2
      000000B0H   SFRSYM    DATA     BYTE      P3
      000000F3H   SFRSYM    DATA     BYTE      ADR_L
      000000D0H.6 SFRSYM    DATA     BIT       AC
      000000A0H.6 SFRSYM    DATA     BIT       Red_LED1
      00000094H   SFRSYM    DATA     BYTE      PAGESEL
      000000F2H   SFRSYM    DATA     BYTE      ADR_M
      000000A8H.7 SFRSYM    DATA     BIT       EA
      000000F8H   SFRSYM    DATA     BYTE      RAMMODE
      000000B7H   SFRSYM    DATA     BYTE      P0MDOUT
      000000BCH   SFRSYM    DATA     BYTE      P1MDOUT
      000000A8H   SFRSYM    DATA     BYTE      IEN0
      000000BDH   SFRSYM    DATA     BYTE      P2MDOUT
      000000B8H   SFRSYM    DATA     BYTE      IEN1
      000000BEH   SFRSYM    DATA     BYTE      P3MDOUT
      0000009AH   SFRSYM    DATA     BYTE      IEN2
      000000F8H.4 SFRSYM    DATA     BIT       APP_ACK
      000000F4H   SFRSYM    DATA     BYTE      ADR_INC
      000000B8H.1 SFRSYM    DATA     BIT       ECAN
      000000D0H.7 SFRSYM    DATA     BIT       CY
      000000B8H.3 SFRSYM    DATA     BIT       ES4R
      000000B8H.5 SFRSYM    DATA     BIT       ES5R
      000000B8H.2 SFRSYM    DATA     BIT       ES4T
      000000B8H.4 SFRSYM    DATA     BIT       ES5T
      000000B0H.3 SFRSYM    DATA     BIT       RTC_SDA
LX51 LINKER/LOCATER V4.66.97.0                                                        11/04/2023  11:13:39  PAGE 128


      00000081H   SFRSYM    DATA     BYTE      SP
      000000D0H.2 SFRSYM    DATA     BIT       OV
      00000095H   SFRSYM    DATA     BYTE      D_PAGESEL
      000000F8H.7 SFRSYM    DATA     BIT       APP_REQ
      000000B0H.2 SFRSYM    DATA     BIT       RTC_SCL
      000000BFH   SFRSYM    DATA     BYTE      IRCON2
      00000087H   SFRSYM    DATA     BYTE      PCON
      000000BAH   SFRSYM    DATA     BYTE      SREL2H
      000000BBH   SFRSYM    DATA     BYTE      SREL3H
      000000F9H   SFRSYM    DATA     BYTE      PORTDRV
      00000089H   SFRSYM    DATA     BYTE      TMOD
      00000088H   SFRSYM    DATA     BYTE      TCON
      000000AAH   SFRSYM    DATA     BYTE      SREL2L
      0000009DH   SFRSYM    DATA     BYTE      SREL3L
      000000FFH   SFRSYM    DATA     BYTE      EXDATA
      00000097H   SFRSYM    DATA     BYTE      SCON4R
      000000ABH   SFRSYM    DATA     BYTE      SCON5R
      000000D9H   SFRSYM    DATA     BYTE      BODE4_DIV_H
      000000AEH   SFRSYM    DATA     BYTE      BODE5_DIV_H
      00000096H   SFRSYM    DATA     BYTE      SCON4T
      000000A7H   SFRSYM    DATA     BYTE      SCON5T
      00000088H.1 SFRSYM    DATA     BIT       IE0
      00000088H.3 SFRSYM    DATA     BIT       IE1
      000000C9H   SFRSYM    DATA     BYTE      MUX_SEL
      000000E7H   SFRSYM    DATA     BYTE      BODE4_DIV_L
      000000AFH   SFRSYM    DATA     BYTE      BODE5_DIV_L
      000000F0H   SFRSYM    DATA     BYTE      B
      000000E0H   SFRSYM    DATA     BYTE      ACC
      0000008FH   SFRSYM    DATA     BYTE      CAN_CR
      000000A9H   SFRSYM    DATA     BYTE      IP0
      000000A8H.1 SFRSYM    DATA     BIT       ET0
      000000B9H   SFRSYM    DATA     BYTE      IP1
      000000A8H.3 SFRSYM    DATA     BIT       ET1
      000000A8H.4 SFRSYM    DATA     BIT       ES2
      00000088H.5 SFRSYM    DATA     BIT       TF0
      000000FDH   SFRSYM    DATA     BYTE      DATA0
      000000A8H.5 SFRSYM    DATA     BIT       ET2
      00000088H.7 SFRSYM    DATA     BIT       TF1
      000000E8H   SFRSYM    DATA     BYTE      CAN_ET
      000000FCH   SFRSYM    DATA     BYTE      DATA1
      000000C0H.6 SFRSYM    DATA     BIT       TF2
      0000008CH   SFRSYM    DATA     BYTE      TH0
      000000FBH   SFRSYM    DATA     BYTE      DATA2
      000000A8H.0 SFRSYM    DATA     BIT       EX0
      00000098H.0 SFRSYM    DATA     BIT       RI2
      0000008DH   SFRSYM    DATA     BYTE      TH1
      00000088H.0 SFRSYM    DATA     BIT       IT0
      00000091H   SFRSYM    DATA     BYTE      CAN_IR
      000000FAH   SFRSYM    DATA     BYTE      DATA3
      000000CDH   SFRSYM    DATA     BYTE      TH2
      000000A8H.2 SFRSYM    DATA     BIT       EX1
      00000088H.2 SFRSYM    DATA     BIT       IT1
      000000D0H.0 SFRSYM    DATA     BIT       P
      00000098H.1 SFRSYM    DATA     BIT       TI2
      0000008AH   SFRSYM    DATA     BYTE      TL0
      0000008BH   SFRSYM    DATA     BYTE      TL1
      000000CCH   SFRSYM    DATA     BYTE      TL2
      000000F8H.6 SFRSYM    DATA     BIT       APP_EN
      000000D0H.3 SFRSYM    DATA     BIT       RS0
      000000D0H.4 SFRSYM    DATA     BIT       RS1
      00000088H.4 SFRSYM    DATA     BIT       TR0
      00000093H   SFRSYM    DATA     BYTE      DPC
      00000088H.6 SFRSYM    DATA     BIT       TR1
      000000E5H   SFRSYM    DATA     BYTE      MAC_MODE
      000000C8H.0 SFRSYM    DATA     BIT       TR2
LX51 LINKER/LOCATER V4.66.97.0                                                        11/04/2023  11:13:39  PAGE 129


      00000080H.0 SFRSYM    DATA     BIT       TR4
      00000080H.1 SFRSYM    DATA     BIT       TR5
      000000A0H.7 SFRSYM    DATA     BIT       Green_LED2
      00000083H   SFRSYM    DATA     BYTE      DPH
      00000082H   SFRSYM    DATA     BYTE      DPL
      00000099H   SFRSYM    DATA     BYTE      SBUF2
      0000009CH   SFRSYM    DATA     BYTE      SBUF3
      000000D8H   SFRSYM    DATA     BYTE      ADCON
      00000098H   SFRSYM    DATA     BYTE      SCON2
      000000C8H   SFRSYM    DATA     BYTE      T2CON
      0000009BH   SFRSYM    DATA     BYTE      SCON3
      000000E6H   SFRSYM    DATA     BYTE      DIV_MODE
      000000F8H.5 SFRSYM    DATA     BIT       APP_RW
      000000CBH   SFRSYM    DATA     BYTE      TRL2H
      0000008EH   SFRSYM    DATA     BYTE      CKCON
      0000009FH   SFRSYM    DATA     BYTE      SBUF4_RX
      000000ADH   SFRSYM    DATA     BYTE      SBUF5_RX
      000000CAH   SFRSYM    DATA     BYTE      TRL2L
      0000009EH   SFRSYM    DATA     BYTE      SBUF4_TX
      000000ACH   SFRSYM    DATA     BYTE      SBUF5_TX
      000000FEH   SFRSYM    DATA     BYTE      EXADR
      000000D0H.5 SFRSYM    DATA     BIT       F0
      000000D0H.1 SFRSYM    DATA     BIT       F1
      000000D0H   SFRSYM    DATA     BYTE      PSW
      000000C0H   SFRSYM    DATA     BYTE      IRCON

      0100B791H   BLOCK     CODE     ---       LVL=0
      ---         BLOCKEND  ---      ---       LVL=0

      0100AB57H   BLOCK     CODE     ---       LVL=0
      00000001H   SYMBOL    DATA     ---       t
      0200C8C3H   SYMBOL    XDATA    ---       s
      0200C8C6H   SYMBOL    XDATA    INT       n
      0200C8C8H   SYMBOL    XDATA    BYTE      b_xch
      0100AB57H   BLOCK     CODE     NEAR LAB  LVL=1
      00000006H   SYMBOL    DATA     INT       i
      0200C8C9H   SYMBOL    XDATA    ---       pt
      0200C8CCH   SYMBOL    XDATA    ---       ps0
      00000005H   SYMBOL    DATA     BYTE      ch
      ---         BLOCKEND  ---      ---       LVL=1
      0100AB57H   LINE      CODE     ---       #18
      0100AB57H   LINE      CODE     ---       #19
      0100AB57H   LINE      CODE     ---       #24
      0100AB5DH   LINE      CODE     ---       #25
      0100AB69H   LINE      CODE     ---       #27
      0100AB6FH   LINE      CODE     ---       #28
      0100AB6FH   LINE      CODE     ---       #29
      0100AB77H   LINE      CODE     ---       #30
      0100AB77H   LINE      CODE     ---       #31
      0100AB7EH   LINE      CODE     ---       #32
      0100AB8FH   LINE      CODE     ---       #33
      0100AB99H   LINE      CODE     ---       #34
      0100ABA0H   LINE      CODE     ---       #35
      0100ABA0H   LINE      CODE     ---       #37
      0100ABA0H   LINE      CODE     ---       #38
      0100ABADH   LINE      CODE     ---       #39
      0100ABB5H   LINE      CODE     ---       #40
      0100ABB5H   LINE      CODE     ---       #41
      0100ABC6H   LINE      CODE     ---       #42
      0100ABCDH   LINE      CODE     ---       #43
      0100ABCDH   LINE      CODE     ---       #44
      ---         BLOCKEND  ---      ---       LVL=0

      01006420H   BLOCK     CODE     ---       LVL=0
      0200C8B2H   SYMBOL    XDATA    ---       p
LX51 LINKER/LOCATER V4.66.97.0                                                        11/04/2023  11:13:39  PAGE 130


      01006426H   BLOCK     CODE     NEAR LAB  LVL=1
      0200C8B5H   SYMBOL    XDATA    WORD      send_n
      0200C8B7H   SYMBOL    XDATA    ---       phr
      0200C8BAH   SYMBOL    XDATA    WORD      da_n
      0200C8BCH   SYMBOL    XDATA    WORD      da_adr
      00000006H   SYMBOL    DATA     WORD      adr_end1
      0200C8BEH   SYMBOL    XDATA    BYTE      b_ext
      0200C8BFH   SYMBOL    XDATA    BYTE      b_hr_ok
      ---         BLOCKEND  ---      ---       LVL=1
      01006420H   LINE      CODE     ---       #45
      01006426H   LINE      CODE     ---       #46
      01006426H   LINE      CODE     ---       #47
      0100642DH   LINE      CODE     ---       #48
      01006439H   LINE      CODE     ---       #49
      0100643BH   LINE      CODE     ---       #50
      0100643DH   LINE      CODE     ---       #52
      0100644AH   LINE      CODE     ---       #54
      01006456H   LINE      CODE     ---       #55
      01006465H   LINE      CODE     ---       #56
      0100646BH   LINE      CODE     ---       #58
      01006475H   LINE      CODE     ---       #59
      01006482H   LINE      CODE     ---       #60
      0100648FH   LINE      CODE     ---       #61
      01006498H   LINE      CODE     ---       #63
      010064A7H   LINE      CODE     ---       #64
      010064C2H   LINE      CODE     ---       #66
      010064C9H   LINE      CODE     ---       #67
      010064DEH   LINE      CODE     ---       #68
      010064DEH   LINE      CODE     ---       #72
      010064DEH   LINE      CODE     ---       #73
      010064E7H   LINE      CODE     ---       #74
      010064E7H   LINE      CODE     ---       #75
      010064E7H   LINE      CODE     ---       #76
      010064E7H   LINE      CODE     ---       #77
      010064E9H   LINE      CODE     ---       #80
      010064E9H   LINE      CODE     ---       #81
      01006505H   LINE      CODE     ---       #82
      01006505H   LINE      CODE     ---       #83
      01006519H   LINE      CODE     ---       #84
      0100652CH   LINE      CODE     ---       #85
      01006534H   LINE      CODE     ---       #86
      0100653EH   LINE      CODE     ---       #87
      01006547H   LINE      CODE     ---       #88
      01006547H   LINE      CODE     ---       #89
      01006549H   LINE      CODE     ---       #90
      01006549H   LINE      CODE     ---       #91
      0100654FH   LINE      CODE     ---       #92
      0100654FH   LINE      CODE     ---       #93
      0100655FH   LINE      CODE     ---       #94
      01006573H   LINE      CODE     ---       #95
      01006579H   LINE      CODE     ---       #96
      01006579H   LINE      CODE     ---       #97
      010065C3H   LINE      CODE     ---       #98
      010065C3H   LINE      CODE     ---       #99
      010065C3H   LINE      CODE     ---       #100
      010065C3H   LINE      CODE     ---       #101
      010065C3H   LINE      CODE     ---       #103
      010065C3H   LINE      CODE     ---       #104
      010065C3H   LINE      CODE     ---       #105
      010065CEH   LINE      CODE     ---       #106
      010065D6H   LINE      CODE     ---       #107
      ---         BLOCKEND  ---      ---       LVL=0

      0100C935H   BLOCK     CODE     ---       LVL=0
      0200C83AH   SYMBOL    XDATA    ---       p
LX51 LINKER/LOCATER V4.66.97.0                                                        11/04/2023  11:13:39  PAGE 131


      0100C935H   LINE      CODE     ---       #108
      0100C93BH   LINE      CODE     ---       #109
      0100C93BH   LINE      CODE     ---       #110
      0100C950H   LINE      CODE     ---       #111
      0100C95EH   LINE      CODE     ---       #112
      0100C973H   LINE      CODE     ---       #113
      ---         BLOCKEND  ---      ---       LVL=0

      0100C3A5H   BLOCK     CODE     ---       LVL=0
      0200C8AAH   SYMBOL    XDATA    ---       p
      00000005H   SYMBOL    DATA     BYTE      slv
      0200C8AEH   SYMBOL    XDATA    BYTE      fun
      0200C8AFH   SYMBOL    XDATA    WORD      adr
      0200C8B1H   SYMBOL    XDATA    BYTE      da_n
      0100C3A5H   LINE      CODE     ---       #114
      0100C3ABH   LINE      CODE     ---       #115
      0100C3ABH   LINE      CODE     ---       #116
      0100C3B2H   LINE      CODE     ---       #117
      0100C3C1H   LINE      CODE     ---       #118
      0100C3D1H   LINE      CODE     ---       #119
      0100C3DAH   LINE      CODE     ---       #121
      0100C3E9H   LINE      CODE     ---       #123
      ---         BLOCKEND  ---      ---       LVL=0

      0100D396H   BLOCK     CODE     ---       LVL=0
      00000001H   SYMBOL    DATA     ---       p
      00000004H   SYMBOL    DATA     WORD      index
      0200C8A7H   SYMBOL    XDATA    WORD      dat
      0100D396H   LINE      CODE     ---       #125
      0100D396H   LINE      CODE     ---       #126
      0100D396H   LINE      CODE     ---       #127
      ---         BLOCKEND  ---      ---       LVL=0

      0100C643H   BLOCK     CODE     ---       LVL=0
      0200C8AAH   SYMBOL    XDATA    ---       p
      0100C643H   LINE      CODE     ---       #129
      0100C649H   LINE      CODE     ---       #130
      0100C649H   LINE      CODE     ---       #131
      0100C682H   LINE      CODE     ---       #132
      ---         BLOCKEND  ---      ---       LVL=0

      0100CBF8H   BLOCK     CODE     ---       LVL=0
      0200C8A2H   SYMBOL    XDATA    ---       p
      00000005H   SYMBOL    DATA     BYTE      slv
      0200C8A6H   SYMBOL    XDATA    BYTE      fun
      0200C8A7H   SYMBOL    XDATA    WORD      dat_adr
      0200C8A9H   SYMBOL    XDATA    BYTE      dat_nb
      0100CBF8H   LINE      CODE     ---       #135
      0100CBFEH   LINE      CODE     ---       #136
      0100CBFEH   LINE      CODE     ---       #137
      0100CC26H   LINE      CODE     ---       #138
      ---         BLOCKEND  ---      ---       LVL=0

      ---         MODULE    ---      ---       MB_CRC
      0100C2B8H   PUBLIC    CODE     ---       _mb_crc16
      000000F1H   SFRSYM    DATA     BYTE      ADR_H
      00000080H   SFRSYM    DATA     BYTE      P0
      00000090H   SFRSYM    DATA     BYTE      P1
      000000A0H   SFRSYM    DATA     BYTE      P2
      000000B0H   SFRSYM    DATA     BYTE      P3
      000000F3H   SFRSYM    DATA     BYTE      ADR_L
      000000D0H.6 SFRSYM    DATA     BIT       AC
      000000A0H.6 SFRSYM    DATA     BIT       Red_LED1
      00000094H   SFRSYM    DATA     BYTE      PAGESEL
      000000F2H   SFRSYM    DATA     BYTE      ADR_M
LX51 LINKER/LOCATER V4.66.97.0                                                        11/04/2023  11:13:39  PAGE 132


      000000A8H.7 SFRSYM    DATA     BIT       EA
      000000F8H   SFRSYM    DATA     BYTE      RAMMODE
      000000B7H   SFRSYM    DATA     BYTE      P0MDOUT
      000000BCH   SFRSYM    DATA     BYTE      P1MDOUT
      000000A8H   SFRSYM    DATA     BYTE      IEN0
      000000BDH   SFRSYM    DATA     BYTE      P2MDOUT
      000000B8H   SFRSYM    DATA     BYTE      IEN1
      000000BEH   SFRSYM    DATA     BYTE      P3MDOUT
      0000009AH   SFRSYM    DATA     BYTE      IEN2
      000000F8H.4 SFRSYM    DATA     BIT       APP_ACK
      000000F4H   SFRSYM    DATA     BYTE      ADR_INC
      000000B8H.1 SFRSYM    DATA     BIT       ECAN
      000000D0H.7 SFRSYM    DATA     BIT       CY
      000000B8H.3 SFRSYM    DATA     BIT       ES4R
      000000B8H.5 SFRSYM    DATA     BIT       ES5R
      000000B8H.2 SFRSYM    DATA     BIT       ES4T
      000000B8H.4 SFRSYM    DATA     BIT       ES5T
      000000B0H.3 SFRSYM    DATA     BIT       RTC_SDA
      00000081H   SFRSYM    DATA     BYTE      SP
      000000D0H.2 SFRSYM    DATA     BIT       OV
      00000095H   SFRSYM    DATA     BYTE      D_PAGESEL
      000000F8H.7 SFRSYM    DATA     BIT       APP_REQ
      000000B0H.2 SFRSYM    DATA     BIT       RTC_SCL
      000000BFH   SFRSYM    DATA     BYTE      IRCON2
      00000087H   SFRSYM    DATA     BYTE      PCON
      000000BAH   SFRSYM    DATA     BYTE      SREL2H
      000000BBH   SFRSYM    DATA     BYTE      SREL3H
      000000F9H   SFRSYM    DATA     BYTE      PORTDRV
      00000089H   SFRSYM    DATA     BYTE      TMOD
      00000088H   SFRSYM    DATA     BYTE      TCON
      000000AAH   SFRSYM    DATA     BYTE      SREL2L
      0000009DH   SFRSYM    DATA     BYTE      SREL3L
      000000FFH   SFRSYM    DATA     BYTE      EXDATA
      00000097H   SFRSYM    DATA     BYTE      SCON4R
      000000ABH   SFRSYM    DATA     BYTE      SCON5R
      000000D9H   SFRSYM    DATA     BYTE      BODE4_DIV_H
      000000AEH   SFRSYM    DATA     BYTE      BODE5_DIV_H
      00000096H   SFRSYM    DATA     BYTE      SCON4T
      000000A7H   SFRSYM    DATA     BYTE      SCON5T
      00000088H.1 SFRSYM    DATA     BIT       IE0
      00000088H.3 SFRSYM    DATA     BIT       IE1
      000000C9H   SFRSYM    DATA     BYTE      MUX_SEL
      000000E7H   SFRSYM    DATA     BYTE      BODE4_DIV_L
      000000AFH   SFRSYM    DATA     BYTE      BODE5_DIV_L
      000000F0H   SFRSYM    DATA     BYTE      B
      000000E0H   SFRSYM    DATA     BYTE      ACC
      0000008FH   SFRSYM    DATA     BYTE      CAN_CR
      000000A9H   SFRSYM    DATA     BYTE      IP0
      000000A8H.1 SFRSYM    DATA     BIT       ET0
      000000B9H   SFRSYM    DATA     BYTE      IP1
      000000A8H.3 SFRSYM    DATA     BIT       ET1
      000000A8H.4 SFRSYM    DATA     BIT       ES2
      00000088H.5 SFRSYM    DATA     BIT       TF0
      000000FDH   SFRSYM    DATA     BYTE      DATA0
      000000A8H.5 SFRSYM    DATA     BIT       ET2
      00000088H.7 SFRSYM    DATA     BIT       TF1
      000000E8H   SFRSYM    DATA     BYTE      CAN_ET
      000000FCH   SFRSYM    DATA     BYTE      DATA1
      000000C0H.6 SFRSYM    DATA     BIT       TF2
      0000008CH   SFRSYM    DATA     BYTE      TH0
      000000FBH   SFRSYM    DATA     BYTE      DATA2
      000000A8H.0 SFRSYM    DATA     BIT       EX0
      00000098H.0 SFRSYM    DATA     BIT       RI2
      0000008DH   SFRSYM    DATA     BYTE      TH1
      00000088H.0 SFRSYM    DATA     BIT       IT0
LX51 LINKER/LOCATER V4.66.97.0                                                        11/04/2023  11:13:39  PAGE 133


      00000091H   SFRSYM    DATA     BYTE      CAN_IR
      000000FAH   SFRSYM    DATA     BYTE      DATA3
      000000CDH   SFRSYM    DATA     BYTE      TH2
      000000A8H.2 SFRSYM    DATA     BIT       EX1
      00000088H.2 SFRSYM    DATA     BIT       IT1
      000000D0H.0 SFRSYM    DATA     BIT       P
      00000098H.1 SFRSYM    DATA     BIT       TI2
      0000008AH   SFRSYM    DATA     BYTE      TL0
      0000008BH   SFRSYM    DATA     BYTE      TL1
      000000CCH   SFRSYM    DATA     BYTE      TL2
      000000F8H.6 SFRSYM    DATA     BIT       APP_EN
      000000D0H.3 SFRSYM    DATA     BIT       RS0
      000000D0H.4 SFRSYM    DATA     BIT       RS1
      00000088H.4 SFRSYM    DATA     BIT       TR0
      00000093H   SFRSYM    DATA     BYTE      DPC
      00000088H.6 SFRSYM    DATA     BIT       TR1
      000000E5H   SFRSYM    DATA     BYTE      MAC_MODE
      000000C8H.0 SFRSYM    DATA     BIT       TR2
      00000080H.0 SFRSYM    DATA     BIT       TR4
      00000080H.1 SFRSYM    DATA     BIT       TR5
      000000A0H.7 SFRSYM    DATA     BIT       Green_LED2
      00000083H   SFRSYM    DATA     BYTE      DPH
      00000082H   SFRSYM    DATA     BYTE      DPL
      00000099H   SFRSYM    DATA     BYTE      SBUF2
      0000009CH   SFRSYM    DATA     BYTE      SBUF3
      000000D8H   SFRSYM    DATA     BYTE      ADCON
      00000098H   SFRSYM    DATA     BYTE      SCON2
      000000C8H   SFRSYM    DATA     BYTE      T2CON
      0000009BH   SFRSYM    DATA     BYTE      SCON3
      000000E6H   SFRSYM    DATA     BYTE      DIV_MODE
      000000F8H.5 SFRSYM    DATA     BIT       APP_RW
      000000CBH   SFRSYM    DATA     BYTE      TRL2H
      0000008EH   SFRSYM    DATA     BYTE      CKCON
      0000009FH   SFRSYM    DATA     BYTE      SBUF4_RX
      000000ADH   SFRSYM    DATA     BYTE      SBUF5_RX
      000000CAH   SFRSYM    DATA     BYTE      TRL2L
      0000009EH   SFRSYM    DATA     BYTE      SBUF4_TX
      000000ACH   SFRSYM    DATA     BYTE      SBUF5_TX
      000000FEH   SFRSYM    DATA     BYTE      EXADR
      000000D0H.5 SFRSYM    DATA     BIT       F0
      000000D0H.1 SFRSYM    DATA     BIT       F1
      000000D0H   SFRSYM    DATA     BYTE      PSW
      000000C0H   SFRSYM    DATA     BYTE      IRCON
      0200CD94H   SYMBOL    XDATA    ---       aucCRCHi
      0200CE94H   SYMBOL    XDATA    ---       aucCRCLo

      0100C2B8H   BLOCK     CODE     ---       LVL=0
      0200C8B4H   SYMBOL    XDATA    ---       pFrame
      0200C8B7H   SYMBOL    XDATA    WORD      len
      0100C2C6H   BLOCK     CODE     NEAR LAB  LVL=1
      00000007H   SYMBOL    DATA     BYTE      ucCRCHi
      00000005H   SYMBOL    DATA     BYTE      ucCRCLo
      00000002H   SYMBOL    DATA     INT       iIndex
      ---         BLOCKEND  ---      ---       LVL=1
      0100C2B8H   LINE      CODE     ---       #60
      0100C2C6H   LINE      CODE     ---       #61
      0100C2C6H   LINE      CODE     ---       #62
      0100C2C8H   LINE      CODE     ---       #63
      0100C2CAH   LINE      CODE     ---       #66
      0100C2D8H   LINE      CODE     ---       #67
      0100C2D8H   LINE      CODE     ---       #68
      0100C2E9H   LINE      CODE     ---       #69
      0100C2F5H   LINE      CODE     ---       #70
      0100C301H   LINE      CODE     ---       #71
      0100C303H   LINE      CODE     ---       #72
LX51 LINKER/LOCATER V4.66.97.0                                                        11/04/2023  11:13:39  PAGE 134


      0100C307H   LINE      CODE     ---       #73
      ---         BLOCKEND  ---      ---       LVL=0

      ---         MODULE    ---      ---       MB_HOOK
      0100D4F4H   PUBLIC    CODE     ---       mbh_resend_time_run
      0100D549H   PUBLIC    CODE     ---       _mbh_hook_timesErr
      0200C842H   PUBLIC    XDATA    BYTE      ?_mbh_hook_rec16?BYTE
      0100D6A6H   PUBLIC    CODE     ---       _mbh_hook_rec16
      0200C842H   PUBLIC    XDATA    BYTE      ?_mbh_hook_rec15?BYTE
      0100D69DH   PUBLIC    CODE     ---       _mbh_hook_rec15
      0200C842H   PUBLIC    XDATA    BYTE      ?_mbh_hook_rec06?BYTE
      0100D694H   PUBLIC    CODE     ---       _mbh_hook_rec06
      0200C842H   PUBLIC    XDATA    BYTE      ?_mbh_hook_rec05?BYTE
      0100D68BH   PUBLIC    CODE     ---       _mbh_hook_rec05
      0200C842H   PUBLIC    XDATA    BYTE      ?_mbh_hook_rec04?BYTE
      0100D682H   PUBLIC    CODE     ---       _mbh_hook_rec04
      0200C842H   PUBLIC    XDATA    BYTE      ?_mbh_hook_rec03?BYTE
      0100A5CAH   PUBLIC    CODE     ---       _mbh_hook_rec03
      0200C842H   PUBLIC    XDATA    BYTE      ?_mbh_hook_rec02?BYTE
      0100D679H   PUBLIC    CODE     ---       _mbh_hook_rec02
      0200C842H   PUBLIC    XDATA    BYTE      ?_mbh_hook_rec01?BYTE
      0100D670H   PUBLIC    CODE     ---       _mbh_hook_rec01
      000000F1H   SFRSYM    DATA     BYTE      ADR_H
      00000080H   SFRSYM    DATA     BYTE      P0
      00000090H   SFRSYM    DATA     BYTE      P1
      000000A0H   SFRSYM    DATA     BYTE      P2
      000000B0H   SFRSYM    DATA     BYTE      P3
      000000F3H   SFRSYM    DATA     BYTE      ADR_L
      000000D0H.6 SFRSYM    DATA     BIT       AC
      000000A0H.6 SFRSYM    DATA     BIT       Red_LED1
      00000094H   SFRSYM    DATA     BYTE      PAGESEL
      000000F2H   SFRSYM    DATA     BYTE      ADR_M
      000000A8H.7 SFRSYM    DATA     BIT       EA
      000000F8H   SFRSYM    DATA     BYTE      RAMMODE
      000000B7H   SFRSYM    DATA     BYTE      P0MDOUT
      000000BCH   SFRSYM    DATA     BYTE      P1MDOUT
      000000A8H   SFRSYM    DATA     BYTE      IEN0
      000000BDH   SFRSYM    DATA     BYTE      P2MDOUT
      000000B8H   SFRSYM    DATA     BYTE      IEN1
      000000BEH   SFRSYM    DATA     BYTE      P3MDOUT
      0000009AH   SFRSYM    DATA     BYTE      IEN2
      000000F8H.4 SFRSYM    DATA     BIT       APP_ACK
      000000F4H   SFRSYM    DATA     BYTE      ADR_INC
      000000B8H.1 SFRSYM    DATA     BIT       ECAN
      000000D0H.7 SFRSYM    DATA     BIT       CY
      000000B8H.3 SFRSYM    DATA     BIT       ES4R
      000000B8H.5 SFRSYM    DATA     BIT       ES5R
      000000B8H.2 SFRSYM    DATA     BIT       ES4T
      000000B8H.4 SFRSYM    DATA     BIT       ES5T
      000000B0H.3 SFRSYM    DATA     BIT       RTC_SDA
      00000081H   SFRSYM    DATA     BYTE      SP
      000000D0H.2 SFRSYM    DATA     BIT       OV
      00000095H   SFRSYM    DATA     BYTE      D_PAGESEL
      000000F8H.7 SFRSYM    DATA     BIT       APP_REQ
      000000B0H.2 SFRSYM    DATA     BIT       RTC_SCL
      000000BFH   SFRSYM    DATA     BYTE      IRCON2
      00000087H   SFRSYM    DATA     BYTE      PCON
      000000BAH   SFRSYM    DATA     BYTE      SREL2H
      000000BBH   SFRSYM    DATA     BYTE      SREL3H
      000000F9H   SFRSYM    DATA     BYTE      PORTDRV
      00000089H   SFRSYM    DATA     BYTE      TMOD
      00000088H   SFRSYM    DATA     BYTE      TCON
      000000AAH   SFRSYM    DATA     BYTE      SREL2L
      0000009DH   SFRSYM    DATA     BYTE      SREL3L
      000000FFH   SFRSYM    DATA     BYTE      EXDATA
LX51 LINKER/LOCATER V4.66.97.0                                                        11/04/2023  11:13:39  PAGE 135


      00000097H   SFRSYM    DATA     BYTE      SCON4R
      000000ABH   SFRSYM    DATA     BYTE      SCON5R
      000000D9H   SFRSYM    DATA     BYTE      BODE4_DIV_H
      000000AEH   SFRSYM    DATA     BYTE      BODE5_DIV_H
      00000096H   SFRSYM    DATA     BYTE      SCON4T
      000000A7H   SFRSYM    DATA     BYTE      SCON5T
      00000088H.1 SFRSYM    DATA     BIT       IE0
      00000088H.3 SFRSYM    DATA     BIT       IE1
      000000C9H   SFRSYM    DATA     BYTE      MUX_SEL
      000000E7H   SFRSYM    DATA     BYTE      BODE4_DIV_L
      000000AFH   SFRSYM    DATA     BYTE      BODE5_DIV_L
      000000F0H   SFRSYM    DATA     BYTE      B
      000000E0H   SFRSYM    DATA     BYTE      ACC
      0000008FH   SFRSYM    DATA     BYTE      CAN_CR
      000000A9H   SFRSYM    DATA     BYTE      IP0
      000000A8H.1 SFRSYM    DATA     BIT       ET0
      000000B9H   SFRSYM    DATA     BYTE      IP1
      000000A8H.3 SFRSYM    DATA     BIT       ET1
      000000A8H.4 SFRSYM    DATA     BIT       ES2
      00000088H.5 SFRSYM    DATA     BIT       TF0
      000000FDH   SFRSYM    DATA     BYTE      DATA0
      000000A8H.5 SFRSYM    DATA     BIT       ET2
      00000088H.7 SFRSYM    DATA     BIT       TF1
      000000E8H   SFRSYM    DATA     BYTE      CAN_ET
      000000FCH   SFRSYM    DATA     BYTE      DATA1
      000000C0H.6 SFRSYM    DATA     BIT       TF2
      0000008CH   SFRSYM    DATA     BYTE      TH0
      000000FBH   SFRSYM    DATA     BYTE      DATA2
      000000A8H.0 SFRSYM    DATA     BIT       EX0
      00000098H.0 SFRSYM    DATA     BIT       RI2
      0000008DH   SFRSYM    DATA     BYTE      TH1
      00000088H.0 SFRSYM    DATA     BIT       IT0
      00000091H   SFRSYM    DATA     BYTE      CAN_IR
      000000FAH   SFRSYM    DATA     BYTE      DATA3
      000000CDH   SFRSYM    DATA     BYTE      TH2
      000000A8H.2 SFRSYM    DATA     BIT       EX1
      00000088H.2 SFRSYM    DATA     BIT       IT1
      000000D0H.0 SFRSYM    DATA     BIT       P
      00000098H.1 SFRSYM    DATA     BIT       TI2
      0000008AH   SFRSYM    DATA     BYTE      TL0
      0000008BH   SFRSYM    DATA     BYTE      TL1
      000000CCH   SFRSYM    DATA     BYTE      TL2
      000000F8H.6 SFRSYM    DATA     BIT       APP_EN
      000000D0H.3 SFRSYM    DATA     BIT       RS0
      000000D0H.4 SFRSYM    DATA     BIT       RS1
      00000088H.4 SFRSYM    DATA     BIT       TR0
      00000093H   SFRSYM    DATA     BYTE      DPC
      00000088H.6 SFRSYM    DATA     BIT       TR1
      000000E5H   SFRSYM    DATA     BYTE      MAC_MODE
      000000C8H.0 SFRSYM    DATA     BIT       TR2
      00000080H.0 SFRSYM    DATA     BIT       TR4
      00000080H.1 SFRSYM    DATA     BIT       TR5
      000000A0H.7 SFRSYM    DATA     BIT       Green_LED2
      00000083H   SFRSYM    DATA     BYTE      DPH
      00000082H   SFRSYM    DATA     BYTE      DPL
      00000099H   SFRSYM    DATA     BYTE      SBUF2
      0000009CH   SFRSYM    DATA     BYTE      SBUF3
      000000D8H   SFRSYM    DATA     BYTE      ADCON
      00000098H   SFRSYM    DATA     BYTE      SCON2
      000000C8H   SFRSYM    DATA     BYTE      T2CON
      0000009BH   SFRSYM    DATA     BYTE      SCON3
      000000E6H   SFRSYM    DATA     BYTE      DIV_MODE
      000000F8H.5 SFRSYM    DATA     BIT       APP_RW
      000000CBH   SFRSYM    DATA     BYTE      TRL2H
      0000008EH   SFRSYM    DATA     BYTE      CKCON
LX51 LINKER/LOCATER V4.66.97.0                                                        11/04/2023  11:13:39  PAGE 136


      0000009FH   SFRSYM    DATA     BYTE      SBUF4_RX
      000000ADH   SFRSYM    DATA     BYTE      SBUF5_RX
      000000CAH   SFRSYM    DATA     BYTE      TRL2L
      0000009EH   SFRSYM    DATA     BYTE      SBUF4_TX
      000000ACH   SFRSYM    DATA     BYTE      SBUF5_TX
      000000FEH   SFRSYM    DATA     BYTE      EXADR
      000000D0H.5 SFRSYM    DATA     BIT       F0
      000000D0H.1 SFRSYM    DATA     BIT       F1
      000000D0H   SFRSYM    DATA     BYTE      PSW
      000000C0H   SFRSYM    DATA     BYTE      IRCON

      0100D670H   BLOCK     CODE     ---       LVL=0
      0200C842H   SYMBOL    XDATA    BYTE      add
      0200C843H   SYMBOL    XDATA    ---       dat
      0200C846H   SYMBOL    XDATA    ---       datalen
      0100D670H   LINE      CODE     ---       #15
      ---         BLOCKEND  ---      ---       LVL=0

      0100D679H   BLOCK     CODE     ---       LVL=0
      0200C842H   SYMBOL    XDATA    BYTE      add
      0200C843H   SYMBOL    XDATA    ---       dat
      0200C846H   SYMBOL    XDATA    ---       datalen
      0100D679H   LINE      CODE     ---       #19
      ---         BLOCKEND  ---      ---       LVL=0

      0100A5CAH   BLOCK     CODE     ---       LVL=0
      0200C842H   SYMBOL    XDATA    BYTE      add
      0200C843H   SYMBOL    XDATA    ---       dat
      0200C846H   SYMBOL    XDATA    ---       datalen
      0100A5CAH   LINE      CODE     ---       #23
      0100A5D3H   LINE      CODE     ---       #24
      0100A5D3H   LINE      CODE     ---       #26
      0100A5E2H   LINE      CODE     ---       #27
      0100A5E2H   LINE      CODE     ---       #29
      0100A62CH   LINE      CODE     ---       #30
      0100A63EH   LINE      CODE     ---       #36
      0100A63EH   LINE      CODE     ---       #38
      0100A646H   LINE      CODE     ---       #39
      ---         BLOCKEND  ---      ---       LVL=0

      0100D682H   BLOCK     CODE     ---       LVL=0
      0200C842H   SYMBOL    XDATA    BYTE      add
      0200C843H   SYMBOL    XDATA    ---       dat
      0200C846H   SYMBOL    XDATA    ---       datalen
      0100D682H   LINE      CODE     ---       #44
      ---         BLOCKEND  ---      ---       LVL=0

      0100D68BH   BLOCK     CODE     ---       LVL=0
      0200C842H   SYMBOL    XDATA    BYTE      add
      0200C843H   SYMBOL    XDATA    ---       dat
      0200C846H   SYMBOL    XDATA    ---       datalen
      0100D68BH   LINE      CODE     ---       #48
      ---         BLOCKEND  ---      ---       LVL=0

      0100D694H   BLOCK     CODE     ---       LVL=0
      0200C842H   SYMBOL    XDATA    BYTE      add
      0200C843H   SYMBOL    XDATA    ---       dat
      0200C846H   SYMBOL    XDATA    ---       datalen
      0100D694H   LINE      CODE     ---       #52
      ---         BLOCKEND  ---      ---       LVL=0

      0100D69DH   BLOCK     CODE     ---       LVL=0
      0200C842H   SYMBOL    XDATA    BYTE      add
      0200C843H   SYMBOL    XDATA    ---       dat
      0200C846H   SYMBOL    XDATA    ---       datalen
LX51 LINKER/LOCATER V4.66.97.0                                                        11/04/2023  11:13:39  PAGE 137


      0100D69DH   LINE      CODE     ---       #56
      ---         BLOCKEND  ---      ---       LVL=0

      0100D6A6H   BLOCK     CODE     ---       LVL=0
      0200C842H   SYMBOL    XDATA    BYTE      add
      0200C843H   SYMBOL    XDATA    ---       dat
      0200C846H   SYMBOL    XDATA    ---       datalen
      0100D6A6H   LINE      CODE     ---       #60
      ---         BLOCKEND  ---      ---       LVL=0

      0100D549H   BLOCK     CODE     ---       LVL=0
      0200C83AH   SYMBOL    XDATA    BYTE      add
      0200C83BH   SYMBOL    XDATA    BYTE      cmd
      0100D549H   LINE      CODE     ---       #66
      0100D551H   LINE      CODE     ---       #67
      0100D551H   LINE      CODE     ---       #68
      0100D556H   LINE      CODE     ---       #69
      0100D55CH   LINE      CODE     ---       #70
      ---         BLOCKEND  ---      ---       LVL=0

      0100D4F4H   BLOCK     CODE     ---       LVL=0
      0100D4F4H   LINE      CODE     ---       #71
      0100D4F4H   LINE      CODE     ---       #72
      0100D4F4H   LINE      CODE     ---       #73
      0100D50AH   LINE      CODE     ---       #74
      ---         BLOCKEND  ---      ---       LVL=0

      ---         MODULE    ---      ---       MB_HOST
      0200B7CFH   PUBLIC    XDATA    ---       mbHost
      0200B7CEH   PUBLIC    XDATA    BYTE      mbhRecTimeout
      0100ACB9H   PUBLIC    CODE     ---       mbh_uartTxIsr
      0100C43EH   PUBLIC    CODE     ---       mbh_uartRxIsr
      0100CDD7H   PUBLIC    CODE     ---       mbh_timer3T5Isr
      01008666H   PUBLIC    CODE     ---       mbh_poll
      0200C83AH   PUBLIC    XDATA    BYTE      ?_mbh_exec?BYTE
      0100805CH   PUBLIC    CODE     ---       _mbh_exec
      0200C8ADH   PUBLIC    XDATA    BYTE      ?_mbh_send?BYTE
      0100A653H   PUBLIC    CODE     ---       _mbh_send
      0100D70AH   PUBLIC    CODE     ---       mbh_clearRecHookState
      0100D704H   PUBLIC    CODE     ---       mbh_getRecHookState
      0100D6FEH   PUBLIC    CODE     ---       mbh_getState
      0200C83AH   PUBLIC    XDATA    BYTE      ?_mbh_init?BYTE
      0100D288H   PUBLIC    CODE     ---       _mbh_init
      000000F1H   SFRSYM    DATA     BYTE      ADR_H
      00000080H   SFRSYM    DATA     BYTE      P0
      00000090H   SFRSYM    DATA     BYTE      P1
      000000A0H   SFRSYM    DATA     BYTE      P2
      000000B0H   SFRSYM    DATA     BYTE      P3
      000000F3H   SFRSYM    DATA     BYTE      ADR_L
      000000D0H.6 SFRSYM    DATA     BIT       AC
      000000A0H.6 SFRSYM    DATA     BIT       Red_LED1
      00000094H   SFRSYM    DATA     BYTE      PAGESEL
      000000F2H   SFRSYM    DATA     BYTE      ADR_M
      000000A8H.7 SFRSYM    DATA     BIT       EA
      000000F8H   SFRSYM    DATA     BYTE      RAMMODE
      000000B7H   SFRSYM    DATA     BYTE      P0MDOUT
      000000BCH   SFRSYM    DATA     BYTE      P1MDOUT
      000000A8H   SFRSYM    DATA     BYTE      IEN0
      000000BDH   SFRSYM    DATA     BYTE      P2MDOUT
      000000B8H   SFRSYM    DATA     BYTE      IEN1
      000000BEH   SFRSYM    DATA     BYTE      P3MDOUT
      0000009AH   SFRSYM    DATA     BYTE      IEN2
      000000F8H.4 SFRSYM    DATA     BIT       APP_ACK
      000000F4H   SFRSYM    DATA     BYTE      ADR_INC
      000000B8H.1 SFRSYM    DATA     BIT       ECAN
LX51 LINKER/LOCATER V4.66.97.0                                                        11/04/2023  11:13:39  PAGE 138


      000000D0H.7 SFRSYM    DATA     BIT       CY
      000000B8H.3 SFRSYM    DATA     BIT       ES4R
      000000B8H.5 SFRSYM    DATA     BIT       ES5R
      000000B8H.2 SFRSYM    DATA     BIT       ES4T
      000000B8H.4 SFRSYM    DATA     BIT       ES5T
      000000B0H.3 SFRSYM    DATA     BIT       RTC_SDA
      00000081H   SFRSYM    DATA     BYTE      SP
      000000D0H.2 SFRSYM    DATA     BIT       OV
      00000095H   SFRSYM    DATA     BYTE      D_PAGESEL
      000000F8H.7 SFRSYM    DATA     BIT       APP_REQ
      000000B0H.2 SFRSYM    DATA     BIT       RTC_SCL
      000000BFH   SFRSYM    DATA     BYTE      IRCON2
      00000087H   SFRSYM    DATA     BYTE      PCON
      000000BAH   SFRSYM    DATA     BYTE      SREL2H
      000000BBH   SFRSYM    DATA     BYTE      SREL3H
      000000F9H   SFRSYM    DATA     BYTE      PORTDRV
      00000089H   SFRSYM    DATA     BYTE      TMOD
      00000088H   SFRSYM    DATA     BYTE      TCON
      000000AAH   SFRSYM    DATA     BYTE      SREL2L
      0000009DH   SFRSYM    DATA     BYTE      SREL3L
      000000FFH   SFRSYM    DATA     BYTE      EXDATA
      00000097H   SFRSYM    DATA     BYTE      SCON4R
      000000ABH   SFRSYM    DATA     BYTE      SCON5R
      000000D9H   SFRSYM    DATA     BYTE      BODE4_DIV_H
      000000AEH   SFRSYM    DATA     BYTE      BODE5_DIV_H
      00000096H   SFRSYM    DATA     BYTE      SCON4T
      000000A7H   SFRSYM    DATA     BYTE      SCON5T
      00000088H.1 SFRSYM    DATA     BIT       IE0
      00000088H.3 SFRSYM    DATA     BIT       IE1
      000000C9H   SFRSYM    DATA     BYTE      MUX_SEL
      000000E7H   SFRSYM    DATA     BYTE      BODE4_DIV_L
      000000AFH   SFRSYM    DATA     BYTE      BODE5_DIV_L
      000000F0H   SFRSYM    DATA     BYTE      B
      000000E0H   SFRSYM    DATA     BYTE      ACC
      0000008FH   SFRSYM    DATA     BYTE      CAN_CR
      000000A9H   SFRSYM    DATA     BYTE      IP0
      000000A8H.1 SFRSYM    DATA     BIT       ET0
      000000B9H   SFRSYM    DATA     BYTE      IP1
      000000A8H.3 SFRSYM    DATA     BIT       ET1
      000000A8H.4 SFRSYM    DATA     BIT       ES2
      00000088H.5 SFRSYM    DATA     BIT       TF0
      000000FDH   SFRSYM    DATA     BYTE      DATA0
      000000A8H.5 SFRSYM    DATA     BIT       ET2
      00000088H.7 SFRSYM    DATA     BIT       TF1
      000000E8H   SFRSYM    DATA     BYTE      CAN_ET
      000000FCH   SFRSYM    DATA     BYTE      DATA1
      000000C0H.6 SFRSYM    DATA     BIT       TF2
      0000008CH   SFRSYM    DATA     BYTE      TH0
      000000FBH   SFRSYM    DATA     BYTE      DATA2
      000000A8H.0 SFRSYM    DATA     BIT       EX0
      00000098H.0 SFRSYM    DATA     BIT       RI2
      0000008DH   SFRSYM    DATA     BYTE      TH1
      00000088H.0 SFRSYM    DATA     BIT       IT0
      00000091H   SFRSYM    DATA     BYTE      CAN_IR
      000000FAH   SFRSYM    DATA     BYTE      DATA3
      000000CDH   SFRSYM    DATA     BYTE      TH2
      000000A8H.2 SFRSYM    DATA     BIT       EX1
      00000088H.2 SFRSYM    DATA     BIT       IT1
      000000D0H.0 SFRSYM    DATA     BIT       P
      00000098H.1 SFRSYM    DATA     BIT       TI2
      0000008AH   SFRSYM    DATA     BYTE      TL0
      0000008BH   SFRSYM    DATA     BYTE      TL1
      000000CCH   SFRSYM    DATA     BYTE      TL2
      000000F8H.6 SFRSYM    DATA     BIT       APP_EN
      000000D0H.3 SFRSYM    DATA     BIT       RS0
LX51 LINKER/LOCATER V4.66.97.0                                                        11/04/2023  11:13:39  PAGE 139


      000000D0H.4 SFRSYM    DATA     BIT       RS1
      00000088H.4 SFRSYM    DATA     BIT       TR0
      00000093H   SFRSYM    DATA     BYTE      DPC
      00000088H.6 SFRSYM    DATA     BIT       TR1
      000000E5H   SFRSYM    DATA     BYTE      MAC_MODE
      000000C8H.0 SFRSYM    DATA     BIT       TR2
      00000080H.0 SFRSYM    DATA     BIT       TR4
      00000080H.1 SFRSYM    DATA     BIT       TR5
      000000A0H.7 SFRSYM    DATA     BIT       Green_LED2
      00000083H   SFRSYM    DATA     BYTE      DPH
      00000082H   SFRSYM    DATA     BYTE      DPL
      00000099H   SFRSYM    DATA     BYTE      SBUF2
      0000009CH   SFRSYM    DATA     BYTE      SBUF3
      000000D8H   SFRSYM    DATA     BYTE      ADCON
      00000098H   SFRSYM    DATA     BYTE      SCON2
      000000C8H   SFRSYM    DATA     BYTE      T2CON
      0000009BH   SFRSYM    DATA     BYTE      SCON3
      000000E6H   SFRSYM    DATA     BYTE      DIV_MODE
      000000F8H.5 SFRSYM    DATA     BIT       APP_RW
      000000CBH   SFRSYM    DATA     BYTE      TRL2H
      0000008EH   SFRSYM    DATA     BYTE      CKCON
      0000009FH   SFRSYM    DATA     BYTE      SBUF4_RX
      000000ADH   SFRSYM    DATA     BYTE      SBUF5_RX
      000000CAH   SFRSYM    DATA     BYTE      TRL2L
      0000009EH   SFRSYM    DATA     BYTE      SBUF4_TX
      000000ACH   SFRSYM    DATA     BYTE      SBUF5_TX
      000000FEH   SFRSYM    DATA     BYTE      EXADR
      000000D0H.5 SFRSYM    DATA     BIT       F0
      000000D0H.1 SFRSYM    DATA     BIT       F1
      000000D0H   SFRSYM    DATA     BYTE      PSW
      000000C0H   SFRSYM    DATA     BYTE      IRCON

      0100A157H   BLOCK     CODE     ---       LVL=0
      ---         BLOCKEND  ---      ---       LVL=0

      0100D288H   BLOCK     CODE     ---       LVL=0
      0200C83AH   SYMBOL    XDATA    DWORD     baud
      0200C83EH   SYMBOL    XDATA    BYTE      parity
      0100D288H   LINE      CODE     ---       #19
      0100D28EH   LINE      CODE     ---       #20
      0100D28EH   LINE      CODE     ---       #21
      0100D29FH   LINE      CODE     ---       #22
      ---         BLOCKEND  ---      ---       LVL=0

      0100D6FEH   BLOCK     CODE     ---       LVL=0
      0100D6FEH   LINE      CODE     ---       #24
      0100D6FEH   LINE      CODE     ---       #25
      0100D6FEH   LINE      CODE     ---       #26
      0100D703H   LINE      CODE     ---       #27
      ---         BLOCKEND  ---      ---       LVL=0

      0100D704H   BLOCK     CODE     ---       LVL=0
      0100D704H   LINE      CODE     ---       #28
      0100D704H   LINE      CODE     ---       #29
      0100D704H   LINE      CODE     ---       #30
      0100D709H   LINE      CODE     ---       #31
      ---         BLOCKEND  ---      ---       LVL=0

      0100D70AH   BLOCK     CODE     ---       LVL=0
      0100D70AH   LINE      CODE     ---       #32
      0100D70AH   LINE      CODE     ---       #33
      0100D70AH   LINE      CODE     ---       #34
      0100D70FH   LINE      CODE     ---       #35
      ---         BLOCKEND  ---      ---       LVL=0

LX51 LINKER/LOCATER V4.66.97.0                                                        11/04/2023  11:13:39  PAGE 140


      0100A653H   BLOCK     CODE     ---       LVL=0
      00000007H   SYMBOL    DATA     BYTE      add
      00000005H   SYMBOL    DATA     BYTE      cmd
      0200C8AFH   SYMBOL    XDATA    ---       dat
      0200C8B2H   SYMBOL    XDATA    WORD      data_len
      0100A659H   BLOCK     CODE     NEAR LAB  LVL=1
      00000002H   SYMBOL    DATA     WORD      crc
      ---         BLOCKEND  ---      ---       LVL=1
      0100A653H   LINE      CODE     ---       #38
      0100A659H   LINE      CODE     ---       #39
      0100A659H   LINE      CODE     ---       #40
      0100A659H   LINE      CODE     ---       #44
      0100A659H   LINE      CODE     ---       #45
      0100A65CH   LINE      CODE     ---       #46
      0100A660H   LINE      CODE     ---       #47
      0100A665H   LINE      CODE     ---       #48
      0100A668H   LINE      CODE     ---       #49
      0100A67FH   LINE      CODE     ---       #50
      0100A694H   LINE      CODE     ---       #51
      0100A6A5H   LINE      CODE     ---       #52
      0100A6BAH   LINE      CODE     ---       #53
      0100A6C2H   LINE      CODE     ---       #54
      0100A6CCH   LINE      CODE     ---       #56
      0100A6D2H   LINE      CODE     ---       #57
      0100A6D9H   LINE      CODE     ---       #62
      0100A6DBH   LINE      CODE     ---       #63
      ---         BLOCKEND  ---      ---       LVL=0

      0100805CH   BLOCK     CODE     ---       LVL=0
      0200C83AH   SYMBOL    XDATA    ---       pframe
      0200C83DH   SYMBOL    XDATA    ---       len
      01008062H   BLOCK     CODE     NEAR LAB  LVL=1
      0200C840H   SYMBOL    XDATA    WORD      datalen
      ---         BLOCKEND  ---      ---       LVL=1
      0100805CH   LINE      CODE     ---       #65
      01008062H   LINE      CODE     ---       #66
      01008062H   LINE      CODE     ---       #67
      01008079H   LINE      CODE     ---       #68
      010080A4H   LINE      CODE     ---       #69
      010080A4H   LINE      CODE     ---       #70
      010080A4H   LINE      CODE     ---       #71
      010080BCH   LINE      CODE     ---       #72
      010080BCH   LINE      CODE     ---       #73
      010080BCH   LINE      CODE     ---       #74
      010080D4H   LINE      CODE     ---       #75
      010080D4H   LINE      CODE     ---       #76
      010080D4H   LINE      CODE     ---       #77
      010080ECH   LINE      CODE     ---       #78
      010080ECH   LINE      CODE     ---       #79
      010080ECH   LINE      CODE     ---       #80
      01008104H   LINE      CODE     ---       #81
      01008104H   LINE      CODE     ---       #82
      01008104H   LINE      CODE     ---       #83
      0100811CH   LINE      CODE     ---       #84
      0100811CH   LINE      CODE     ---       #85
      0100811CH   LINE      CODE     ---       #86
      01008134H   LINE      CODE     ---       #87
      01008134H   LINE      CODE     ---       #88
      01008134H   LINE      CODE     ---       #89
      0100814CH   LINE      CODE     ---       #90
      0100814CH   LINE      CODE     ---       #91
      0100814CH   LINE      CODE     ---       #92
      01008164H   LINE      CODE     ---       #93
      01008164H   LINE      CODE     ---       #94
      01008164H   LINE      CODE     ---       #95
LX51 LINKER/LOCATER V4.66.97.0                                                        11/04/2023  11:13:39  PAGE 141


      ---         BLOCKEND  ---      ---       LVL=0

      01008666H   BLOCK     CODE     ---       LVL=0
      01008666H   LINE      CODE     ---       #96
      01008666H   LINE      CODE     ---       #97
      01008666H   LINE      CODE     ---       #99
      01008681H   LINE      CODE     ---       #100
      01008681H   LINE      CODE     ---       #102
      01008681H   LINE      CODE     ---       #104
      01008693H   LINE      CODE     ---       #105
      01008693H   LINE      CODE     ---       #107
      010086ABH   LINE      CODE     ---       #108
      010086ABH   LINE      CODE     ---       #110
      010086B1H   LINE      CODE     ---       #111
      010086B2H   LINE      CODE     ---       #113
      010086B2H   LINE      CODE     ---       #114
      010086B2H   LINE      CODE     ---       #115
      010086B5H   LINE      CODE     ---       #117
      010086B5H   LINE      CODE     ---       #118
      010086B6H   LINE      CODE     ---       #120
      010086B6H   LINE      CODE     ---       #121
      010086BCH   LINE      CODE     ---       #122
      010086C2H   LINE      CODE     ---       #124
      010086C2H   LINE      CODE     ---       #125
      010086C4H   LINE      CODE     ---       #127
      010086C4H   LINE      CODE     ---       #135
      010086CEH   LINE      CODE     ---       #136
      010086D8H   LINE      CODE     ---       #137
      010086D8H   LINE      CODE     ---       #138
      010086DEH   LINE      CODE     ---       #139
      010086E8H   LINE      CODE     ---       #140
      010086E8H   LINE      CODE     ---       #141
      010086EEH   LINE      CODE     ---       #142
      010086F0H   LINE      CODE     ---       #144
      010086F0H   LINE      CODE     ---       #145
      010086F0H   LINE      CODE     ---       #146
      010086F3H   LINE      CODE     ---       #147
      010086F8H   LINE      CODE     ---       #149
      010086FFH   LINE      CODE     ---       #150
      010086FFH   LINE      CODE     ---       #151
      01008708H   LINE      CODE     ---       #152
      01008708H   LINE      CODE     ---       #154
      01008708H   LINE      CODE     ---       #156
      01008708H   LINE      CODE     ---       #157
      01008711H   LINE      CODE     ---       #158
      0100871CH   LINE      CODE     ---       #159
      0100871CH   LINE      CODE     ---       #160
      0100871FH   LINE      CODE     ---       #163
      01008720H   LINE      CODE     ---       #165
      01008720H   LINE      CODE     ---       #166
      01008729H   LINE      CODE     ---       #167
      0100873CH   LINE      CODE     ---       #168
      01008741H   LINE      CODE     ---       #169
      01008749H   LINE      CODE     ---       #171
      01008749H   LINE      CODE     ---       #172
      01008749H   LINE      CODE     ---       #173
      ---         BLOCKEND  ---      ---       LVL=0

      0100CDD7H   BLOCK     CODE     ---       LVL=0
      0100CDD7H   LINE      CODE     ---       #175
      0100CDD7H   LINE      CODE     ---       #176
      0100CDD7H   LINE      CODE     ---       #177
      0100CDE2H   LINE      CODE     ---       #178
      0100CDE2H   LINE      CODE     ---       #180
      0100CDE2H   LINE      CODE     ---       #184
LX51 LINKER/LOCATER V4.66.97.0                                                        11/04/2023  11:13:39  PAGE 142


      0100CDE8H   LINE      CODE     ---       #186
      0100CDEBH   LINE      CODE     ---       #187
      0100CDEBH   LINE      CODE     ---       #188
      0100CDEEH   LINE      CODE     ---       #189
      0100CDEEH   LINE      CODE     ---       #190
      0100CDF1H   LINE      CODE     ---       #195
      0100CDF1H   LINE      CODE     ---       #196
      0100CDF2H   LINE      CODE     ---       #197
      0100CDF2H   LINE      CODE     ---       #198
      0100CDFCH   LINE      CODE     ---       #199
      0100CDFCH   LINE      CODE     ---       #200
      0100CE02H   LINE      CODE     ---       #201
      0100CE09H   LINE      CODE     ---       #206
      0100CE09H   LINE      CODE     ---       #207
      0100CE09H   LINE      CODE     ---       #208
      0100CE09H   LINE      CODE     ---       #209
      ---         BLOCKEND  ---      ---       LVL=0

      0100C43EH   BLOCK     CODE     ---       LVL=0
      0100C43EH   BLOCK     CODE     NEAR LAB  LVL=1
      0200CB93H   SYMBOL    XDATA    BYTE      ch
      ---         BLOCKEND  ---      ---       LVL=1
      0100C43EH   LINE      CODE     ---       #210
      0100C43EH   LINE      CODE     ---       #211
      0100C43EH   LINE      CODE     ---       #213
      0100C447H   LINE      CODE     ---       #214
      0100C452H   LINE      CODE     ---       #215
      0100C452H   LINE      CODE     ---       #216
      0100C452H   LINE      CODE     ---       #217
      0100C456H   LINE      CODE     ---       #218
      0100C459H   LINE      CODE     ---       #219
      0100C45FH   LINE      CODE     ---       #220
      0100C45FH   LINE      CODE     ---       #221
      0100C461H   LINE      CODE     ---       #222
      0100C461H   LINE      CODE     ---       #223
      0100C46AH   LINE      CODE     ---       #224
      0100C46AH   LINE      CODE     ---       #225
      0100C46DH   LINE      CODE     ---       #226
      0100C46DH   LINE      CODE     ---       #227
      0100C470H   LINE      CODE     ---       #228
      0100C478H   LINE      CODE     ---       #229
      0100C479H   LINE      CODE     ---       #230
      0100C479H   LINE      CODE     ---       #231
      0100C482H   LINE      CODE     ---       #232
      0100C482H   LINE      CODE     ---       #233
      0100C485H   LINE      CODE     ---       #234
      0100C485H   LINE      CODE     ---       #235
      0100C488H   LINE      CODE     ---       #236
      0100C488H   LINE      CODE     ---       #237
      0100C488H   LINE      CODE     ---       #238
      ---         BLOCKEND  ---      ---       LVL=0

      0100ACB9H   BLOCK     CODE     ---       LVL=0
      0100ACB9H   LINE      CODE     ---       #239
      0100ACB9H   LINE      CODE     ---       #240
      0100ACB9H   LINE      CODE     ---       #241
      0100ACC4H   LINE      CODE     ---       #242
      0100ACC4H   LINE      CODE     ---       #243
      0100ACC4H   LINE      CODE     ---       #244
      0100ACD6H   LINE      CODE     ---       #245
      0100ACD6H   LINE      CODE     ---       #246
      0100ACDCH   LINE      CODE     ---       #247
      0100ACE3H   LINE      CODE     ---       #248
      0100ACE8H   LINE      CODE     ---       #249
      0100ACEBH   LINE      CODE     ---       #250
LX51 LINKER/LOCATER V4.66.97.0                                                        11/04/2023  11:13:39  PAGE 143


      0100ACEEH   LINE      CODE     ---       #251
      0100ACEEH   LINE      CODE     ---       #253
      0100ACEEH   LINE      CODE     ---       #254
      0100ACF8H   LINE      CODE     ---       #255
      0100ACF8H   LINE      CODE     ---       #256
      0100AD02H   LINE      CODE     ---       #257
      0100AD02H   LINE      CODE     ---       #258
      0100AD06H   LINE      CODE     ---       #259
      0100AD0EH   LINE      CODE     ---       #260
      0100AD0EH   LINE      CODE     ---       #261
      0100AD24H   LINE      CODE     ---       #262
      0100AD24H   LINE      CODE     ---       #263
      0100AD24H   LINE      CODE     ---       #265
      0100AD24H   LINE      CODE     ---       #266
      0100AD24H   LINE      CODE     ---       #269
      0100AD2BH   LINE      CODE     ---       #270
      0100AD2BH   LINE      CODE     ---       #271
      0100AD2BH   LINE      CODE     ---       #272
      ---         BLOCKEND  ---      ---       LVL=0

      ---         MODULE    ---      ---       MB_PORT
      0100005AH   PUBLIC    CODE     ---       mb_port_timerEnable
      0100B2F6H   PUBLIC    CODE     ---       _mb_port_timerInit
      01000026H   PUBLIC    CODE     ---       _mb_port_getchar
      0100D647H   PUBLIC    CODE     ---       _mb_port_putchar
      0100D722H   PUBLIC    CODE     ---       mb_set_send_state
      01000066H   PUBLIC    CODE     ---       mb_set_receive_state
      0100D6AFH   PUBLIC    CODE     ---       _mb_port_uartEnable
      0200C83FH   PUBLIC    XDATA    BYTE      ?_mb_port_uartInit?BYTE
      0100D710H   PUBLIC    CODE     ---       _mb_port_uartInit
      000000F1H   SFRSYM    DATA     BYTE      ADR_H
      00000080H   SFRSYM    DATA     BYTE      P0
      00000090H   SFRSYM    DATA     BYTE      P1
      000000A0H   SFRSYM    DATA     BYTE      P2
      000000B0H   SFRSYM    DATA     BYTE      P3
      000000F3H   SFRSYM    DATA     BYTE      ADR_L
      000000D0H.6 SFRSYM    DATA     BIT       AC
      000000A0H.6 SFRSYM    DATA     BIT       Red_LED1
      00000094H   SFRSYM    DATA     BYTE      PAGESEL
      000000F2H   SFRSYM    DATA     BYTE      ADR_M
      000000A8H.7 SFRSYM    DATA     BIT       EA
      000000F8H   SFRSYM    DATA     BYTE      RAMMODE
      000000B7H   SFRSYM    DATA     BYTE      P0MDOUT
      000000BCH   SFRSYM    DATA     BYTE      P1MDOUT
      000000A8H   SFRSYM    DATA     BYTE      IEN0
      000000BDH   SFRSYM    DATA     BYTE      P2MDOUT
      000000B8H   SFRSYM    DATA     BYTE      IEN1
      000000BEH   SFRSYM    DATA     BYTE      P3MDOUT
      0000009AH   SFRSYM    DATA     BYTE      IEN2
      000000F8H.4 SFRSYM    DATA     BIT       APP_ACK
      000000F4H   SFRSYM    DATA     BYTE      ADR_INC
      000000B8H.1 SFRSYM    DATA     BIT       ECAN
      000000D0H.7 SFRSYM    DATA     BIT       CY
      000000B8H.3 SFRSYM    DATA     BIT       ES4R
      000000B8H.5 SFRSYM    DATA     BIT       ES5R
      000000B8H.2 SFRSYM    DATA     BIT       ES4T
      000000B8H.4 SFRSYM    DATA     BIT       ES5T
      000000B0H.3 SFRSYM    DATA     BIT       RTC_SDA
      00000081H   SFRSYM    DATA     BYTE      SP
      000000D0H.2 SFRSYM    DATA     BIT       OV
      00000095H   SFRSYM    DATA     BYTE      D_PAGESEL
      000000F8H.7 SFRSYM    DATA     BIT       APP_REQ
      000000B0H.2 SFRSYM    DATA     BIT       RTC_SCL
      000000BFH   SFRSYM    DATA     BYTE      IRCON2
      00000087H   SFRSYM    DATA     BYTE      PCON
LX51 LINKER/LOCATER V4.66.97.0                                                        11/04/2023  11:13:39  PAGE 144


      000000BAH   SFRSYM    DATA     BYTE      SREL2H
      000000BBH   SFRSYM    DATA     BYTE      SREL3H
      000000F9H   SFRSYM    DATA     BYTE      PORTDRV
      00000089H   SFRSYM    DATA     BYTE      TMOD
      00000088H   SFRSYM    DATA     BYTE      TCON
      000000AAH   SFRSYM    DATA     BYTE      SREL2L
      0000009DH   SFRSYM    DATA     BYTE      SREL3L
      000000FFH   SFRSYM    DATA     BYTE      EXDATA
      00000097H   SFRSYM    DATA     BYTE      SCON4R
      000000ABH   SFRSYM    DATA     BYTE      SCON5R
      000000D9H   SFRSYM    DATA     BYTE      BODE4_DIV_H
      000000AEH   SFRSYM    DATA     BYTE      BODE5_DIV_H
      00000096H   SFRSYM    DATA     BYTE      SCON4T
      000000A7H   SFRSYM    DATA     BYTE      SCON5T
      00000088H.1 SFRSYM    DATA     BIT       IE0
      00000088H.3 SFRSYM    DATA     BIT       IE1
      000000C9H   SFRSYM    DATA     BYTE      MUX_SEL
      000000E7H   SFRSYM    DATA     BYTE      BODE4_DIV_L
      000000AFH   SFRSYM    DATA     BYTE      BODE5_DIV_L
      000000F0H   SFRSYM    DATA     BYTE      B
      000000E0H   SFRSYM    DATA     BYTE      ACC
      0000008FH   SFRSYM    DATA     BYTE      CAN_CR
      000000A9H   SFRSYM    DATA     BYTE      IP0
      000000A8H.1 SFRSYM    DATA     BIT       ET0
      000000B9H   SFRSYM    DATA     BYTE      IP1
      000000A8H.3 SFRSYM    DATA     BIT       ET1
      000000A8H.4 SFRSYM    DATA     BIT       ES2
      00000088H.5 SFRSYM    DATA     BIT       TF0
      000000FDH   SFRSYM    DATA     BYTE      DATA0
      000000A8H.5 SFRSYM    DATA     BIT       ET2
      00000088H.7 SFRSYM    DATA     BIT       TF1
      000000E8H   SFRSYM    DATA     BYTE      CAN_ET
      000000FCH   SFRSYM    DATA     BYTE      DATA1
      000000C0H.6 SFRSYM    DATA     BIT       TF2
      0000008CH   SFRSYM    DATA     BYTE      TH0
      000000FBH   SFRSYM    DATA     BYTE      DATA2
      000000A8H.0 SFRSYM    DATA     BIT       EX0
      00000098H.0 SFRSYM    DATA     BIT       RI2
      0000008DH   SFRSYM    DATA     BYTE      TH1
      00000088H.0 SFRSYM    DATA     BIT       IT0
      00000091H   SFRSYM    DATA     BYTE      CAN_IR
      000000FAH   SFRSYM    DATA     BYTE      DATA3
      000000CDH   SFRSYM    DATA     BYTE      TH2
      000000A8H.2 SFRSYM    DATA     BIT       EX1
      00000088H.2 SFRSYM    DATA     BIT       IT1
      000000D0H.0 SFRSYM    DATA     BIT       P
      00000098H.1 SFRSYM    DATA     BIT       TI2
      0000008AH   SFRSYM    DATA     BYTE      TL0
      0000008BH   SFRSYM    DATA     BYTE      TL1
      000000CCH   SFRSYM    DATA     BYTE      TL2
      000000F8H.6 SFRSYM    DATA     BIT       APP_EN
      000000D0H.3 SFRSYM    DATA     BIT       RS0
      000000D0H.4 SFRSYM    DATA     BIT       RS1
      00000088H.4 SFRSYM    DATA     BIT       TR0
      00000093H   SFRSYM    DATA     BYTE      DPC
      00000088H.6 SFRSYM    DATA     BIT       TR1
      000000E5H   SFRSYM    DATA     BYTE      MAC_MODE
      000000C8H.0 SFRSYM    DATA     BIT       TR2
      00000080H.0 SFRSYM    DATA     BIT       TR4
      00000080H.1 SFRSYM    DATA     BIT       TR5
      000000A0H.7 SFRSYM    DATA     BIT       Green_LED2
      00000083H   SFRSYM    DATA     BYTE      DPH
      00000082H   SFRSYM    DATA     BYTE      DPL
      00000099H   SFRSYM    DATA     BYTE      SBUF2
      0000009CH   SFRSYM    DATA     BYTE      SBUF3
LX51 LINKER/LOCATER V4.66.97.0                                                        11/04/2023  11:13:39  PAGE 145


      000000D8H   SFRSYM    DATA     BYTE      ADCON
      00000098H   SFRSYM    DATA     BYTE      SCON2
      000000C8H   SFRSYM    DATA     BYTE      T2CON
      0000009BH   SFRSYM    DATA     BYTE      SCON3
      000000E6H   SFRSYM    DATA     BYTE      DIV_MODE
      000000F8H.5 SFRSYM    DATA     BIT       APP_RW
      000000CBH   SFRSYM    DATA     BYTE      TRL2H
      0000008EH   SFRSYM    DATA     BYTE      CKCON
      0000009FH   SFRSYM    DATA     BYTE      SBUF4_RX
      000000ADH   SFRSYM    DATA     BYTE      SBUF5_RX
      000000CAH   SFRSYM    DATA     BYTE      TRL2L
      0000009EH   SFRSYM    DATA     BYTE      SBUF4_TX
      000000ACH   SFRSYM    DATA     BYTE      SBUF5_TX
      000000FEH   SFRSYM    DATA     BYTE      EXADR
      000000D0H.5 SFRSYM    DATA     BIT       F0
      000000D0H.1 SFRSYM    DATA     BIT       F1
      000000D0H   SFRSYM    DATA     BYTE      PSW
      000000C0H   SFRSYM    DATA     BYTE      IRCON

      0100D630H   BLOCK     CODE     ---       LVL=0
      ---         BLOCKEND  ---      ---       LVL=0

      0100D710H   BLOCK     CODE     ---       LVL=0
      0200C83FH   SYMBOL    XDATA    DWORD     baud
      0200C843H   SYMBOL    XDATA    BYTE      parity
      0100D710H   LINE      CODE     ---       #17
      ---         BLOCKEND  ---      ---       LVL=0

      0100D6AFH   BLOCK     CODE     ---       LVL=0
      0200C8B4H   SYMBOL    XDATA    BYTE      txen
      0200C8B5H   SYMBOL    XDATA    BYTE      rxen
      0100D6AFH   LINE      CODE     ---       #22
      0100D6B7H   LINE      CODE     ---       #23
      0100D6B7H   LINE      CODE     ---       #24
      0100D6B7H   LINE      CODE     ---       #25
      0100D6B7H   LINE      CODE     ---       #27
      0100D6B7H   LINE      CODE     ---       #29
      0100D6B7H   LINE      CODE     ---       #31
      0100D6B7H   LINE      CODE     ---       #33
      0100D6B7H   LINE      CODE     ---       #34
      0100D6B7H   LINE      CODE     ---       #36
      0100D6B7H   LINE      CODE     ---       #38
      0100D6B7H   LINE      CODE     ---       #40
      0100D6B7H   LINE      CODE     ---       #41
      ---         BLOCKEND  ---      ---       LVL=0

      01000066H   BLOCK     CODE     ---       LVL=0
      01000066H   LINE      CODE     ---       #42
      01000066H   LINE      CODE     ---       #43
      01000066H   LINE      CODE     ---       #44
      01000068H   LINE      CODE     ---       #45
      ---         BLOCKEND  ---      ---       LVL=0

      0100D722H   BLOCK     CODE     ---       LVL=0
      0100D722H   LINE      CODE     ---       #47
      0100D722H   LINE      CODE     ---       #48
      0100D722H   LINE      CODE     ---       #49
      0100D724H   LINE      CODE     ---       #50
      ---         BLOCKEND  ---      ---       LVL=0

      0100D647H   BLOCK     CODE     ---       LVL=0
      00000007H   SYMBOL    DATA     BYTE      ch
      0100D647H   LINE      CODE     ---       #51
      0100D647H   LINE      CODE     ---       #52
      0100D647H   LINE      CODE     ---       #54
LX51 LINKER/LOCATER V4.66.97.0                                                        11/04/2023  11:13:39  PAGE 146


      0100D64AH   LINE      CODE     ---       #55
      0100D64DH   LINE      CODE     ---       #56
      0100D64FH   LINE      CODE     ---       #57
      0100D651H   LINE      CODE     ---       #60
      ---         BLOCKEND  ---      ---       LVL=0

      01000026H   BLOCK     CODE     ---       LVL=0
      00000001H   SYMBOL    DATA     ---       ch
      01000026H   LINE      CODE     ---       #62
      01000026H   LINE      CODE     ---       #63
      01000026H   LINE      CODE     ---       #64
      ---         BLOCKEND  ---      ---       LVL=0

      0100B2F6H   BLOCK     CODE     ---       LVL=0
      0200C83FH   SYMBOL    XDATA    DWORD     baud
      0100B2FCH   BLOCK     CODE     NEAR LAB  LVL=1
      0200C843H   SYMBOL    XDATA    DWORD     j
      0200C847H   SYMBOL    XDATA    DWORD     k
      ---         BLOCKEND  ---      ---       LVL=1
      0100B2F6H   LINE      CODE     ---       #67
      0100B2FCH   LINE      CODE     ---       #68
      0100B2FCH   LINE      CODE     ---       #70
      0100B306H   LINE      CODE     ---       #71
      0100B310H   LINE      CODE     ---       #74
      0100B31FH   LINE      CODE     ---       #76
      0100B330H   LINE      CODE     ---       #77
      0100B330H   LINE      CODE     ---       #78
      0100B343H   LINE      CODE     ---       #79
      0100B343H   LINE      CODE     ---       #80
      0100B352H   LINE      CODE     ---       #81
      0100B35AH   LINE      CODE     ---       #82
      ---         BLOCKEND  ---      ---       LVL=0

      0100005AH   BLOCK     CODE     ---       LVL=0
      0100005AH   LINE      CODE     ---       #84
      0100005AH   LINE      CODE     ---       #85
      0100005AH   LINE      CODE     ---       #87
      ---         BLOCKEND  ---      ---       LVL=0

      ---         MODULE    ---      ---       NOR_FLASH
      0200CFA5H   PUBLIC    XDATA    ---       norflash_cmd
      0200CB6BH   PUBLIC    XDATA    BYTE      ?_norflash_read?BYTE
      0100B7F1H   PUBLIC    CODE     ---       _norflash_read
      0200C84EH   PUBLIC    XDATA    BYTE      ?_norflash_write?BYTE
      0100BF26H   PUBLIC    CODE     ---       _norflash_write
      000000F1H   SFRSYM    DATA     BYTE      ADR_H
      00000080H   SFRSYM    DATA     BYTE      P0
      00000090H   SFRSYM    DATA     BYTE      P1
      000000A0H   SFRSYM    DATA     BYTE      P2
      000000B0H   SFRSYM    DATA     BYTE      P3
      000000F3H   SFRSYM    DATA     BYTE      ADR_L
      000000D0H.6 SFRSYM    DATA     BIT       AC
      000000A0H.6 SFRSYM    DATA     BIT       Red_LED1
      00000094H   SFRSYM    DATA     BYTE      PAGESEL
      000000F2H   SFRSYM    DATA     BYTE      ADR_M
      000000A8H.7 SFRSYM    DATA     BIT       EA
      000000F8H   SFRSYM    DATA     BYTE      RAMMODE
      000000B7H   SFRSYM    DATA     BYTE      P0MDOUT
      000000BCH   SFRSYM    DATA     BYTE      P1MDOUT
      000000A8H   SFRSYM    DATA     BYTE      IEN0
      000000BDH   SFRSYM    DATA     BYTE      P2MDOUT
      000000B8H   SFRSYM    DATA     BYTE      IEN1
      000000BEH   SFRSYM    DATA     BYTE      P3MDOUT
      0000009AH   SFRSYM    DATA     BYTE      IEN2
      000000F8H.4 SFRSYM    DATA     BIT       APP_ACK
LX51 LINKER/LOCATER V4.66.97.0                                                        11/04/2023  11:13:39  PAGE 147


      000000F4H   SFRSYM    DATA     BYTE      ADR_INC
      000000B8H.1 SFRSYM    DATA     BIT       ECAN
      000000D0H.7 SFRSYM    DATA     BIT       CY
      000000B8H.3 SFRSYM    DATA     BIT       ES4R
      000000B8H.5 SFRSYM    DATA     BIT       ES5R
      000000B8H.2 SFRSYM    DATA     BIT       ES4T
      000000B8H.4 SFRSYM    DATA     BIT       ES5T
      000000B0H.3 SFRSYM    DATA     BIT       RTC_SDA
      00000081H   SFRSYM    DATA     BYTE      SP
      000000D0H.2 SFRSYM    DATA     BIT       OV
      00000095H   SFRSYM    DATA     BYTE      D_PAGESEL
      000000F8H.7 SFRSYM    DATA     BIT       APP_REQ
      000000B0H.2 SFRSYM    DATA     BIT       RTC_SCL
      000000BFH   SFRSYM    DATA     BYTE      IRCON2
      00000087H   SFRSYM    DATA     BYTE      PCON
      000000BAH   SFRSYM    DATA     BYTE      SREL2H
      000000BBH   SFRSYM    DATA     BYTE      SREL3H
      000000F9H   SFRSYM    DATA     BYTE      PORTDRV
      00000089H   SFRSYM    DATA     BYTE      TMOD
      00000088H   SFRSYM    DATA     BYTE      TCON
      000000AAH   SFRSYM    DATA     BYTE      SREL2L
      0000009DH   SFRSYM    DATA     BYTE      SREL3L
      000000FFH   SFRSYM    DATA     BYTE      EXDATA
      00000097H   SFRSYM    DATA     BYTE      SCON4R
      000000ABH   SFRSYM    DATA     BYTE      SCON5R
      000000D9H   SFRSYM    DATA     BYTE      BODE4_DIV_H
      000000AEH   SFRSYM    DATA     BYTE      BODE5_DIV_H
      00000096H   SFRSYM    DATA     BYTE      SCON4T
      000000A7H   SFRSYM    DATA     BYTE      SCON5T
      00000088H.1 SFRSYM    DATA     BIT       IE0
      00000088H.3 SFRSYM    DATA     BIT       IE1
      000000C9H   SFRSYM    DATA     BYTE      MUX_SEL
      000000E7H   SFRSYM    DATA     BYTE      BODE4_DIV_L
      000000AFH   SFRSYM    DATA     BYTE      BODE5_DIV_L
      000000F0H   SFRSYM    DATA     BYTE      B
      000000E0H   SFRSYM    DATA     BYTE      ACC
      0000008FH   SFRSYM    DATA     BYTE      CAN_CR
      000000A9H   SFRSYM    DATA     BYTE      IP0
      000000A8H.1 SFRSYM    DATA     BIT       ET0
      000000B9H   SFRSYM    DATA     BYTE      IP1
      000000A8H.3 SFRSYM    DATA     BIT       ET1
      000000A8H.4 SFRSYM    DATA     BIT       ES2
      00000088H.5 SFRSYM    DATA     BIT       TF0
      000000FDH   SFRSYM    DATA     BYTE      DATA0
      000000A8H.5 SFRSYM    DATA     BIT       ET2
      00000088H.7 SFRSYM    DATA     BIT       TF1
      000000E8H   SFRSYM    DATA     BYTE      CAN_ET
      000000FCH   SFRSYM    DATA     BYTE      DATA1
      000000C0H.6 SFRSYM    DATA     BIT       TF2
      0000008CH   SFRSYM    DATA     BYTE      TH0
      000000FBH   SFRSYM    DATA     BYTE      DATA2
      000000A8H.0 SFRSYM    DATA     BIT       EX0
      00000098H.0 SFRSYM    DATA     BIT       RI2
      0000008DH   SFRSYM    DATA     BYTE      TH1
      00000088H.0 SFRSYM    DATA     BIT       IT0
      00000091H   SFRSYM    DATA     BYTE      CAN_IR
      000000FAH   SFRSYM    DATA     BYTE      DATA3
      000000CDH   SFRSYM    DATA     BYTE      TH2
      000000A8H.2 SFRSYM    DATA     BIT       EX1
      00000088H.2 SFRSYM    DATA     BIT       IT1
      000000D0H.0 SFRSYM    DATA     BIT       P
      00000098H.1 SFRSYM    DATA     BIT       TI2
      0000008AH   SFRSYM    DATA     BYTE      TL0
      0000008BH   SFRSYM    DATA     BYTE      TL1
      000000CCH   SFRSYM    DATA     BYTE      TL2
LX51 LINKER/LOCATER V4.66.97.0                                                        11/04/2023  11:13:39  PAGE 148


      000000F8H.6 SFRSYM    DATA     BIT       APP_EN
      000000D0H.3 SFRSYM    DATA     BIT       RS0
      000000D0H.4 SFRSYM    DATA     BIT       RS1
      00000088H.4 SFRSYM    DATA     BIT       TR0
      00000093H   SFRSYM    DATA     BYTE      DPC
      00000088H.6 SFRSYM    DATA     BIT       TR1
      000000E5H   SFRSYM    DATA     BYTE      MAC_MODE
      000000C8H.0 SFRSYM    DATA     BIT       TR2
      00000080H.0 SFRSYM    DATA     BIT       TR4
      00000080H.1 SFRSYM    DATA     BIT       TR5
      000000A0H.7 SFRSYM    DATA     BIT       Green_LED2
      00000083H   SFRSYM    DATA     BYTE      DPH
      00000082H   SFRSYM    DATA     BYTE      DPL
      00000099H   SFRSYM    DATA     BYTE      SBUF2
      0000009CH   SFRSYM    DATA     BYTE      SBUF3
      000000D8H   SFRSYM    DATA     BYTE      ADCON
      00000098H   SFRSYM    DATA     BYTE      SCON2
      000000C8H   SFRSYM    DATA     BYTE      T2CON
      0000009BH   SFRSYM    DATA     BYTE      SCON3
      000000E6H   SFRSYM    DATA     BYTE      DIV_MODE
      000000F8H.5 SFRSYM    DATA     BIT       APP_RW
      000000CBH   SFRSYM    DATA     BYTE      TRL2H
      0000008EH   SFRSYM    DATA     BYTE      CKCON
      0000009FH   SFRSYM    DATA     BYTE      SBUF4_RX
      000000ADH   SFRSYM    DATA     BYTE      SBUF5_RX
      000000CAH   SFRSYM    DATA     BYTE      TRL2L
      0000009EH   SFRSYM    DATA     BYTE      SBUF4_TX
      000000ACH   SFRSYM    DATA     BYTE      SBUF5_TX
      000000FEH   SFRSYM    DATA     BYTE      EXADR
      000000D0H.5 SFRSYM    DATA     BIT       F0
      000000D0H.1 SFRSYM    DATA     BIT       F1
      000000D0H   SFRSYM    DATA     BYTE      PSW
      000000C0H   SFRSYM    DATA     BYTE      IRCON

      0100B422H   BLOCK     CODE     ---       LVL=0
      ---         BLOCKEND  ---      ---       LVL=0

      0100BF26H   BLOCK     CODE     ---       LVL=0
      0200C84EH   SYMBOL    XDATA    DWORD     addr
      00000001H   SYMBOL    DATA     ---       buff
      0200C855H   SYMBOL    XDATA    WORD      len
      0100BF26H   LINE      CODE     ---       #23
      0100BF2CH   LINE      CODE     ---       #24
      0100BF2CH   LINE      CODE     ---       #25
      0100BF2EH   LINE      CODE     ---       #27
      0100BF3EH   LINE      CODE     ---       #30
      0100BF44H   LINE      CODE     ---       #31
      0100BF4AH   LINE      CODE     ---       #32
      0100BF50H   LINE      CODE     ---       #33
      0100BF53H   LINE      CODE     ---       #34
      0100BF53H   LINE      CODE     ---       #35
      0100BF56H   LINE      CODE     ---       #36
      0100BF59H   LINE      CODE     ---       #37
      0100BF59H   LINE      CODE     ---       #38
      0100BF5FH   LINE      CODE     ---       #41
      0100BF5FH   LINE      CODE     ---       #42
      0100BF5FH   LINE      CODE     ---       #43
      0100BF6AH   LINE      CODE     ---       #44
      0100BF70H   LINE      CODE     ---       #45
      0100BF70H   LINE      CODE     ---       #46
      0100BF77H   LINE      CODE     ---       #47
      0100BF79H   LINE      CODE     ---       #48
      0100BF7BH   LINE      CODE     ---       #49
      ---         BLOCKEND  ---      ---       LVL=0

LX51 LINKER/LOCATER V4.66.97.0                                                        11/04/2023  11:13:39  PAGE 149


      0100B7F1H   BLOCK     CODE     ---       LVL=0
      0200CB6BH   SYMBOL    XDATA    DWORD     addr
      0200CB6FH   SYMBOL    XDATA    ---       buff
      0200CB72H   SYMBOL    XDATA    WORD      len
      0100B7F1H   LINE      CODE     ---       #57
      0100B7FDH   LINE      CODE     ---       #58
      0100B7FDH   LINE      CODE     ---       #60
      0100B803H   LINE      CODE     ---       #61
      0100B809H   LINE      CODE     ---       #62
      0100B80FH   LINE      CODE     ---       #63
      0100B812H   LINE      CODE     ---       #64
      0100B812H   LINE      CODE     ---       #65
      0100B815H   LINE      CODE     ---       #66
      0100B818H   LINE      CODE     ---       #67
      0100B818H   LINE      CODE     ---       #68
      0100B81EH   LINE      CODE     ---       #71
      0100B81EH   LINE      CODE     ---       #72
      0100B81EH   LINE      CODE     ---       #73
      0100B82CH   LINE      CODE     ---       #74
      0100B832H   LINE      CODE     ---       #75
      0100B832H   LINE      CODE     ---       #76
      0100B839H   LINE      CODE     ---       #77
      0100B83BH   LINE      CODE     ---       #80
      ---         BLOCKEND  ---      ---       LVL=0

      ---         MODULE    ---      ---       SCENE
      0200C6B6H   PUBLIC    XDATA    ---       module_scene
      0200C6A5H   PUBLIC    XDATA    ---       default_scene_name
      0200C6A4H   PUBLIC    XDATA    BYTE      infor_clear_sta
      0200C6A3H   PUBLIC    XDATA    BYTE      scene_name_select_sta_bak
      0200C6A2H   PUBLIC    XDATA    BYTE      scene_infor_select_sta_bak
      0200C0A2H   PUBLIC    XDATA    ---       temp_scenc_infor
      0200C0A1H   PUBLIC    XDATA    BYTE      temp_module_index
      0200C099H   PUBLIC    XDATA    ---       module_scene_select_key_bak
      0200C00DH   PUBLIC    XDATA    ---       name_space
      0200C00CH   PUBLIC    XDATA    BYTE      scene_infor_page
      0200BFF4H   PUBLIC    XDATA    ---       scenc_infor
      0200BFEFH   PUBLIC    XDATA    ---       scene_data
      0200BFEEH   PUBLIC    XDATA    BYTE      scene_index
      0200BFE6H   PUBLIC    XDATA    ---       scene_vaild
      0200BFE4H   PUBLIC    XDATA    WORD      scene_name_key_nb_bak
      0200BFE2H   PUBLIC    XDATA    WORD      scene_infor_key_nb_bak
      0100BE77H   PUBLIC    CODE     ---       scene_touch_run
      0100AEE9H   PUBLIC    CODE     ---       _pop_menu_key_ctrl
      0100B90FH   PUBLIC    CODE     ---       _sys_led_config
      0100B730H   PUBLIC    CODE     ---       _back_light_ctrl
      0100BB45H   PUBLIC    CODE     ---       _beep_ctrl
      0100CC9CH   PUBLIC    CODE     ---       scene_modify
      0100B6CFH   PUBLIC    CODE     ---       _scene_touch_ctrl
      0100D2E7H   PUBLIC    CODE     ---       set_scene_infor_page
      0200C83AH   PUBLIC    XDATA    BYTE      ?_scene_infor_key_ctrl?BYTE
      01008D26H   PUBLIC    CODE     ---       _scene_infor_key_ctrl
      0200C842H   PUBLIC    XDATA    BYTE      ?_scene_edit_sta_clear_infor?BYTE
      0100BA8AH   PUBLIC    CODE     ---       _scene_edit_sta_clear_infor
      0100761FH   PUBLIC    CODE     ---       _scene_infor_delete_ctrl
      0100BC5AH   PUBLIC    CODE     ---       _scene_infor_modify_ctrl
      0200C842H   PUBLIC    XDATA    BYTE      ?_scene_infor_clear_ctrl?BYTE
      0100D0D0H   PUBLIC    CODE     ---       _scene_infor_clear_ctrl
      0200C842H   PUBLIC    XDATA    BYTE      ?_scene_infor_cancel_ctrl?BYTE
      0100CE99H   PUBLIC    CODE     ---       _scene_infor_cancel_ctrl
      0100B15DH   PUBLIC    CODE     ---       _scene_infor_confirm_ctrl
      01008EB2H   PUBLIC    CODE     ---       _scene_name_key_ctrl
      0100C8B1H   PUBLIC    CODE     ---       _scene_name_delete
      0100CCD2H   PUBLIC    CODE     ---       _scene_name_clear
      010074E8H   PUBLIC    CODE     ---       _scene_name_modify
LX51 LINKER/LOCATER V4.66.97.0                                                        11/04/2023  11:13:39  PAGE 150


      0100C027H   PUBLIC    CODE     ---       _scene_name_add
      0200C83AH   PUBLIC    XDATA    BYTE      ?_add_module_scene_infor?BYTE
      01005D5FH   PUBLIC    CODE     ---       _add_module_scene_infor
      01004B72H   PUBLIC    CODE     ---       _display_scene_infor
      0100A7E5H   PUBLIC    CODE     ---       module_scene_send
      01008F76H   PUBLIC    CODE     ---       _scene_name_ctrl_send
      01009A44H   PUBLIC    CODE     ---       _scene_delete_ctrl_send
      010093EFH   PUBLIC    CODE     ---       _module_dim_scene_send
      01009EE1H   PUBLIC    CODE     ---       _module_relay_scene_send
      0200C848H   PUBLIC    XDATA    BYTE      ?_module_dim_scene_set?BYTE
      0100724DH   PUBLIC    CODE     ---       _module_dim_scene_set
      0200C848H   PUBLIC    XDATA    BYTE      ?_module_relay_scene_set?BYTE
      0100425EH   PUBLIC    CODE     ---       _module_relay_scene_set
      01009D9CH   PUBLIC    CODE     ---       _module_scene_select_ctrl
      0100D015H   PUBLIC    CODE     ---       _module_scene_select
      0100C760H   PUBLIC    CODE     ---       _display_scene_interface
      0100BA2CH   PUBLIC    CODE     ---       _display_dim_scene_interface
      0100A6DCH   PUBLIC    CODE     ---       _display_relay_scene_interface
      01007ADFH   PUBLIC    CODE     ---       _module_scene_infor_dis
      0100C71AH   PUBLIC    CODE     ---       _scene_infor_delete_flash
      0100D0ACH   PUBLIC    CODE     ---       _scene_infor_save_flash
      0100A966H   PUBLIC    CODE     ---       scene_name_clear_flash
      0100C357H   PUBLIC    CODE     ---       _scene_name_delete_flash
      0100D419H   PUBLIC    CODE     ---       clear_scene_list_name
      0100D50BH   PUBLIC    CODE     ---       _delete_scene_list_name
      0100D247H   PUBLIC    CODE     ---       _scene_name_read_flash
      0100D4AEH   PUBLIC    CODE     ---       _scene_name_save
      0100B0F6H   PUBLIC    CODE     ---       _scene_name_write_dgusii
      0100D496H   PUBLIC    CODE     ---       _scene_name_save_flash
      0100CFEEH   PUBLIC    CODE     ---       if_all_scene_name_blank
      0100D226H   PUBLIC    CODE     ---       _if_scene_name_exists
      0100D37AH   PUBLIC    CODE     ---       set_scene_name_select_sequence_number
      0100D6C1H   PUBLIC    CODE     ---       get_scene_name_select_sequence_number
      0100D35EH   PUBLIC    CODE     ---       set_scene_infor_select_sequence_number
      0100D6B8H   PUBLIC    CODE     ---       get_scene_infor_select_sequence_number
      0100D55DH   PUBLIC    CODE     ---       get_blank_scene_infor_index
      0100D3FFH   PUBLIC    CODE     ---       clear_all_scene_infor
      0100006EH   PUBLIC    CODE     ---       _clear_single_scene
      0100D342H   PUBLIC    CODE     ---       if_all_scene_infor_blank
      0100CB50H   PUBLIC    CODE     ---       get_blank_scene_name_index
      0100D5C6H   PUBLIC    CODE     ---       clear_temp_scenc_infor
      0100CC66H   PUBLIC    CODE     ---       _clear_all_module_var_en
      0100D71CH   PUBLIC    CODE     ---       _clear_single_module_var_en
      0100D652H   PUBLIC    CODE     ---       _printf_temp_scenc_infor
      0100D716H   PUBLIC    CODE     ---       get_module_scene_edit_sta
      0100D5B7H   PUBLIC    CODE     ---       set_default_scene_name
      000000F1H   SFRSYM    DATA     BYTE      ADR_H
      00000080H   SFRSYM    DATA     BYTE      P0
      00000090H   SFRSYM    DATA     BYTE      P1
      000000A0H   SFRSYM    DATA     BYTE      P2
      000000B0H   SFRSYM    DATA     BYTE      P3
      000000F3H   SFRSYM    DATA     BYTE      ADR_L
      000000D0H.6 SFRSYM    DATA     BIT       AC
      000000A0H.6 SFRSYM    DATA     BIT       Red_LED1
      00000094H   SFRSYM    DATA     BYTE      PAGESEL
      000000F2H   SFRSYM    DATA     BYTE      ADR_M
      000000A8H.7 SFRSYM    DATA     BIT       EA
      000000F8H   SFRSYM    DATA     BYTE      RAMMODE
      000000B7H   SFRSYM    DATA     BYTE      P0MDOUT
      000000BCH   SFRSYM    DATA     BYTE      P1MDOUT
      000000A8H   SFRSYM    DATA     BYTE      IEN0
      000000BDH   SFRSYM    DATA     BYTE      P2MDOUT
      000000B8H   SFRSYM    DATA     BYTE      IEN1
      000000BEH   SFRSYM    DATA     BYTE      P3MDOUT
      0000009AH   SFRSYM    DATA     BYTE      IEN2
LX51 LINKER/LOCATER V4.66.97.0                                                        11/04/2023  11:13:39  PAGE 151


      000000F8H.4 SFRSYM    DATA     BIT       APP_ACK
      000000F4H   SFRSYM    DATA     BYTE      ADR_INC
      000000B8H.1 SFRSYM    DATA     BIT       ECAN
      000000D0H.7 SFRSYM    DATA     BIT       CY
      000000B8H.3 SFRSYM    DATA     BIT       ES4R
      000000B8H.5 SFRSYM    DATA     BIT       ES5R
      000000B8H.2 SFRSYM    DATA     BIT       ES4T
      000000B8H.4 SFRSYM    DATA     BIT       ES5T
      000000B0H.3 SFRSYM    DATA     BIT       RTC_SDA
      00000081H   SFRSYM    DATA     BYTE      SP
      000000D0H.2 SFRSYM    DATA     BIT       OV
      00000095H   SFRSYM    DATA     BYTE      D_PAGESEL
      000000F8H.7 SFRSYM    DATA     BIT       APP_REQ
      000000B0H.2 SFRSYM    DATA     BIT       RTC_SCL
      000000BFH   SFRSYM    DATA     BYTE      IRCON2
      00000087H   SFRSYM    DATA     BYTE      PCON
      000000BAH   SFRSYM    DATA     BYTE      SREL2H
      000000BBH   SFRSYM    DATA     BYTE      SREL3H
      000000F9H   SFRSYM    DATA     BYTE      PORTDRV
      00000089H   SFRSYM    DATA     BYTE      TMOD
      00000088H   SFRSYM    DATA     BYTE      TCON
      000000AAH   SFRSYM    DATA     BYTE      SREL2L
      0000009DH   SFRSYM    DATA     BYTE      SREL3L
      000000FFH   SFRSYM    DATA     BYTE      EXDATA
      00000097H   SFRSYM    DATA     BYTE      SCON4R
      000000ABH   SFRSYM    DATA     BYTE      SCON5R
      000000D9H   SFRSYM    DATA     BYTE      BODE4_DIV_H
      000000AEH   SFRSYM    DATA     BYTE      BODE5_DIV_H
      00000096H   SFRSYM    DATA     BYTE      SCON4T
      000000A7H   SFRSYM    DATA     BYTE      SCON5T
      00000088H.1 SFRSYM    DATA     BIT       IE0
      00000088H.3 SFRSYM    DATA     BIT       IE1
      000000C9H   SFRSYM    DATA     BYTE      MUX_SEL
      000000E7H   SFRSYM    DATA     BYTE      BODE4_DIV_L
      000000AFH   SFRSYM    DATA     BYTE      BODE5_DIV_L
      000000F0H   SFRSYM    DATA     BYTE      B
      000000E0H   SFRSYM    DATA     BYTE      ACC
      0000008FH   SFRSYM    DATA     BYTE      CAN_CR
      000000A9H   SFRSYM    DATA     BYTE      IP0
      000000A8H.1 SFRSYM    DATA     BIT       ET0
      000000B9H   SFRSYM    DATA     BYTE      IP1
      000000A8H.3 SFRSYM    DATA     BIT       ET1
      000000A8H.4 SFRSYM    DATA     BIT       ES2
      00000088H.5 SFRSYM    DATA     BIT       TF0
      000000FDH   SFRSYM    DATA     BYTE      DATA0
      000000A8H.5 SFRSYM    DATA     BIT       ET2
      00000088H.7 SFRSYM    DATA     BIT       TF1
      000000E8H   SFRSYM    DATA     BYTE      CAN_ET
      000000FCH   SFRSYM    DATA     BYTE      DATA1
      000000C0H.6 SFRSYM    DATA     BIT       TF2
      0000008CH   SFRSYM    DATA     BYTE      TH0
      000000FBH   SFRSYM    DATA     BYTE      DATA2
      000000A8H.0 SFRSYM    DATA     BIT       EX0
      00000098H.0 SFRSYM    DATA     BIT       RI2
      0000008DH   SFRSYM    DATA     BYTE      TH1
      00000088H.0 SFRSYM    DATA     BIT       IT0
      00000091H   SFRSYM    DATA     BYTE      CAN_IR
      000000FAH   SFRSYM    DATA     BYTE      DATA3
      000000CDH   SFRSYM    DATA     BYTE      TH2
      000000A8H.2 SFRSYM    DATA     BIT       EX1
      00000088H.2 SFRSYM    DATA     BIT       IT1
      000000D0H.0 SFRSYM    DATA     BIT       P
      00000098H.1 SFRSYM    DATA     BIT       TI2
      0000008AH   SFRSYM    DATA     BYTE      TL0
      0000008BH   SFRSYM    DATA     BYTE      TL1
LX51 LINKER/LOCATER V4.66.97.0                                                        11/04/2023  11:13:39  PAGE 152


      000000CCH   SFRSYM    DATA     BYTE      TL2
      000000F8H.6 SFRSYM    DATA     BIT       APP_EN
      000000D0H.3 SFRSYM    DATA     BIT       RS0
      000000D0H.4 SFRSYM    DATA     BIT       RS1
      00000088H.4 SFRSYM    DATA     BIT       TR0
      00000093H   SFRSYM    DATA     BYTE      DPC
      00000088H.6 SFRSYM    DATA     BIT       TR1
      000000E5H   SFRSYM    DATA     BYTE      MAC_MODE
      000000C8H.0 SFRSYM    DATA     BIT       TR2
      00000080H.0 SFRSYM    DATA     BIT       TR4
      00000080H.1 SFRSYM    DATA     BIT       TR5
      000000A0H.7 SFRSYM    DATA     BIT       Green_LED2
      00000083H   SFRSYM    DATA     BYTE      DPH
      00000082H   SFRSYM    DATA     BYTE      DPL
      00000099H   SFRSYM    DATA     BYTE      SBUF2
      0000009CH   SFRSYM    DATA     BYTE      SBUF3
      000000D8H   SFRSYM    DATA     BYTE      ADCON
      00000098H   SFRSYM    DATA     BYTE      SCON2
      000000C8H   SFRSYM    DATA     BYTE      T2CON
      0000009BH   SFRSYM    DATA     BYTE      SCON3
      000000E6H   SFRSYM    DATA     BYTE      DIV_MODE
      000000F8H.5 SFRSYM    DATA     BIT       APP_RW
      000000CBH   SFRSYM    DATA     BYTE      TRL2H
      0000008EH   SFRSYM    DATA     BYTE      CKCON
      0000009FH   SFRSYM    DATA     BYTE      SBUF4_RX
      000000ADH   SFRSYM    DATA     BYTE      SBUF5_RX
      000000CAH   SFRSYM    DATA     BYTE      TRL2L
      0000009EH   SFRSYM    DATA     BYTE      SBUF4_TX
      000000ACH   SFRSYM    DATA     BYTE      SBUF5_TX
      000000FEH   SFRSYM    DATA     BYTE      EXADR
      000000D0H.5 SFRSYM    DATA     BIT       F0
      000000D0H.1 SFRSYM    DATA     BIT       F1
      000000D0H   SFRSYM    DATA     BYTE      PSW
      000000C0H   SFRSYM    DATA     BYTE      IRCON
      0100E4E0H   SYMBOL    CONST    ---       _?ix1000
      0100E6B4H   SYMBOL    CONST    ---       _?ix1010
      0100E500H   SYMBOL    CONST    ---       _?ix1001
      0100E6BEH   SYMBOL    CONST    ---       _?ix1011
      0100E520H   SYMBOL    CONST    ---       _?ix1002
      0100E6EEH   SYMBOL    CONST    ---       _?ix1012
      0100E528H   SYMBOL    CONST    ---       _?ix1003
      0100E806H   SYMBOL    CONST    ---       _?ix1013
      0100E52CH   SYMBOL    CONST    ---       _?ix1004
      0100E80AH   SYMBOL    CONST    ---       _?ix1014
      0100E58CH   SYMBOL    CONST    ---       _?ix1005
      0100E80EH   SYMBOL    CONST    ---       _?ix1015
      0100E619H   SYMBOL    CONST    ---       _?ix1006
      0100E812H   SYMBOL    CONST    ---       _?ix1016
      0100E62AH   SYMBOL    CONST    ---       _?ix1007
      0100E81AH   SYMBOL    CONST    ---       _?ix1017
      0100E65BH   SYMBOL    CONST    ---       _?ix1008
      0100E68CH   SYMBOL    CONST    ---       _?ix1009

      01003161H   BLOCK     CODE     ---       LVL=0
      ---         BLOCKEND  ---      ---       LVL=0

      0100D5B7H   BLOCK     CODE     ---       LVL=0
      0100D5B7H   LINE      CODE     ---       #36
      0100D5B7H   LINE      CODE     ---       #37
      0100D5B7H   LINE      CODE     ---       #38
      ---         BLOCKEND  ---      ---       LVL=0

      0100D716H   BLOCK     CODE     ---       LVL=0
      0100D716H   LINE      CODE     ---       #41
      0100D716H   LINE      CODE     ---       #42
LX51 LINKER/LOCATER V4.66.97.0                                                        11/04/2023  11:13:39  PAGE 153


      0100D716H   LINE      CODE     ---       #44
      0100D71BH   LINE      CODE     ---       #45
      ---         BLOCKEND  ---      ---       LVL=0

      0100D652H   BLOCK     CODE     ---       LVL=0
      00000007H   SYMBOL    DATA     BYTE      index
      0100D652H   BLOCK     CODE     NEAR LAB  LVL=1
      00000006H   SYMBOL    DATA     BYTE      i
      ---         BLOCKEND  ---      ---       LVL=1
      0100D652H   LINE      CODE     ---       #60
      0100D652H   LINE      CODE     ---       #61
      0100D652H   LINE      CODE     ---       #62
      0100D654H   LINE      CODE     ---       #63
      0100D659H   LINE      CODE     ---       #64
      0100D659H   LINE      CODE     ---       #66
      0100D65CH   LINE      CODE     ---       #67
      ---         BLOCKEND  ---      ---       LVL=0

      0100D71CH   BLOCK     CODE     ---       LVL=0
      00000006H   SYMBOL    DATA     WORD      adr
      0100D71CH   LINE      CODE     ---       #69
      0100D71CH   LINE      CODE     ---       #70
      0100D71CH   LINE      CODE     ---       #71
      ---         BLOCKEND  ---      ---       LVL=0

      0100CC66H   BLOCK     CODE     ---       LVL=0
      0200C848H   SYMBOL    XDATA    WORD      adr
      0200C84AH   SYMBOL    XDATA    BYTE      len
      0100CC71H   BLOCK     CODE     NEAR LAB  LVL=1
      0200C84BH   SYMBOL    XDATA    BYTE      i
      ---         BLOCKEND  ---      ---       LVL=1
      0100CC66H   LINE      CODE     ---       #74
      0100CC71H   LINE      CODE     ---       #75
      0100CC71H   LINE      CODE     ---       #76
      0100CC74H   LINE      CODE     ---       #77
      0100CC81H   LINE      CODE     ---       #78
      0100CC81H   LINE      CODE     ---       #79
      0100CC93H   LINE      CODE     ---       #80
      0100CC9BH   LINE      CODE     ---       #81
      ---         BLOCKEND  ---      ---       LVL=0

      0100D5C6H   BLOCK     CODE     ---       LVL=0
      0100D5C6H   LINE      CODE     ---       #83
      0100D5C6H   LINE      CODE     ---       #84
      0100D5C6H   LINE      CODE     ---       #85
      ---         BLOCKEND  ---      ---       LVL=0

      0100CB50H   BLOCK     CODE     ---       LVL=0
      0100CB50H   BLOCK     CODE     NEAR LAB  LVL=1
      0200C844H   SYMBOL    XDATA    BYTE      i
      0200C845H   SYMBOL    XDATA    WORD      temp_data
      ---         BLOCKEND  ---      ---       LVL=1
      0100CB50H   LINE      CODE     ---       #88
      0100CB50H   LINE      CODE     ---       #89
      0100CB50H   LINE      CODE     ---       #91
      0100CB53H   LINE      CODE     ---       #92
      0100CB56H   LINE      CODE     ---       #93
      0100CB62H   LINE      CODE     ---       #94
      0100CB62H   LINE      CODE     ---       #95
      0100CB6EH   LINE      CODE     ---       #96
      0100CB78H   LINE      CODE     ---       #97
      0100CB7EH   LINE      CODE     ---       #98
      0100CB86H   LINE      CODE     ---       #99
      0100CB88H   LINE      CODE     ---       #100
      ---         BLOCKEND  ---      ---       LVL=0
LX51 LINKER/LOCATER V4.66.97.0                                                        11/04/2023  11:13:39  PAGE 154



      0100D342H   BLOCK     CODE     ---       LVL=0
      0100D342H   BLOCK     CODE     NEAR LAB  LVL=1
      00000007H   SYMBOL    DATA     BYTE      i
      0200C845H   SYMBOL    XDATA    WORD      temp_data
      ---         BLOCKEND  ---      ---       LVL=1
      0100D342H   LINE      CODE     ---       #102
      0100D342H   LINE      CODE     ---       #103
      0100D342H   LINE      CODE     ---       #104
      0100D344H   LINE      CODE     ---       #105
      0100D34AH   LINE      CODE     ---       #106
      0100D350H   LINE      CODE     ---       #107
      0100D350H   LINE      CODE     ---       #109
      0100D357H   LINE      CODE     ---       #110
      0100D358H   LINE      CODE     ---       #111
      0100D35BH   LINE      CODE     ---       #112
      0100D35DH   LINE      CODE     ---       #113
      ---         BLOCKEND  ---      ---       LVL=0

      0100006EH   BLOCK     CODE     ---       LVL=0
      00000007H   SYMBOL    DATA     BYTE      index
      0100006EH   LINE      CODE     ---       #115
      0100006EH   LINE      CODE     ---       #116
      0100006EH   LINE      CODE     ---       #118
      ---         BLOCKEND  ---      ---       LVL=0

      0100D3FFH   BLOCK     CODE     ---       LVL=0
      0100D3FFH   BLOCK     CODE     NEAR LAB  LVL=1
      0200C848H   SYMBOL    XDATA    BYTE      i
      ---         BLOCKEND  ---      ---       LVL=1
      0100D3FFH   LINE      CODE     ---       #121
      0100D3FFH   LINE      CODE     ---       #122
      0100D3FFH   LINE      CODE     ---       #123
      0100D404H   LINE      CODE     ---       #124
      0100D40DH   LINE      CODE     ---       #125
      0100D40DH   LINE      CODE     ---       #126
      0100D410H   LINE      CODE     ---       #127
      0100D418H   LINE      CODE     ---       #128
      ---         BLOCKEND  ---      ---       LVL=0

      0100D55DH   BLOCK     CODE     ---       LVL=0
      0100D55DH   BLOCK     CODE     NEAR LAB  LVL=1
      00000007H   SYMBOL    DATA     BYTE      i
      ---         BLOCKEND  ---      ---       LVL=1
      0100D55DH   LINE      CODE     ---       #130
      0100D55DH   LINE      CODE     ---       #131
      0100D55DH   LINE      CODE     ---       #133
      0100D55FH   LINE      CODE     ---       #135
      0100D565H   LINE      CODE     ---       #136
      0100D565H   LINE      CODE     ---       #139
      0100D56AH   LINE      CODE     ---       #140
      0100D56BH   LINE      CODE     ---       #141
      0100D56EH   LINE      CODE     ---       #142
      0100D570H   LINE      CODE     ---       #143
      ---         BLOCKEND  ---      ---       LVL=0

      0100D6B8H   BLOCK     CODE     ---       LVL=0
      0100D6B8H   LINE      CODE     ---       #145
      0100D6B8H   LINE      CODE     ---       #146
      0100D6B8H   LINE      CODE     ---       #149
      ---         BLOCKEND  ---      ---       LVL=0

      0100D35EH   BLOCK     CODE     ---       LVL=0
      0100D35EH   LINE      CODE     ---       #152
      0100D35EH   LINE      CODE     ---       #153
LX51 LINKER/LOCATER V4.66.97.0                                                        11/04/2023  11:13:39  PAGE 155


      0100D35EH   LINE      CODE     ---       #155
      ---         BLOCKEND  ---      ---       LVL=0

      0100D6C1H   BLOCK     CODE     ---       LVL=0
      0100D6C1H   LINE      CODE     ---       #158
      0100D6C1H   LINE      CODE     ---       #159
      0100D6C1H   LINE      CODE     ---       #161
      ---         BLOCKEND  ---      ---       LVL=0

      0100D37AH   BLOCK     CODE     ---       LVL=0
      0100D37AH   LINE      CODE     ---       #164
      0100D37AH   LINE      CODE     ---       #165
      0100D37AH   LINE      CODE     ---       #167
      ---         BLOCKEND  ---      ---       LVL=0

      0100D226H   BLOCK     CODE     ---       LVL=0
      00000007H   SYMBOL    DATA     BYTE      index
      0100D226H   BLOCK     CODE     NEAR LAB  LVL=1
      0200C8A0H   SYMBOL    XDATA    WORD      temp_dat
      ---         BLOCKEND  ---      ---       LVL=1
      0100D226H   LINE      CODE     ---       #170
      0100D226H   LINE      CODE     ---       #171
      0100D226H   LINE      CODE     ---       #172
      0100D22DH   LINE      CODE     ---       #173
      0100D239H   LINE      CODE     ---       #175
      0100D245H   LINE      CODE     ---       #176
      0100D245H   LINE      CODE     ---       #177
      0100D246H   LINE      CODE     ---       #178
      0100D246H   LINE      CODE     ---       #180
      0100D246H   LINE      CODE     ---       #181
      0100D246H   LINE      CODE     ---       #182
      0100D246H   LINE      CODE     ---       #183
      ---         BLOCKEND  ---      ---       LVL=0

      0100CFEEH   BLOCK     CODE     ---       LVL=0
      0100CFEEH   BLOCK     CODE     NEAR LAB  LVL=1
      0200C89FH   SYMBOL    XDATA    BYTE      i
      ---         BLOCKEND  ---      ---       LVL=1
      0100CFEEH   LINE      CODE     ---       #185
      0100CFEEH   LINE      CODE     ---       #186
      0100CFEEH   LINE      CODE     ---       #187
      0100CFF3H   LINE      CODE     ---       #188
      0100CFFCH   LINE      CODE     ---       #189
      0100CFFCH   LINE      CODE     ---       #190
      0100D004H   LINE      CODE     ---       #191
      0100D004H   LINE      CODE     ---       #192
      0100D00AH   LINE      CODE     ---       #193
      0100D00AH   LINE      CODE     ---       #194
      0100D012H   LINE      CODE     ---       #195
      0100D014H   LINE      CODE     ---       #196
      ---         BLOCKEND  ---      ---       LVL=0

      0100D496H   BLOCK     CODE     ---       LVL=0
      00000001H   SYMBOL    DATA     ---       p
      0100D496H   LINE      CODE     ---       #198
      0100D496H   LINE      CODE     ---       #199
      0100D496H   LINE      CODE     ---       #203
      ---         BLOCKEND  ---      ---       LVL=0

      0100B0F6H   BLOCK     CODE     ---       LVL=0
      0200C848H   SYMBOL    XDATA    ---       p
      0100B0F6H   LINE      CODE     ---       #208
      0100B0FCH   LINE      CODE     ---       #209
      0100B0FCH   LINE      CODE     ---       #210
      0100B107H   LINE      CODE     ---       #211
LX51 LINKER/LOCATER V4.66.97.0                                                        11/04/2023  11:13:39  PAGE 156


      0100B119H   LINE      CODE     ---       #212
      0100B13BH   LINE      CODE     ---       #213
      ---         BLOCKEND  ---      ---       LVL=0

      0100D4AEH   BLOCK     CODE     ---       LVL=0
      0200C845H   SYMBOL    XDATA    ---       p
      0100D4AEH   LINE      CODE     ---       #215
      0100D4B4H   LINE      CODE     ---       #216
      0100D4B4H   LINE      CODE     ---       #217
      0100D4BDH   LINE      CODE     ---       #218
      ---         BLOCKEND  ---      ---       LVL=0

      0100D247H   BLOCK     CODE     ---       LVL=0
      0200C846H   SYMBOL    XDATA    ---       p
      00000005H   SYMBOL    DATA     BYTE      index
      0100D247H   LINE      CODE     ---       #222
      0100D24DH   LINE      CODE     ---       #223
      0100D24DH   LINE      CODE     ---       #226
      0100D259H   LINE      CODE     ---       #227
      ---         BLOCKEND  ---      ---       LVL=0

      0100D50BH   BLOCK     CODE     ---       LVL=0
      00000007H   SYMBOL    DATA     BYTE      index
      0100D50BH   LINE      CODE     ---       #230
      0100D50BH   LINE      CODE     ---       #231
      0100D50BH   LINE      CODE     ---       #233
      ---         BLOCKEND  ---      ---       LVL=0

      0100D419H   BLOCK     CODE     ---       LVL=0
      0100D419H   BLOCK     CODE     NEAR LAB  LVL=1
      0200C843H   SYMBOL    XDATA    BYTE      i
      ---         BLOCKEND  ---      ---       LVL=1
      0100D419H   LINE      CODE     ---       #236
      0100D419H   LINE      CODE     ---       #237
      0100D419H   LINE      CODE     ---       #238
      0100D41EH   LINE      CODE     ---       #239
      0100D427H   LINE      CODE     ---       #240
      0100D427H   LINE      CODE     ---       #241
      0100D42AH   LINE      CODE     ---       #242
      0100D432H   LINE      CODE     ---       #243
      ---         BLOCKEND  ---      ---       LVL=0

      0100C357H   BLOCK     CODE     ---       LVL=0
      0200C843H   SYMBOL    XDATA    BYTE      index
      0100C357H   LINE      CODE     ---       #245
      0100C35CH   LINE      CODE     ---       #246
      0100C35CH   LINE      CODE     ---       #248
      0100C36BH   LINE      CODE     ---       #249
      0100C393H   LINE      CODE     ---       #250
      ---         BLOCKEND  ---      ---       LVL=0

      0100A966H   BLOCK     CODE     ---       LVL=0
      0100A966H   BLOCK     CODE     NEAR LAB  LVL=1
      0200C843H   SYMBOL    XDATA    BYTE      index
      ---         BLOCKEND  ---      ---       LVL=1
      0100A966H   LINE      CODE     ---       #265
      0100A966H   LINE      CODE     ---       #266
      0100A966H   LINE      CODE     ---       #267
      0100A96BH   LINE      CODE     ---       #268
      0100A972H   LINE      CODE     ---       #269
      0100A972H   LINE      CODE     ---       #271
      0100A972H   LINE      CODE     ---       #272
      0100A985H   LINE      CODE     ---       #273
      0100A985H   LINE      CODE     ---       #275
      0100A9A8H   LINE      CODE     ---       #276
LX51 LINKER/LOCATER V4.66.97.0                                                        11/04/2023  11:13:39  PAGE 157


      0100A9B0H   LINE      CODE     ---       #277
      0100A9C9H   LINE      CODE     ---       #278
      0100A9E4H   LINE      CODE     ---       #284
      ---         BLOCKEND  ---      ---       LVL=0

      0100D0ACH   BLOCK     CODE     ---       LVL=0
      00000001H   SYMBOL    DATA     ---       p_module_scene
      0100D0ACH   LINE      CODE     ---       #286
      0100D0ACH   LINE      CODE     ---       #287
      0100D0ACH   LINE      CODE     ---       #295
      0100D0B1H   LINE      CODE     ---       #296
      0100D0C7H   LINE      CODE     ---       #297
      ---         BLOCKEND  ---      ---       LVL=0

      0100C71AH   BLOCK     CODE     ---       LVL=0
      00000001H   SYMBOL    DATA     ---       p
      0100C71AH   LINE      CODE     ---       #307
      0100C71AH   LINE      CODE     ---       #308
      0100C71AH   LINE      CODE     ---       #309
      ---         BLOCKEND  ---      ---       LVL=0

      01007ADFH   BLOCK     CODE     ---       LVL=0
      0200C846H   SYMBOL    XDATA    ---       p
      01007AE5H   BLOCK     CODE     NEAR LAB  LVL=1
      0200C849H   SYMBOL    XDATA    BYTE      i
      0200C84AH   SYMBOL    XDATA    ---       temp_tab
      ---         BLOCKEND  ---      ---       LVL=1
      01007ADFH   LINE      CODE     ---       #314
      01007AE5H   LINE      CODE     ---       #315
      01007AE5H   LINE      CODE     ---       #316
      01007AEAH   LINE      CODE     ---       #317
      01007AF7H   LINE      CODE     ---       #318
      01007B13H   LINE      CODE     ---       #319
      01007B13H   LINE      CODE     ---       #320
      01007B13H   LINE      CODE     ---       #321
      01007B13H   LINE      CODE     ---       #322
      01007B13H   LINE      CODE     ---       #323
      01007B13H   LINE      CODE     ---       #324
      01007B1DH   LINE      CODE     ---       #325
      01007B1DH   LINE      CODE     ---       #326
      01007B37H   LINE      CODE     ---       #328
      01007B3CH   LINE      CODE     ---       #329
      01007B4BH   LINE      CODE     ---       #330
      01007B55H   LINE      CODE     ---       #331
      01007B55H   LINE      CODE     ---       #332
      01007B6FH   LINE      CODE     ---       #334
      01007B74H   LINE      CODE     ---       #335
      01007B80H   LINE      CODE     ---       #337
      01007B82H   LINE      CODE     ---       #338
      01007B82H   LINE      CODE     ---       #339
      01007B8CH   LINE      CODE     ---       #340
      01007B8CH   LINE      CODE     ---       #341
      01007B9CH   LINE      CODE     ---       #342
      01007BA1H   LINE      CODE     ---       #343
      01007BACH   LINE      CODE     ---       #344
      01007BB9H   LINE      CODE     ---       #346
      01007BBBH   LINE      CODE     ---       #347
      01007BBBH   LINE      CODE     ---       #348
      01007BC5H   LINE      CODE     ---       #349
      01007BC5H   LINE      CODE     ---       #350
      01007BD5H   LINE      CODE     ---       #351
      01007BDAH   LINE      CODE     ---       #352
      01007BE5H   LINE      CODE     ---       #354
      01007BF5H   LINE      CODE     ---       #356
      01007BF5H   LINE      CODE     ---       #357
LX51 LINKER/LOCATER V4.66.97.0                                                        11/04/2023  11:13:39  PAGE 158


      01007BF5H   LINE      CODE     ---       #358
      ---         BLOCKEND  ---      ---       LVL=0

      0100A6DCH   BLOCK     CODE     ---       LVL=0
      0200C849H   SYMBOL    XDATA    ---       p
      0100A6DCH   LINE      CODE     ---       #360
      0100A6E2H   LINE      CODE     ---       #361
      0100A6E2H   LINE      CODE     ---       #362
      0100A6EFH   LINE      CODE     ---       #363
      0100A6FCH   LINE      CODE     ---       #364
      0100A70FH   LINE      CODE     ---       #365
      0100A722H   LINE      CODE     ---       #367
      0100A741H   LINE      CODE     ---       #368
      0100A741H   LINE      CODE     ---       #369
      0100A741H   LINE      CODE     ---       #371
      0100A743H   LINE      CODE     ---       #372
      0100A745H   LINE      CODE     ---       #373
      0100A745H   LINE      CODE     ---       #375
      0100A747H   LINE      CODE     ---       #376
      0100A749H   LINE      CODE     ---       #377
      0100A749H   LINE      CODE     ---       #379
      0100A74BH   LINE      CODE     ---       #380
      0100A74DH   LINE      CODE     ---       #381
      0100A74DH   LINE      CODE     ---       #383
      0100A74FH   LINE      CODE     ---       #384
      0100A751H   LINE      CODE     ---       #385
      0100A751H   LINE      CODE     ---       #387
      0100A753H   LINE      CODE     ---       #388
      0100A755H   LINE      CODE     ---       #389
      0100A755H   LINE      CODE     ---       #391
      0100A757H   LINE      CODE     ---       #392
      0100A759H   LINE      CODE     ---       #393
      0100A759H   LINE      CODE     ---       #395
      0100A760H   LINE      CODE     ---       #396
      0100A760H   LINE      CODE     ---       #397
      0100A760H   LINE      CODE     ---       #398
      0100A760H   LINE      CODE     ---       #399
      0100A760H   LINE      CODE     ---       #400
      ---         BLOCKEND  ---      ---       LVL=0

      0100BA2CH   BLOCK     CODE     ---       LVL=0
      0200C849H   SYMBOL    XDATA    ---       p
      0100BA2CH   LINE      CODE     ---       #402
      0100BA32H   LINE      CODE     ---       #403
      0100BA32H   LINE      CODE     ---       #404
      0100BA37H   LINE      CODE     ---       #405
      0100BA3FH   LINE      CODE     ---       #406
      0100BA52H   LINE      CODE     ---       #407
      0100BA65H   LINE      CODE     ---       #409
      0100BA72H   LINE      CODE     ---       #410
      0100BA72H   LINE      CODE     ---       #411
      0100BA72H   LINE      CODE     ---       #412
      0100BA74H   LINE      CODE     ---       #413
      0100BA76H   LINE      CODE     ---       #414
      0100BA76H   LINE      CODE     ---       #415
      0100BA7DH   LINE      CODE     ---       #416
      0100BA7DH   LINE      CODE     ---       #417
      0100BA7DH   LINE      CODE     ---       #418
      0100BA7DH   LINE      CODE     ---       #419
      0100BA7DH   LINE      CODE     ---       #420
      ---         BLOCKEND  ---      ---       LVL=0

      0100C760H   BLOCK     CODE     ---       LVL=0
      0200C846H   SYMBOL    XDATA    ---       p
      0100C760H   LINE      CODE     ---       #422
LX51 LINKER/LOCATER V4.66.97.0                                                        11/04/2023  11:13:39  PAGE 159


      0100C766H   LINE      CODE     ---       #423
      0100C766H   LINE      CODE     ---       #424
      0100C771H   LINE      CODE     ---       #425
      0100C771H   LINE      CODE     ---       #427
      0100C771H   LINE      CODE     ---       #428
      0100C787H   LINE      CODE     ---       #429
      0100C787H   LINE      CODE     ---       #430
      0100C787H   LINE      CODE     ---       #431
      0100C787H   LINE      CODE     ---       #432
      0100C787H   LINE      CODE     ---       #433
      0100C787H   LINE      CODE     ---       #435
      0100C78AH   LINE      CODE     ---       #436
      0100C790H   LINE      CODE     ---       #438
      0100C792H   LINE      CODE     ---       #439
      0100C792H   LINE      CODE     ---       #440
      0100C792H   LINE      CODE     ---       #442
      0100C79BH   LINE      CODE     ---       #443
      0100C7A4H   LINE      CODE     ---       #445
      0100C7A4H   LINE      CODE     ---       #446
      0100C7A4H   LINE      CODE     ---       #447
      0100C7A4H   LINE      CODE     ---       #449
      0100C7A4H   LINE      CODE     ---       #450
      0100C7A4H   LINE      CODE     ---       #451
      ---         BLOCKEND  ---      ---       LVL=0

      0100D015H   BLOCK     CODE     ---       LVL=0
      0200C841H   SYMBOL    XDATA    ---       p
      00000005H   SYMBOL    DATA     BYTE      key
      0100D015H   LINE      CODE     ---       #453
      0100D01BH   LINE      CODE     ---       #454
      0100D01BH   LINE      CODE     ---       #455
      0100D033H   LINE      CODE     ---       #457
      ---         BLOCKEND  ---      ---       LVL=0

      01009D9CH   BLOCK     CODE     ---       LVL=0
      0200C83AH   SYMBOL    XDATA    ---       p_scenc_infor
      01009DA2H   BLOCK     CODE     NEAR LAB  LVL=1
      0200C83DH   SYMBOL    XDATA    WORD      key_nb
      0200C83FH   SYMBOL    XDATA    WORD      size_cal
      ---         BLOCKEND  ---      ---       LVL=1
      01009D9CH   LINE      CODE     ---       #460
      01009DA2H   LINE      CODE     ---       #461
      01009DA2H   LINE      CODE     ---       #462
      01009DA6H   LINE      CODE     ---       #463
      01009DA9H   LINE      CODE     ---       #481
      01009DAFH   LINE      CODE     ---       #482
      01009DE1H   LINE      CODE     ---       #483
      01009DE1H   LINE      CODE     ---       #487
      01009DE1H   LINE      CODE     ---       #491
      01009DE1H   LINE      CODE     ---       #493
      01009DE1H   LINE      CODE     ---       #494
      01009DE1H   LINE      CODE     ---       #495
      01009DE3H   LINE      CODE     ---       #496
      01009E15H   LINE      CODE     ---       #497
      01009E15H   LINE      CODE     ---       #499
      01009E1EH   LINE      CODE     ---       #501
      01009E28H   LINE      CODE     ---       #504
      01009E31H   LINE      CODE     ---       #505
      01009E37H   LINE      CODE     ---       #506
      01009E3EH   LINE      CODE     ---       #507
      01009E3EH   LINE      CODE     ---       #508
      ---         BLOCKEND  ---      ---       LVL=0

      0100425EH   BLOCK     CODE     ---       LVL=0
      0200C848H   SYMBOL    XDATA    ---       p
LX51 LINKER/LOCATER V4.66.97.0                                                        11/04/2023  11:13:39  PAGE 160


      0200C84BH   SYMBOL    XDATA    ---       p_scenc_infor
      0200C84EH   SYMBOL    XDATA    ---       p_module_scene
      0200C851H   SYMBOL    XDATA    WORD      index
      0200C853H   SYMBOL    XDATA    BYTE      edit_sta
      01004264H   BLOCK     CODE     NEAR LAB  LVL=1
      0200C854H   SYMBOL    XDATA    ---       temp_tab
      ---         BLOCKEND  ---      ---       LVL=1
      0100425EH   LINE      CODE     ---       #510
      01004264H   LINE      CODE     ---       #511
      01004264H   LINE      CODE     ---       #514
      01004271H   LINE      CODE     ---       #515
      0100427DH   LINE      CODE     ---       #516
      0100427DH   LINE      CODE     ---       #517
      01004288H   LINE      CODE     ---       #518
      0100428AH   LINE      CODE     ---       #519
      01004299H   LINE      CODE     ---       #520
      01004299H   LINE      CODE     ---       #521
      010042A7H   LINE      CODE     ---       #522
      010042A7H   LINE      CODE     ---       #524
      010042A7H   LINE      CODE     ---       #526
      010042A7H   LINE      CODE     ---       #527
      010042B3H   LINE      CODE     ---       #528
      010042BCH   LINE      CODE     ---       #529
      010042C8H   LINE      CODE     ---       #530
      010042D4H   LINE      CODE     ---       #531
      010042E0H   LINE      CODE     ---       #532
      010042E5H   LINE      CODE     ---       #533
      010042FCH   LINE      CODE     ---       #534
      01004305H   LINE      CODE     ---       #536
      01004327H   LINE      CODE     ---       #537
      01004327H   LINE      CODE     ---       #538
      01004327H   LINE      CODE     ---       #539
      01004339H   LINE      CODE     ---       #541
      0100433FH   LINE      CODE     ---       #542
      0100433FH   LINE      CODE     ---       #543
      01004345H   LINE      CODE     ---       #544
      01004347H   LINE      CODE     ---       #545
      01004347H   LINE      CODE     ---       #546
      01004347H   LINE      CODE     ---       #548
      0100434DH   LINE      CODE     ---       #549
      0100434DH   LINE      CODE     ---       #550
      01004356H   LINE      CODE     ---       #551
      01004358H   LINE      CODE     ---       #552
      01004358H   LINE      CODE     ---       #553
      01004358H   LINE      CODE     ---       #555
      0100436AH   LINE      CODE     ---       #556
      0100437CH   LINE      CODE     ---       #557
      01004394H   LINE      CODE     ---       #558
      01004397H   LINE      CODE     ---       #559
      01004397H   LINE      CODE     ---       #560
      01004397H   LINE      CODE     ---       #562
      010043ABH   LINE      CODE     ---       #564
      010043ABH   LINE      CODE     ---       #565
      010043C2H   LINE      CODE     ---       #567
      010043C4H   LINE      CODE     ---       #568
      010043C4H   LINE      CODE     ---       #569
      010043C4H   LINE      CODE     ---       #571
      010043D6H   LINE      CODE     ---       #573
      010043D6H   LINE      CODE     ---       #574
      010043DFH   LINE      CODE     ---       #576
      010043E1H   LINE      CODE     ---       #577
      010043E1H   LINE      CODE     ---       #578
      010043E1H   LINE      CODE     ---       #580
      010043EAH   LINE      CODE     ---       #582
      010043EAH   LINE      CODE     ---       #583
LX51 LINKER/LOCATER V4.66.97.0                                                        11/04/2023  11:13:39  PAGE 161


      010043FCH   LINE      CODE     ---       #585
      010043FCH   LINE      CODE     ---       #586
      010043FCH   LINE      CODE     ---       #588
      0100440BH   LINE      CODE     ---       #590
      0100440BH   LINE      CODE     ---       #591
      01004423H   LINE      CODE     ---       #593
      01004423H   LINE      CODE     ---       #594
      01004423H   LINE      CODE     ---       #596
      0100442CH   LINE      CODE     ---       #597
      ---         BLOCKEND  ---      ---       LVL=0

      0100724DH   BLOCK     CODE     ---       LVL=0
      0200C848H   SYMBOL    XDATA    ---       p
      0200C84BH   SYMBOL    XDATA    ---       p_scenc_infor
      0200C84EH   SYMBOL    XDATA    ---       p_module_scene
      0200C851H   SYMBOL    XDATA    WORD      index
      0200C853H   SYMBOL    XDATA    BYTE      edit_sta
      01007253H   BLOCK     CODE     NEAR LAB  LVL=1
      0200C854H   SYMBOL    XDATA    WORD      scene_dim_enable
      0200C856H   SYMBOL    XDATA    WORD      scene_dim_enable_adr
      0200C858H   SYMBOL    XDATA    WORD      scene_dim_gear_adr
      0200C85AH   SYMBOL    XDATA    ---       temp_tab
      0200C862H   SYMBOL    XDATA    ---       dim_tab
      ---         BLOCKEND  ---      ---       LVL=1
      0100724DH   LINE      CODE     ---       #600
      01007253H   LINE      CODE     ---       #601
      01007253H   LINE      CODE     ---       #602
      01007256H   LINE      CODE     ---       #603
      0100725BH   LINE      CODE     ---       #604
      01007273H   LINE      CODE     ---       #605
      01007280H   LINE      CODE     ---       #606
      01007280H   LINE      CODE     ---       #607
      0100728AH   LINE      CODE     ---       #608
      01007292H   LINE      CODE     ---       #609
      01007294H   LINE      CODE     ---       #610
      0100729DH   LINE      CODE     ---       #611
      0100729DH   LINE      CODE     ---       #612
      010072A7H   LINE      CODE     ---       #613
      010072AFH   LINE      CODE     ---       #614
      010072AFH   LINE      CODE     ---       #616
      010072AFH   LINE      CODE     ---       #618
      010072AFH   LINE      CODE     ---       #619
      010072BBH   LINE      CODE     ---       #620
      010072C7H   LINE      CODE     ---       #621
      010072D3H   LINE      CODE     ---       #622
      010072DFH   LINE      CODE     ---       #623
      010072E4H   LINE      CODE     ---       #624
      010072FBH   LINE      CODE     ---       #625
      01007304H   LINE      CODE     ---       #626
      01007313H   LINE      CODE     ---       #627
      01007347H   LINE      CODE     ---       #629
      01007356H   LINE      CODE     ---       #630
      01007368H   LINE      CODE     ---       #631
      01007377H   LINE      CODE     ---       #632
      01007386H   LINE      CODE     ---       #633
      01007395H   LINE      CODE     ---       #634
      010073A1H   LINE      CODE     ---       #635
      010073AEH   LINE      CODE     ---       #636
      ---         BLOCKEND  ---      ---       LVL=0

      01009EE1H   BLOCK     CODE     ---       LVL=0
      0200C89FH   SYMBOL    XDATA    ---       p_scenc_infor
      01009EE1H   LINE      CODE     ---       #638
      01009EE7H   LINE      CODE     ---       #639
      01009EE7H   LINE      CODE     ---       #640
LX51 LINKER/LOCATER V4.66.97.0                                                        11/04/2023  11:13:39  PAGE 162


      01009EFEH   LINE      CODE     ---       #641
      01009EFEH   LINE      CODE     ---       #642
      01009F18H   LINE      CODE     ---       #644
      01009F26H   LINE      CODE     ---       #645
      01009F37H   LINE      CODE     ---       #647
      01009F51H   LINE      CODE     ---       #648
      01009F72H   LINE      CODE     ---       #649
      01009F72H   LINE      CODE     ---       #651
      01009F72H   LINE      CODE     ---       #653
      01009F72H   LINE      CODE     ---       #654
      ---         BLOCKEND  ---      ---       LVL=0

      010093EFH   BLOCK     CODE     ---       LVL=0
      0200C89FH   SYMBOL    XDATA    ---       p_scenc_infor
      010093EFH   LINE      CODE     ---       #656
      010093F5H   LINE      CODE     ---       #657
      010093F5H   LINE      CODE     ---       #658
      01009408H   LINE      CODE     ---       #659
      01009408H   LINE      CODE     ---       #660
      01009421H   LINE      CODE     ---       #661
      01009431H   LINE      CODE     ---       #662
      0100943CH   LINE      CODE     ---       #663
      01009447H   LINE      CODE     ---       #664
      01009457H   LINE      CODE     ---       #665
      0100946AH   LINE      CODE     ---       #666
      0100947AH   LINE      CODE     ---       #667
      01009492H   LINE      CODE     ---       #668
      01009492H   LINE      CODE     ---       #670
      01009492H   LINE      CODE     ---       #672
      01009492H   LINE      CODE     ---       #673
      ---         BLOCKEND  ---      ---       LVL=0

      01009A44H   BLOCK     CODE     ---       LVL=0
      0200C83AH   SYMBOL    XDATA    ---       p
      01009A44H   LINE      CODE     ---       #674
      01009A4AH   LINE      CODE     ---       #675
      01009A4AH   LINE      CODE     ---       #678
      01009A57H   LINE      CODE     ---       #679
      01009A57H   LINE      CODE     ---       #681
      01009A5CH   LINE      CODE     ---       #682
      01009A5CH   LINE      CODE     ---       #683
      01009A65H   LINE      CODE     ---       #685
      01009A6AH   LINE      CODE     ---       #686
      01009A6FH   LINE      CODE     ---       #687
      01009A79H   LINE      CODE     ---       #689
      01009A79H   LINE      CODE     ---       #690
      01009A7FH   LINE      CODE     ---       #691
      01009A7FH   LINE      CODE     ---       #692
      01009A87H   LINE      CODE     ---       #693
      01009A87H   LINE      CODE     ---       #694
      01009A91H   LINE      CODE     ---       #695
      01009A91H   LINE      CODE     ---       #696
      01009A97H   LINE      CODE     ---       #697
      01009AA4H   LINE      CODE     ---       #698
      01009AA4H   LINE      CODE     ---       #699
      01009AACH   LINE      CODE     ---       #700
      01009AB9H   LINE      CODE     ---       #701
      01009ABFH   LINE      CODE     ---       #702
      01009AC5H   LINE      CODE     ---       #703
      01009AC5H   LINE      CODE     ---       #704
      01009AC7H   LINE      CODE     ---       #706
      01009AC7H   LINE      CODE     ---       #707
      01009ACDH   LINE      CODE     ---       #708
      01009ACDH   LINE      CODE     ---       #709
      01009ACDH   LINE      CODE     ---       #710
LX51 LINKER/LOCATER V4.66.97.0                                                        11/04/2023  11:13:39  PAGE 163


      01009ACDH   LINE      CODE     ---       #711
      01009AD7H   LINE      CODE     ---       #712
      01009AD7H   LINE      CODE     ---       #713
      01009AD9H   LINE      CODE     ---       #714
      01009ADDH   LINE      CODE     ---       #715
      01009AE1H   LINE      CODE     ---       #716
      01009AEBH   LINE      CODE     ---       #717
      01009AF0H   LINE      CODE     ---       #719
      01009AF3H   LINE      CODE     ---       #720
      01009AF3H   LINE      CODE     ---       #721
      ---         BLOCKEND  ---      ---       LVL=0

      01008F76H   BLOCK     CODE     ---       LVL=0
      0200C83AH   SYMBOL    XDATA    ---       p
      01008F7CH   BLOCK     CODE     NEAR LAB  LVL=1
      0200BFE0H   SYMBOL    XDATA    BYTE      i
      0200C83DH   SYMBOL    XDATA    BYTE      j
      0200C83EH   SYMBOL    XDATA    BYTE      index
      0200C83FH   SYMBOL    XDATA    ---       scenc_infor
      ---         BLOCKEND  ---      ---       LVL=1
      01008F76H   LINE      CODE     ---       #723
      01008F7CH   LINE      CODE     ---       #724
      01008F7CH   LINE      CODE     ---       #726
      01008F81H   LINE      CODE     ---       #727
      01008F83H   LINE      CODE     ---       #728
      01008F90H   LINE      CODE     ---       #740
      01008FA3H   LINE      CODE     ---       #741
      01008FA3H   LINE      CODE     ---       #743
      01008FA9H   LINE      CODE     ---       #745
      01008FA9H   LINE      CODE     ---       #746
      01008FAFH   LINE      CODE     ---       #747
      01008FAFH   LINE      CODE     ---       #748
      01008FB6H   LINE      CODE     ---       #749
      01008FB6H   LINE      CODE     ---       #750
      01008FBAH   LINE      CODE     ---       #751
      01008FBFH   LINE      CODE     ---       #752
      01008FC9H   LINE      CODE     ---       #754
      01008FC9H   LINE      CODE     ---       #755
      01008FCFH   LINE      CODE     ---       #756
      01008FD3H   LINE      CODE     ---       #757
      01008FD7H   LINE      CODE     ---       #758
      01008FDBH   LINE      CODE     ---       #759
      01008FDBH   LINE      CODE     ---       #781
      01008FEDH   LINE      CODE     ---       #782
      01008FEDH   LINE      CODE     ---       #783
      01008FF0H   LINE      CODE     ---       #784
      01008FF6H   LINE      CODE     ---       #785
      01008FFCH   LINE      CODE     ---       #786
      01009005H   LINE      CODE     ---       #787
      0100900BH   LINE      CODE     ---       #788
      0100900BH   LINE      CODE     ---       #789
      01009018H   LINE      CODE     ---       #790
      01009018H   LINE      CODE     ---       #793
      0100901AH   LINE      CODE     ---       #794
      0100901EH   LINE      CODE     ---       #798
      01009028H   LINE      CODE     ---       #800
      01009031H   LINE      CODE     ---       #803
      01009036H   LINE      CODE     ---       #804
      01009036H   LINE      CODE     ---       #805
      ---         BLOCKEND  ---      ---       LVL=0

      0100A7E5H   BLOCK     CODE     ---       LVL=0
      0100A7E5H   BLOCK     CODE     NEAR LAB  LVL=1
      0200BFE1H   SYMBOL    XDATA    BYTE      i
      ---         BLOCKEND  ---      ---       LVL=1
LX51 LINKER/LOCATER V4.66.97.0                                                        11/04/2023  11:13:39  PAGE 164


      0100A7E5H   LINE      CODE     ---       #807
      0100A7E5H   LINE      CODE     ---       #808
      0100A7E5H   LINE      CODE     ---       #810
      0100A7F7H   LINE      CODE     ---       #811
      0100A7F7H   LINE      CODE     ---       #814
      0100A812H   LINE      CODE     ---       #815
      0100A812H   LINE      CODE     ---       #816
      0100A815H   LINE      CODE     ---       #817
      0100A81EH   LINE      CODE     ---       #818
      0100A827H   LINE      CODE     ---       #819
      0100A830H   LINE      CODE     ---       #820
      0100A830H   LINE      CODE     ---       #821
      0100A832H   LINE      CODE     ---       #822
      0100A838H   LINE      CODE     ---       #823
      0100A838H   LINE      CODE     ---       #827
      0100A838H   LINE      CODE     ---       #828
      0100A838H   LINE      CODE     ---       #829
      0100A845H   LINE      CODE     ---       #830
      0100A845H   LINE      CODE     ---       #832
      0100A848H   LINE      CODE     ---       #833
      0100A84DH   LINE      CODE     ---       #834
      0100A851H   LINE      CODE     ---       #835
      0100A857H   LINE      CODE     ---       #836
      0100A85BH   LINE      CODE     ---       #837
      0100A85EH   LINE      CODE     ---       #838
      0100A861H   LINE      CODE     ---       #839
      0100A866H   LINE      CODE     ---       #841
      0100A866H   LINE      CODE     ---       #842
      ---         BLOCKEND  ---      ---       LVL=0

      01004B72H   BLOCK     CODE     ---       LVL=0
      0200C848H   SYMBOL    XDATA    ---       p_scenc_infor
      01004B78H   BLOCK     CODE     NEAR LAB  LVL=1
      0200C84BH   SYMBOL    XDATA    ---       mod_infom_tab
      0200C8D8H   SYMBOL    XDATA    ---       module_name_1
      0200C8E9H   SYMBOL    XDATA    ---       led_on_tb
      0200C91AH   SYMBOL    XDATA    ---       led_off_tb
      0200C94BH   SYMBOL    XDATA    WORD      on_sta
      0200C94DH   SYMBOL    XDATA    WORD      off_sta
      0200C94FH   SYMBOL    XDATA    BYTE      i
      0200C950H   SYMBOL    XDATA    BYTE      j
      0200C951H   SYMBOL    XDATA    BYTE      k
      0200C952H   SYMBOL    XDATA    BYTE      l
      0200C953H   SYMBOL    XDATA    ---       dim_duty_tb
      0200C97BH   SYMBOL    XDATA    ---       dim_duty_str
      0200C985H   SYMBOL    XDATA    BYTE      str_len_cal
      0200C986H   SYMBOL    XDATA    BYTE      str_adr
      0200C987H   SYMBOL    XDATA    ---       channel
      0200C9B7H   SYMBOL    XDATA    ---       module_read
      ---         BLOCKEND  ---      ---       LVL=1
      01004B72H   LINE      CODE     ---       #844
      01004B78H   LINE      CODE     ---       #845
      01004B78H   LINE      CODE     ---       #846
      01004B85H   LINE      CODE     ---       #847
      01004B92H   LINE      CODE     ---       #848
      01004B9DH   LINE      CODE     ---       #849
      01004BA8H   LINE      CODE     ---       #850
      01004BACH   LINE      CODE     ---       #851
      01004BB2H   LINE      CODE     ---       #852
      01004BBFH   LINE      CODE     ---       #853
      01004BD2H   LINE      CODE     ---       #854
      01004BD7H   LINE      CODE     ---       #855
      01004BD9H   LINE      CODE     ---       #856
      01004BE6H   LINE      CODE     ---       #857
      01004BF9H   LINE      CODE     ---       #858
LX51 LINKER/LOCATER V4.66.97.0                                                        11/04/2023  11:13:39  PAGE 165


      01004C13H   LINE      CODE     ---       #859
      01004C13H   LINE      CODE     ---       #860
      01004C2DH   LINE      CODE     ---       #862
      01004C45H   LINE      CODE     ---       #864
      01004C51H   LINE      CODE     ---       #865
      01004C51H   LINE      CODE     ---       #866
      01004C70H   LINE      CODE     ---       #867
      01004C70H   LINE      CODE     ---       #868
      01004C93H   LINE      CODE     ---       #869
      01004C99H   LINE      CODE     ---       #870
      01004C99H   LINE      CODE     ---       #871
      01004C9EH   LINE      CODE     ---       #872
      01004CAFH   LINE      CODE     ---       #873
      01004CAFH   LINE      CODE     ---       #874
      01004CCEH   LINE      CODE     ---       #875
      01004CCEH   LINE      CODE     ---       #876
      01004CF1H   LINE      CODE     ---       #877
      01004CF7H   LINE      CODE     ---       #878
      01004CF7H   LINE      CODE     ---       #879
      01004CFCH   LINE      CODE     ---       #883
      01004CFCH   LINE      CODE     ---       #885
      01004CFCH   LINE      CODE     ---       #886
      01004D0CH   LINE      CODE     ---       #887
      01004D0CH   LINE      CODE     ---       #888
      01004D40H   LINE      CODE     ---       #889
      01004D40H   LINE      CODE     ---       #891
      01004D79H   LINE      CODE     ---       #893
      01004D87H   LINE      CODE     ---       #895
      01004D9CH   LINE      CODE     ---       #896
      01004DA3H   LINE      CODE     ---       #898
      01004DC5H   LINE      CODE     ---       #899
      01004DCEH   LINE      CODE     ---       #900
      01004DD4H   LINE      CODE     ---       #901
      01004DD4H   LINE      CODE     ---       #902
      01004DDAH   LINE      CODE     ---       #905
      01004DDAH   LINE      CODE     ---       #908
      01004DEDH   LINE      CODE     ---       #910
      01004E00H   LINE      CODE     ---       #911
      01004E1FH   LINE      CODE     ---       #923
      01004E33H   LINE      CODE     ---       #924
      01004E4DH   LINE      CODE     ---       #925
      01004E61H   LINE      CODE     ---       #926
      01004E75H   LINE      CODE     ---       #927
      01004E89H   LINE      CODE     ---       #928
      01004E9BH   LINE      CODE     ---       #929
      01004EA5H   LINE      CODE     ---       #930
      01004EB9H   LINE      CODE     ---       #932
      01004ECFH   LINE      CODE     ---       #936
      ---         BLOCKEND  ---      ---       LVL=0

      01005D5FH   BLOCK     CODE     ---       LVL=0
      0200C83AH   SYMBOL    XDATA    ---       p
      0200C83DH   SYMBOL    XDATA    ---       p_scenc_infor
      0200C840H   SYMBOL    XDATA    ---       p_module_scene
      01005D65H   BLOCK     CODE     NEAR LAB  LVL=1
      0200C843H   SYMBOL    XDATA    WORD      key_nb
      0200C845H   SYMBOL    XDATA    BYTE      i
      0200C846H   SYMBOL    XDATA    WORD      j
      ---         BLOCKEND  ---      ---       LVL=1
      01005D5FH   LINE      CODE     ---       #940
      01005D65H   LINE      CODE     ---       #941
      01005D65H   LINE      CODE     ---       #942
      01005D68H   LINE      CODE     ---       #943
      01005D68H   LINE      CODE     ---       #944
      01005D6BH   LINE      CODE     ---       #946
LX51 LINKER/LOCATER V4.66.97.0                                                        11/04/2023  11:13:39  PAGE 166


      01005D71H   LINE      CODE     ---       #947
      01005D8AH   LINE      CODE     ---       #948
      01005D8AH   LINE      CODE     ---       #951
      01005D9AH   LINE      CODE     ---       #954
      01005DA6H   LINE      CODE     ---       #956
      01005DA6H   LINE      CODE     ---       #957
      01005DA6H   LINE      CODE     ---       #958
      01005DA9H   LINE      CODE     ---       #959
      01005DACH   LINE      CODE     ---       #969
      01005DC5H   LINE      CODE     ---       #970
      01005DEDH   LINE      CODE     ---       #971
      01005DF3H   LINE      CODE     ---       #973
      01005DFAH   LINE      CODE     ---       #974
      01005E0BH   LINE      CODE     ---       #975
      01005E0BH   LINE      CODE     ---       #976
      01005E0EH   LINE      CODE     ---       #977
      01005E0EH   LINE      CODE     ---       #978
      01005E11H   LINE      CODE     ---       #980
      01005E11H   LINE      CODE     ---       #981
      01005E14H   LINE      CODE     ---       #982
      01005E16H   LINE      CODE     ---       #983
      01005E16H   LINE      CODE     ---       #986
      01005E19H   LINE      CODE     ---       #987
      01005E2CH   LINE      CODE     ---       #988
      01005E2CH   LINE      CODE     ---       #995
      01005E32H   LINE      CODE     ---       #996
      01005E36H   LINE      CODE     ---       #997
      01005E36H   LINE      CODE     ---       #999
      01005E39H   LINE      CODE     ---       #1000
      01005E4CH   LINE      CODE     ---       #1001
      01005E4CH   LINE      CODE     ---       #1007
      01005E65H   LINE      CODE     ---       #1008
      01005E8DH   LINE      CODE     ---       #1009
      01005E93H   LINE      CODE     ---       #1011
      01005E93H   LINE      CODE     ---       #1012
      01005E93H   LINE      CODE     ---       #1013
      01005E96H   LINE      CODE     ---       #1014
      01005E99H   LINE      CODE     ---       #1016
      01005EA0H   LINE      CODE     ---       #1017
      01005EB1H   LINE      CODE     ---       #1018
      01005EB1H   LINE      CODE     ---       #1019
      01005EB4H   LINE      CODE     ---       #1020
      01005EB4H   LINE      CODE     ---       #1021
      01005EB6H   LINE      CODE     ---       #1023
      01005EB6H   LINE      CODE     ---       #1024
      01005EB9H   LINE      CODE     ---       #1025
      01005EBBH   LINE      CODE     ---       #1026
      01005EBBH   LINE      CODE     ---       #1029
      01005EBDH   LINE      CODE     ---       #1030
      01005ED0H   LINE      CODE     ---       #1031
      01005ED0H   LINE      CODE     ---       #1046
      01005ED6H   LINE      CODE     ---       #1047
      01005EDBH   LINE      CODE     ---       #1049
      01005EE2H   LINE      CODE     ---       #1053
      01005EECH   LINE      CODE     ---       #1054
      01005EECH   LINE      CODE     ---       #1055
      ---         BLOCKEND  ---      ---       LVL=0

      0100C027H   BLOCK     CODE     ---       LVL=0
      0200C840H   SYMBOL    XDATA    ---       p_module_scene
      0100C02DH   BLOCK     CODE     NEAR LAB  LVL=1
      0200C843H   SYMBOL    XDATA    BYTE      index
      ---         BLOCKEND  ---      ---       LVL=1
      0100C027H   LINE      CODE     ---       #1057
      0100C02DH   LINE      CODE     ---       #1058
LX51 LINKER/LOCATER V4.66.97.0                                                        11/04/2023  11:13:39  PAGE 167


      0100C02DH   LINE      CODE     ---       #1059
      0100C032H   LINE      CODE     ---       #1060
      0100C03AH   LINE      CODE     ---       #1061
      0100C03DH   LINE      CODE     ---       #1062
      0100C03DH   LINE      CODE     ---       #1063
      0100C046H   LINE      CODE     ---       #1064
      0100C04BH   LINE      CODE     ---       #1066
      0100C04BH   LINE      CODE     ---       #1067
      0100C052H   LINE      CODE     ---       #1068
      0100C05EH   LINE      CODE     ---       #1070
      0100C061H   LINE      CODE     ---       #1071
      0100C064H   LINE      CODE     ---       #1072
      0100C067H   LINE      CODE     ---       #1073
      0100C06DH   LINE      CODE     ---       #1074
      0100C078H   LINE      CODE     ---       #1075
      0100C07BH   LINE      CODE     ---       #1077
      ---         BLOCKEND  ---      ---       LVL=0

      010074E8H   BLOCK     CODE     ---       LVL=0
      0200C840H   SYMBOL    XDATA    ---       p_module_scene
      010074EEH   BLOCK     CODE     NEAR LAB  LVL=1
      0200C843H   SYMBOL    XDATA    BYTE      index
      0200C844H   SYMBOL    XDATA    BYTE      i
      0200C845H   SYMBOL    XDATA    BYTE      j
      ---         BLOCKEND  ---      ---       LVL=1
      010074E8H   LINE      CODE     ---       #1079
      010074EEH   LINE      CODE     ---       #1080
      010074EEH   LINE      CODE     ---       #1082
      010074F1H   LINE      CODE     ---       #1083
      010074F4H   LINE      CODE     ---       #1085
      010074FDH   LINE      CODE     ---       #1087
      0100750AH   LINE      CODE     ---       #1088
      01007518H   LINE      CODE     ---       #1089
      01007518H   LINE      CODE     ---       #1091
      01007518H   LINE      CODE     ---       #1093
      0100751FH   LINE      CODE     ---       #1095
      0100752DH   LINE      CODE     ---       #1097
      0100753AH   LINE      CODE     ---       #1098
      01007547H   LINE      CODE     ---       #1099
      0100755AH   LINE      CODE     ---       #1100
      01007567H   LINE      CODE     ---       #1101
      01007579H   LINE      CODE     ---       #1102
      01007579H   LINE      CODE     ---       #1103
      0100758AH   LINE      CODE     ---       #1104
      0100758AH   LINE      CODE     ---       #1105
      010075AFH   LINE      CODE     ---       #1106
      010075AFH   LINE      CODE     ---       #1107
      010075C0H   LINE      CODE     ---       #1108
      010075C2H   LINE      CODE     ---       #1110
      010075C2H   LINE      CODE     ---       #1111
      010075D7H   LINE      CODE     ---       #1112
      010075D7H   LINE      CODE     ---       #1113
      010075DFH   LINE      CODE     ---       #1114
      010075E7H   LINE      CODE     ---       #1116
      010075F4H   LINE      CODE     ---       #1117
      010075F4H   LINE      CODE     ---       #1118
      010075FEH   LINE      CODE     ---       #1119
      01007606H   LINE      CODE     ---       #1121
      0100760BH   LINE      CODE     ---       #1122
      01007613H   LINE      CODE     ---       #1123
      0100761EH   LINE      CODE     ---       #1125
      ---         BLOCKEND  ---      ---       LVL=0

      0100CCD2H   BLOCK     CODE     ---       LVL=0
      0200C840H   SYMBOL    XDATA    ---       p_module_scene
LX51 LINKER/LOCATER V4.66.97.0                                                        11/04/2023  11:13:39  PAGE 168


      0100CCD2H   LINE      CODE     ---       #1127
      0100CCD8H   LINE      CODE     ---       #1128
      0100CCD8H   LINE      CODE     ---       #1130
      0100CCDBH   LINE      CODE     ---       #1131
      0100CCDEH   LINE      CODE     ---       #1132
      0100CCE7H   LINE      CODE     ---       #1133
      0100CCEAH   LINE      CODE     ---       #1134
      0100CCF3H   LINE      CODE     ---       #1135
      0100CCF6H   LINE      CODE     ---       #1136
      0100CCFCH   LINE      CODE     ---       #1137
      ---         BLOCKEND  ---      ---       LVL=0

      0100C8B1H   BLOCK     CODE     ---       LVL=0
      0200C840H   SYMBOL    XDATA    ---       p_module_scene
      0100C8B1H   LINE      CODE     ---       #1140
      0100C8B7H   LINE      CODE     ---       #1141
      0100C8B7H   LINE      CODE     ---       #1142
      0100C8C2H   LINE      CODE     ---       #1143
      0100C8CDH   LINE      CODE     ---       #1144
      0100C8D6H   LINE      CODE     ---       #1145
      0100C8D9H   LINE      CODE     ---       #1146
      0100C8E8H   LINE      CODE     ---       #1149
      ---         BLOCKEND  ---      ---       LVL=0

      01008EB2H   BLOCK     CODE     ---       LVL=0
      0200C83AH   SYMBOL    XDATA    ---       p_module_scene
      01008EB8H   BLOCK     CODE     NEAR LAB  LVL=1
      0200C83DH   SYMBOL    XDATA    WORD      key_nb
      0200C83FH   SYMBOL    XDATA    BYTE      edit_sta
      ---         BLOCKEND  ---      ---       LVL=1
      01008EB2H   LINE      CODE     ---       #1152
      01008EB8H   LINE      CODE     ---       #1153
      01008EB8H   LINE      CODE     ---       #1154
      01008EBFH   LINE      CODE     ---       #1155
      01008EC1H   LINE      CODE     ---       #1157
      01008EC4H   LINE      CODE     ---       #1158
      01008ECCH   LINE      CODE     ---       #1159
      01008ECCH   LINE      CODE     ---       #1160
      01008ED8H   LINE      CODE     ---       #1161
      01008ED8H   LINE      CODE     ---       #1162
      01008ED8H   LINE      CODE     ---       #1163
      01008EDEH   LINE      CODE     ---       #1165
      01008EE0H   LINE      CODE     ---       #1166
      01008EE0H   LINE      CODE     ---       #1169
      01008EE6H   LINE      CODE     ---       #1170
      01008EE6H   LINE      CODE     ---       #1171
      01008EE6H   LINE      CODE     ---       #1172
      01008EECH   LINE      CODE     ---       #1173
      01008EECH   LINE      CODE     ---       #1174
      01008EF1H   LINE      CODE     ---       #1175
      01008EFDH   LINE      CODE     ---       #1176
      01008EFDH   LINE      CODE     ---       #1177
      01008F05H   LINE      CODE     ---       #1178
      01008F0AH   LINE      CODE     ---       #1180
      01008F10H   LINE      CODE     ---       #1181
      01008F19H   LINE      CODE     ---       #1185
      01008F19H   LINE      CODE     ---       #1186
      01008F1FH   LINE      CODE     ---       #1187
      01008F2BH   LINE      CODE     ---       #1188
      01008F2BH   LINE      CODE     ---       #1189
      01008F31H   LINE      CODE     ---       #1191
      01008F3AH   LINE      CODE     ---       #1192
      01008F45H   LINE      CODE     ---       #1193
      01008F45H   LINE      CODE     ---       #1195
      01008F45H   LINE      CODE     ---       #1196
LX51 LINKER/LOCATER V4.66.97.0                                                        11/04/2023  11:13:39  PAGE 169


      01008F4DH   LINE      CODE     ---       #1198
      01008F52H   LINE      CODE     ---       #1199
      01008F5FH   LINE      CODE     ---       #1200
      01008F65H   LINE      CODE     ---       #1201
      01008F6EH   LINE      CODE     ---       #1204
      01008F6EH   LINE      CODE     ---       #1205
      ---         BLOCKEND  ---      ---       LVL=0

      0100B15DH   BLOCK     CODE     ---       LVL=0
      0200C842H   SYMBOL    XDATA    ---       p_module_scene
      0100B15DH   LINE      CODE     ---       #1208
      0100B163H   LINE      CODE     ---       #1209
      0100B163H   LINE      CODE     ---       #1210
      0100B16AH   LINE      CODE     ---       #1211
      0100B16AH   LINE      CODE     ---       #1213
      0100B16AH   LINE      CODE     ---       #1214
      0100B16DH   LINE      CODE     ---       #1215
      0100B173H   LINE      CODE     ---       #1216
      0100B177H   LINE      CODE     ---       #1217
      0100B180H   LINE      CODE     ---       #1218
      0100B189H   LINE      CODE     ---       #1219
      0100B192H   LINE      CODE     ---       #1220
      0100B1A4H   LINE      CODE     ---       #1221
      0100B1A4H   LINE      CODE     ---       #1223
      0100B1B4H   LINE      CODE     ---       #1224
      0100B1B4H   LINE      CODE     ---       #1225
      0100B1B6H   LINE      CODE     ---       #1227
      0100B1B6H   LINE      CODE     ---       #1229
      0100B1BCH   LINE      CODE     ---       #1230
      0100B1C3H   LINE      CODE     ---       #1231
      0100B1C3H   LINE      CODE     ---       #1233
      ---         BLOCKEND  ---      ---       LVL=0

      0100CE99H   BLOCK     CODE     ---       LVL=0
      0200C842H   SYMBOL    XDATA    ---       p_module_scene
      0200C845H   SYMBOL    XDATA    ---       p_scenc_infor
      0100CE99H   LINE      CODE     ---       #1235
      0100CE9CH   LINE      CODE     ---       #1236
      0100CE9CH   LINE      CODE     ---       #1237
      0100CE9FH   LINE      CODE     ---       #1238
      0100CEA2H   LINE      CODE     ---       #1239
      0100CEA8H   LINE      CODE     ---       #1240
      0100CEB4H   LINE      CODE     ---       #1241
      0100CEB7H   LINE      CODE     ---       #1242
      0100CEBDH   LINE      CODE     ---       #1243
      ---         BLOCKEND  ---      ---       LVL=0

      0100D0D0H   BLOCK     CODE     ---       LVL=0
      0200C842H   SYMBOL    XDATA    ---       p_module_scene
      0200C845H   SYMBOL    XDATA    ---       p_scenc_infor
      0100D0D0H   LINE      CODE     ---       #1259
      0100D0D3H   LINE      CODE     ---       #1260
      0100D0D3H   LINE      CODE     ---       #1267
      0100D0D6H   LINE      CODE     ---       #1268
      0100D0D9H   LINE      CODE     ---       #1269
      0100D0DFH   LINE      CODE     ---       #1270
      0100D0EBH   LINE      CODE     ---       #1271
      0100D0EEH   LINE      CODE     ---       #1272
      ---         BLOCKEND  ---      ---       LVL=0

      0100BC5AH   BLOCK     CODE     ---       LVL=0
      0200C842H   SYMBOL    XDATA    ---       p_scenc_infor
      0100BC60H   BLOCK     CODE     NEAR LAB  LVL=1
      0200C845H   SYMBOL    XDATA    BYTE      index
      ---         BLOCKEND  ---      ---       LVL=1
LX51 LINKER/LOCATER V4.66.97.0                                                        11/04/2023  11:13:39  PAGE 170


      0100BC5AH   LINE      CODE     ---       #1275
      0100BC60H   LINE      CODE     ---       #1276
      0100BC60H   LINE      CODE     ---       #1277
      0100BC65H   LINE      CODE     ---       #1279
      0100BC68H   LINE      CODE     ---       #1280
      0100BC70H   LINE      CODE     ---       #1282
      0100BC7DH   LINE      CODE     ---       #1284
      0100BC89H   LINE      CODE     ---       #1286
      0100BC8CH   LINE      CODE     ---       #1289
      0100BCA0H   LINE      CODE     ---       #1293
      0100BCA9H   LINE      CODE     ---       #1294
      0100BCB5H   LINE      CODE     ---       #1295
      ---         BLOCKEND  ---      ---       LVL=0

      0100761FH   BLOCK     CODE     ---       LVL=0
      0200C842H   SYMBOL    XDATA    ---       p_scenc_infor
      01007625H   BLOCK     CODE     NEAR LAB  LVL=1
      00000007H   SYMBOL    DATA     BYTE      index
      ---         BLOCKEND  ---      ---       LVL=1
      0100761FH   LINE      CODE     ---       #1297
      01007625H   LINE      CODE     ---       #1298
      01007625H   LINE      CODE     ---       #1299
      01007627H   LINE      CODE     ---       #1303
      0100762AH   LINE      CODE     ---       #1304
      01007630H   LINE      CODE     ---       #1305
      01007630H   LINE      CODE     ---       #1307
      01007630H   LINE      CODE     ---       #1308
      01007639H   LINE      CODE     ---       #1311
      01007640H   LINE      CODE     ---       #1312
      0100764BH   LINE      CODE     ---       #1313
      0100764BH   LINE      CODE     ---       #1314
      0100765FH   LINE      CODE     ---       #1315
      0100766AH   LINE      CODE     ---       #1316
      01007676H   LINE      CODE     ---       #1317
      01007682H   LINE      CODE     ---       #1321
      010076A3H   LINE      CODE     ---       #1322
      010076D0H   LINE      CODE     ---       #1323
      010076D6H   LINE      CODE     ---       #1324
      010076D8H   LINE      CODE     ---       #1326
      010076D8H   LINE      CODE     ---       #1327
      0100770FH   LINE      CODE     ---       #1328
      0100770FH   LINE      CODE     ---       #1329
      0100772DH   LINE      CODE     ---       #1330
      01007739H   LINE      CODE     ---       #1332
      01007748H   LINE      CODE     ---       #1334
      01007751H   LINE      CODE     ---       #1335
      ---         BLOCKEND  ---      ---       LVL=0

      0100BA8AH   BLOCK     CODE     ---       LVL=0
      0200C842H   SYMBOL    XDATA    ---       p_module_scene
      0200C845H   SYMBOL    XDATA    ---       p_scenc_infor
      0100BA8AH   LINE      CODE     ---       #1337
      0100BA90H   LINE      CODE     ---       #1338
      0100BA90H   LINE      CODE     ---       #1339
      0100BA96H   LINE      CODE     ---       #1341
      0100BAA7H   LINE      CODE     ---       #1342
      0100BAAAH   LINE      CODE     ---       #1343
      0100BAADH   LINE      CODE     ---       #1344
      0100BAB9H   LINE      CODE     ---       #1345
      0100BAC8H   LINE      CODE     ---       #1346
      0100BACEH   LINE      CODE     ---       #1347
      0100BAD9H   LINE      CODE     ---       #1348
      0100BADFH   LINE      CODE     ---       #1349
      ---         BLOCKEND  ---      ---       LVL=0

LX51 LINKER/LOCATER V4.66.97.0                                                        11/04/2023  11:13:39  PAGE 171


      01008D26H   BLOCK     CODE     ---       LVL=0
      0200C83AH   SYMBOL    XDATA    ---       p_module_scene
      0200C83DH   SYMBOL    XDATA    ---       p_scenc_infor
      01008D2CH   BLOCK     CODE     NEAR LAB  LVL=1
      0200C840H   SYMBOL    XDATA    WORD      key_nb
      ---         BLOCKEND  ---      ---       LVL=1
      01008D26H   LINE      CODE     ---       #1360
      01008D2CH   LINE      CODE     ---       #1361
      01008D2CH   LINE      CODE     ---       #1362
      01008D33H   LINE      CODE     ---       #1363
      01008D36H   LINE      CODE     ---       #1364
      01008D3EH   LINE      CODE     ---       #1365
      01008D3EH   LINE      CODE     ---       #1367
      01008D51H   LINE      CODE     ---       #1368
      01008D51H   LINE      CODE     ---       #1369
      01008D51H   LINE      CODE     ---       #1371
      01008D57H   LINE      CODE     ---       #1372
      01008D59H   LINE      CODE     ---       #1373
      01008D59H   LINE      CODE     ---       #1374
      01008D65H   LINE      CODE     ---       #1375
      01008D67H   LINE      CODE     ---       #1376
      01008D67H   LINE      CODE     ---       #1377
      01008D72H   LINE      CODE     ---       #1378
      01008D75H   LINE      CODE     ---       #1379
      01008D77H   LINE      CODE     ---       #1380
      01008D77H   LINE      CODE     ---       #1383
      01008D77H   LINE      CODE     ---       #1384
      01008D77H   LINE      CODE     ---       #1386
      01008D7DH   LINE      CODE     ---       #1387
      01008D7DH   LINE      CODE     ---       #1388
      01008D7DH   LINE      CODE     ---       #1391
      01008D7DH   LINE      CODE     ---       #1392
      01008D7DH   LINE      CODE     ---       #1393
      01008D7DH   LINE      CODE     ---       #1394
      01008D7DH   LINE      CODE     ---       #1395
      01008D83H   LINE      CODE     ---       #1396
      01008D83H   LINE      CODE     ---       #1400
      01008D88H   LINE      CODE     ---       #1401
      01008D94H   LINE      CODE     ---       #1402
      01008D94H   LINE      CODE     ---       #1403
      01008D9CH   LINE      CODE     ---       #1404
      01008D9CH   LINE      CODE     ---       #1405
      01008DA5H   LINE      CODE     ---       #1406
      01008DB1H   LINE      CODE     ---       #1409
      01008DB3H   LINE      CODE     ---       #1411
      01008DB3H   LINE      CODE     ---       #1412
      01008DBFH   LINE      CODE     ---       #1413
      01008DBFH   LINE      CODE     ---       #1416
      01008DC7H   LINE      CODE     ---       #1417
      01008DC7H   LINE      CODE     ---       #1418
      01008DCDH   LINE      CODE     ---       #1419
      01008DD9H   LINE      CODE     ---       #1420
      01008DD9H   LINE      CODE     ---       #1421
      01008DDFH   LINE      CODE     ---       #1422
      01008DE5H   LINE      CODE     ---       #1423
      01008DE5H   LINE      CODE     ---       #1424
      ---         BLOCKEND  ---      ---       LVL=0

      0100D2E7H   BLOCK     CODE     ---       LVL=0
      0100D2E7H   BLOCK     CODE     NEAR LAB  LVL=1
      0200C83AH   SYMBOL    XDATA    WORD      key_nb
      ---         BLOCKEND  ---      ---       LVL=1
      0100D2E7H   LINE      CODE     ---       #1426
      0100D2E7H   LINE      CODE     ---       #1427
      0100D2E7H   LINE      CODE     ---       #1428
LX51 LINKER/LOCATER V4.66.97.0                                                        11/04/2023  11:13:39  PAGE 172


      0100D2EDH   LINE      CODE     ---       #1429
      0100D2F3H   LINE      CODE     ---       #1430
      0100D2FBH   LINE      CODE     ---       #1431
      0100D2FBH   LINE      CODE     ---       #1432
      0100D2FFH   LINE      CODE     ---       #1433
      0100D305H   LINE      CODE     ---       #1434
      0100D305H   LINE      CODE     ---       #1435
      ---         BLOCKEND  ---      ---       LVL=0

      0100B6CFH   BLOCK     CODE     ---       LVL=0
      0200C83AH   SYMBOL    XDATA    BYTE      index
      0100B6D4H   BLOCK     CODE     NEAR LAB  LVL=1
      0200C83BH   SYMBOL    XDATA    BYTE      action
      ---         BLOCKEND  ---      ---       LVL=1
      0100B6CFH   LINE      CODE     ---       #1436
      0100B6D4H   LINE      CODE     ---       #1437
      0100B6D4H   LINE      CODE     ---       #1438
      0100B6D7H   LINE      CODE     ---       #1439
      0100B6E3H   LINE      CODE     ---       #1440
      0100B6E5H   LINE      CODE     ---       #1441
      0100B6E5H   LINE      CODE     ---       #1442
      0100B6F7H   LINE      CODE     ---       #1443
      0100B709H   LINE      CODE     ---       #1444
      0100B71FH   LINE      CODE     ---       #1445
      0100B724H   LINE      CODE     ---       #1446
      0100B72FH   LINE      CODE     ---       #1447
      0100B72FH   LINE      CODE     ---       #1448
      ---         BLOCKEND  ---      ---       LVL=0

      0100CC9CH   BLOCK     CODE     ---       LVL=0
      0100CC9CH   LINE      CODE     ---       #1450
      0100CC9CH   LINE      CODE     ---       #1451
      0100CC9CH   LINE      CODE     ---       #1456
      0100CCA2H   LINE      CODE     ---       #1457
      0100CCB5H   LINE      CODE     ---       #1458
      0100CCBEH   LINE      CODE     ---       #1460
      0100CCC7H   LINE      CODE     ---       #1461
      0100CCCAH   LINE      CODE     ---       #1462
      ---         BLOCKEND  ---      ---       LVL=0

      0100BB45H   BLOCK     CODE     ---       LVL=0
      0200C8A8H   SYMBOL    XDATA    BYTE      enable
      0100BB4AH   BLOCK     CODE     NEAR LAB  LVL=1
      0200C8A9H   SYMBOL    XDATA    ---       config_sys_cmd_80
      ---         BLOCKEND  ---      ---       LVL=1
      0100BB45H   LINE      CODE     ---       #1469
      0100BB4AH   LINE      CODE     ---       #1470
      0100BB4AH   LINE      CODE     ---       #1471
      0100BB55H   LINE      CODE     ---       #1472
      0100BB61H   LINE      CODE     ---       #1473
      0100BB68H   LINE      CODE     ---       #1474
      0100BB71H   LINE      CODE     ---       #1475
      0100BB77H   LINE      CODE     ---       #1477
      0100BB7BH   LINE      CODE     ---       #1478
      0100BB81H   LINE      CODE     ---       #1479
      0100BB8DH   LINE      CODE     ---       #1480
      0100BB93H   LINE      CODE     ---       #1481
      0100BB93H   LINE      CODE     ---       #1482
      0100BB9FH   LINE      CODE     ---       #1483
      0100BBA1H   LINE      CODE     ---       #1484
      ---         BLOCKEND  ---      ---       LVL=0

      0100B730H   BLOCK     CODE     ---       LVL=0
      0200C842H   SYMBOL    XDATA    BYTE      enable
      0100B735H   BLOCK     CODE     NEAR LAB  LVL=1
LX51 LINKER/LOCATER V4.66.97.0                                                        11/04/2023  11:13:39  PAGE 173


      0200C843H   SYMBOL    XDATA    ---       config_sys_cmd_80
      ---         BLOCKEND  ---      ---       LVL=1
      0100B730H   LINE      CODE     ---       #1486
      0100B735H   LINE      CODE     ---       #1487
      0100B735H   LINE      CODE     ---       #1488
      0100B744H   LINE      CODE     ---       #1489
      0100B750H   LINE      CODE     ---       #1490
      0100B757H   LINE      CODE     ---       #1491
      0100B760H   LINE      CODE     ---       #1492
      0100B766H   LINE      CODE     ---       #1494
      0100B76AH   LINE      CODE     ---       #1495
      0100B770H   LINE      CODE     ---       #1496
      0100B77CH   LINE      CODE     ---       #1497
      0100B782H   LINE      CODE     ---       #1498
      0100B782H   LINE      CODE     ---       #1499
      0100B78EH   LINE      CODE     ---       #1500
      0100B790H   LINE      CODE     ---       #1501
      ---         BLOCKEND  ---      ---       LVL=0

      0100B90FH   BLOCK     CODE     ---       LVL=0
      0200C842H   SYMBOL    XDATA    BYTE      work_light
      0200C843H   SYMBOL    XDATA    BYTE      sleep_light
      0200C844H   SYMBOL    XDATA    WORD      sleep_interval
      0100B91DH   BLOCK     CODE     NEAR LAB  LVL=1
      0200C846H   SYMBOL    XDATA    ---       led_cmd
      ---         BLOCKEND  ---      ---       LVL=1
      0100B90FH   LINE      CODE     ---       #1506
      0100B91DH   LINE      CODE     ---       #1507
      0100B91DH   LINE      CODE     ---       #1509
      0100B92CH   LINE      CODE     ---       #1510
      0100B943H   LINE      CODE     ---       #1511
      0100B94BH   LINE      CODE     ---       #1512
      0100B958H   LINE      CODE     ---       #1513
      0100B95BH   LINE      CODE     ---       #1514
      ---         BLOCKEND  ---      ---       LVL=0

      0100AEE9H   BLOCK     CODE     ---       LVL=0
      0200C89FH   SYMBOL    XDATA    BYTE      menu_key_value
      0100AEEEH   BLOCK     CODE     NEAR LAB  LVL=1
      0200C8A0H   SYMBOL    XDATA    ---       temp_tab
      00000007H   SYMBOL    DATA     BYTE      beep_enable
      ---         BLOCKEND  ---      ---       LVL=1
      0100AEE9H   LINE      CODE     ---       #1521
      0100AEEEH   LINE      CODE     ---       #1522
      0100AEEEH   LINE      CODE     ---       #1523
      0100AEFBH   LINE      CODE     ---       #1524
      0100AEFDH   LINE      CODE     ---       #1525
      0100AF00H   LINE      CODE     ---       #1526
      0100AF06H   LINE      CODE     ---       #1527
      0100AF0AH   LINE      CODE     ---       #1528
      0100AF0DH   LINE      CODE     ---       #1529
      0100AF11H   LINE      CODE     ---       #1530
      0100AF15H   LINE      CODE     ---       #1531
      0100AF1DH   LINE      CODE     ---       #1532
      0100AF20H   LINE      CODE     ---       #1533
      0100AF23H   LINE      CODE     ---       #1534
      0100AF2AH   LINE      CODE     ---       #1535
      0100AF3DH   LINE      CODE     ---       #1536
      0100AF44H   LINE      CODE     ---       #1537
      0100AF4BH   LINE      CODE     ---       #1540
      0100AF4EH   LINE      CODE     ---       #1541
      ---         BLOCKEND  ---      ---       LVL=0

      0100BE77H   BLOCK     CODE     ---       LVL=0
      0100BE77H   BLOCK     CODE     NEAR LAB  LVL=1
LX51 LINKER/LOCATER V4.66.97.0                                                        11/04/2023  11:13:39  PAGE 174


      0200C83AH   SYMBOL    XDATA    WORD      key_nb
      0200C83CH   SYMBOL    XDATA    ---       module_scene_r
      ---         BLOCKEND  ---      ---       LVL=1
      0100BE77H   LINE      CODE     ---       #1544
      0100BE77H   LINE      CODE     ---       #1545
      0100BE77H   LINE      CODE     ---       #1546
      0100BE7EH   LINE      CODE     ---       #1548
      0100BE8BH   LINE      CODE     ---       #1549
      0100BE91H   LINE      CODE     ---       #1550
      0100BE99H   LINE      CODE     ---       #1551
      0100BE99H   LINE      CODE     ---       #1553
      0100BEB2H   LINE      CODE     ---       #1554
      0100BEBAH   LINE      CODE     ---       #1555
      0100BEBAH   LINE      CODE     ---       #1556
      0100BEBFH   LINE      CODE     ---       #1557
      0100BEC8H   LINE      CODE     ---       #1562
      0100BEC8H   LINE      CODE     ---       #1563
      0100BECEH   LINE      CODE     ---       #1564
      0100BECEH   LINE      CODE     ---       #1565
      ---         BLOCKEND  ---      ---       LVL=0

      ---         MODULE    ---      ---       TIME_SCENE
      02009459H   PUBLIC    XDATA    ---       timing_content
      0200943BH   PUBLIC    XDATA    ---       time_scene_var
      0200943AH   PUBLIC    XDATA    BYTE      time_scene_select_sta_bak
      02009438H   PUBLIC    XDATA    WORD      time_scene_key_nb_bak
      02009412H   PUBLIC    XDATA    ---       temp_timing_content
      0100B35BH   PUBLIC    CODE     ---       timing_scene_run
      0100D324H   PUBLIC    CODE     ---       right_number_of_days_ctrl
      0100AC44H   PUBLIC    CODE     ---       _set_the_right_number_of_days
      0100882BH   PUBLIC    CODE     ---       timed_auto_send
      01005AC4H   PUBLIC    CODE     ---       timing_auto_detect
      0100AD9CH   PUBLIC    CODE     ---       _all_on_off_timing_send
      0100C8F3H   PUBLIC    CODE     ---       _scene_timing_send
      0100A42BH   PUBLIC    CODE     ---       _module_timing_send
      0100B9CDH   PUBLIC    CODE     ---       timing_all_on_off_ctrl
      01009833H   PUBLIC    CODE     ---       _timing_scene_select_ctrl
      0200C83AH   PUBLIC    XDATA    BYTE      ?_operand_ctrl?BYTE
      01007F52H   PUBLIC    CODE     ---       _operand_ctrl
      0200C83AH   PUBLIC    XDATA    BYTE      ?_timing_scene_infor_ctrl?BYTE
      010094ABH   PUBLIC    CODE     ---       _timing_scene_infor_ctrl
      0200C845H   PUBLIC    XDATA    BYTE      ?_all_on_off_scene_confim_key?BYTE
      0100B485H   PUBLIC    CODE     ---       _all_on_off_scene_confim_key
      0100BF7CH   PUBLIC    CODE     ---       _timing_all_on_off_scene_set
      0200C845H   PUBLIC    XDATA    BYTE      ?_specified_scene_confim_key?BYTE
      0100B54AH   PUBLIC    CODE     ---       _specified_scene_confim_key
      0100C974H   PUBLIC    CODE     ---       _timing_specified_scene_set
      0100D617H   PUBLIC    CODE     ---       scene_infor_cancle_key
      0200C845H   PUBLIC    XDATA    BYTE      ?_scene_infor_module_confim_key?BYTE
      01008DEDH   PUBLIC    CODE     ---       _scene_infor_module_confim_key
      0200C84EH   PUBLIC    XDATA    BYTE      ?_timing_module_scene_set?BYTE
      0100CD07H   PUBLIC    CODE     ---       _timing_module_scene_set
      0200C83AH   PUBLIC    XDATA    BYTE      ?_timing_scene_edit?BYTE
      0100C1C7H   PUBLIC    CODE     ---       _timing_scene_edit
      0200C842H   PUBLIC    XDATA    BYTE      ?_timing_scene_modtify?BYTE
      01006F61H   PUBLIC    CODE     ---       _timing_scene_modtify
      0100C4D4H   PUBLIC    CODE     ---       _display_scene_time_interface
      0100C3F2H   PUBLIC    CODE     ---       _display_all_on_off_interface
      0100D60AH   PUBLIC    CODE     ---       _copy_to_temp_timing_content
      0100C82CH   PUBLIC    CODE     ---       _timing_scene_clear
      0200C842H   PUBLIC    XDATA    BYTE      ?_timing_scene_delete?BYTE
      0100AE0CH   PUBLIC    CODE     ---       _timing_scene_delete
      0100CC2FH   PUBLIC    CODE     ---       _timing_scene_add
      0100CB89H   PUBLIC    CODE     ---       _module_timing_scene_select_ctrl
      0100B96EH   PUBLIC    CODE     ---       _module_timing_scene_select
LX51 LINKER/LOCATER V4.66.97.0                                                        11/04/2023  11:13:39  PAGE 175


      01002A3AH   PUBLIC    CODE     ---       _display_timing_scene_infor
      0100AE7BH   PUBLIC    CODE     ---       _display_dim_timing_scene_interface
      01009CF7H   PUBLIC    CODE     ---       _display_relay_timing_scene_interface
      0200C854H   PUBLIC    XDATA    BYTE      ?_timing_module_dim_scene_set?BYTE
      01007752H   PUBLIC    CODE     ---       _timing_module_dim_scene_set
      0200C854H   PUBLIC    XDATA    BYTE      ?_timing_module_relay_scene_set?BYTE
      010046FFH   PUBLIC    CODE     ---       _timing_module_relay_scene_set
      0200C84AH   PUBLIC    XDATA    BYTE      ?_timing_scene_infor_delete?BYTE
      0100B4E8H   PUBLIC    CODE     ---       _timing_scene_infor_delete
      0100C68BH   PUBLIC    CODE     ---       _timing_scene_infor_clear
      0100D433H   PUBLIC    CODE     ---       _timing_scene_infor_save_flash
      0200C848H   PUBLIC    XDATA    BYTE      ?_set_timing_set_infor?BYTE
      01009C4EH   PUBLIC    CODE     ---       _set_timing_set_infor
      01007E47H   PUBLIC    CODE     ---       _dis_module_scene_infor
      0200C84EH   PUBLIC    XDATA    BYTE      ?_get_timing_set_infor?BYTE
      01009F83H   PUBLIC    CODE     ---       _get_timing_set_infor
      0100D5D5H   PUBLIC    CODE     ---       _set_timing_week_enable
      01009AF4H   PUBLIC    CODE     ---       _get_timing_week_enable
      0100D2A8H   PUBLIC    CODE     ---       _set_timing_data_enable
      0100D6EBH   PUBLIC    CODE     ---       get_timing_data_enable
      0100D15DH   PUBLIC    CODE     ---       set_timing_scene_name_select_sequence_number
      0100D6D3H   PUBLIC    CODE     ---       get_timing_scene_name_select_sequence_number
      0100CAA2H   PUBLIC    CODE     ---       get_blank_timing_scene_infor_index
      0100CF4AH   PUBLIC    CODE     ---       _clear_all_timing_scene_content
      0100D6CAH   PUBLIC    CODE     ---       _clear_single_timing_scene_content
      0100C489H   PUBLIC    CODE     ---       clear_timing_scene_var
      0100D13AH   PUBLIC    CODE     ---       _printf_temp_timing_content
      000000F1H   SFRSYM    DATA     BYTE      ADR_H
      00000080H   SFRSYM    DATA     BYTE      P0
      00000090H   SFRSYM    DATA     BYTE      P1
      000000A0H   SFRSYM    DATA     BYTE      P2
      000000B0H   SFRSYM    DATA     BYTE      P3
      000000F3H   SFRSYM    DATA     BYTE      ADR_L
      000000D0H.6 SFRSYM    DATA     BIT       AC
      000000A0H.6 SFRSYM    DATA     BIT       Red_LED1
      00000094H   SFRSYM    DATA     BYTE      PAGESEL
      000000F2H   SFRSYM    DATA     BYTE      ADR_M
      000000A8H.7 SFRSYM    DATA     BIT       EA
      000000F8H   SFRSYM    DATA     BYTE      RAMMODE
      000000B7H   SFRSYM    DATA     BYTE      P0MDOUT
      000000BCH   SFRSYM    DATA     BYTE      P1MDOUT
      000000A8H   SFRSYM    DATA     BYTE      IEN0
      000000BDH   SFRSYM    DATA     BYTE      P2MDOUT
      000000B8H   SFRSYM    DATA     BYTE      IEN1
      000000BEH   SFRSYM    DATA     BYTE      P3MDOUT
      0000009AH   SFRSYM    DATA     BYTE      IEN2
      000000F8H.4 SFRSYM    DATA     BIT       APP_ACK
      000000F4H   SFRSYM    DATA     BYTE      ADR_INC
      000000B8H.1 SFRSYM    DATA     BIT       ECAN
      000000D0H.7 SFRSYM    DATA     BIT       CY
      000000B8H.3 SFRSYM    DATA     BIT       ES4R
      000000B8H.5 SFRSYM    DATA     BIT       ES5R
      000000B8H.2 SFRSYM    DATA     BIT       ES4T
      000000B8H.4 SFRSYM    DATA     BIT       ES5T
      000000B0H.3 SFRSYM    DATA     BIT       RTC_SDA
      00000081H   SFRSYM    DATA     BYTE      SP
      000000D0H.2 SFRSYM    DATA     BIT       OV
      00000095H   SFRSYM    DATA     BYTE      D_PAGESEL
      000000F8H.7 SFRSYM    DATA     BIT       APP_REQ
      000000B0H.2 SFRSYM    DATA     BIT       RTC_SCL
      000000BFH   SFRSYM    DATA     BYTE      IRCON2
      00000087H   SFRSYM    DATA     BYTE      PCON
      000000BAH   SFRSYM    DATA     BYTE      SREL2H
      000000BBH   SFRSYM    DATA     BYTE      SREL3H
      000000F9H   SFRSYM    DATA     BYTE      PORTDRV
LX51 LINKER/LOCATER V4.66.97.0                                                        11/04/2023  11:13:39  PAGE 176


      00000089H   SFRSYM    DATA     BYTE      TMOD
      00000088H   SFRSYM    DATA     BYTE      TCON
      000000AAH   SFRSYM    DATA     BYTE      SREL2L
      0000009DH   SFRSYM    DATA     BYTE      SREL3L
      000000FFH   SFRSYM    DATA     BYTE      EXDATA
      00000097H   SFRSYM    DATA     BYTE      SCON4R
      000000ABH   SFRSYM    DATA     BYTE      SCON5R
      000000D9H   SFRSYM    DATA     BYTE      BODE4_DIV_H
      000000AEH   SFRSYM    DATA     BYTE      BODE5_DIV_H
      00000096H   SFRSYM    DATA     BYTE      SCON4T
      000000A7H   SFRSYM    DATA     BYTE      SCON5T
      00000088H.1 SFRSYM    DATA     BIT       IE0
      00000088H.3 SFRSYM    DATA     BIT       IE1
      000000C9H   SFRSYM    DATA     BYTE      MUX_SEL
      000000E7H   SFRSYM    DATA     BYTE      BODE4_DIV_L
      000000AFH   SFRSYM    DATA     BYTE      BODE5_DIV_L
      000000F0H   SFRSYM    DATA     BYTE      B
      000000E0H   SFRSYM    DATA     BYTE      ACC
      0000008FH   SFRSYM    DATA     BYTE      CAN_CR
      000000A9H   SFRSYM    DATA     BYTE      IP0
      000000A8H.1 SFRSYM    DATA     BIT       ET0
      000000B9H   SFRSYM    DATA     BYTE      IP1
      000000A8H.3 SFRSYM    DATA     BIT       ET1
      000000A8H.4 SFRSYM    DATA     BIT       ES2
      00000088H.5 SFRSYM    DATA     BIT       TF0
      000000FDH   SFRSYM    DATA     BYTE      DATA0
      000000A8H.5 SFRSYM    DATA     BIT       ET2
      00000088H.7 SFRSYM    DATA     BIT       TF1
      000000E8H   SFRSYM    DATA     BYTE      CAN_ET
      000000FCH   SFRSYM    DATA     BYTE      DATA1
      000000C0H.6 SFRSYM    DATA     BIT       TF2
      0000008CH   SFRSYM    DATA     BYTE      TH0
      000000FBH   SFRSYM    DATA     BYTE      DATA2
      000000A8H.0 SFRSYM    DATA     BIT       EX0
      00000098H.0 SFRSYM    DATA     BIT       RI2
      0000008DH   SFRSYM    DATA     BYTE      TH1
      00000088H.0 SFRSYM    DATA     BIT       IT0
      00000091H   SFRSYM    DATA     BYTE      CAN_IR
      000000FAH   SFRSYM    DATA     BYTE      DATA3
      000000CDH   SFRSYM    DATA     BYTE      TH2
      000000A8H.2 SFRSYM    DATA     BIT       EX1
      00000088H.2 SFRSYM    DATA     BIT       IT1
      000000D0H.0 SFRSYM    DATA     BIT       P
      00000098H.1 SFRSYM    DATA     BIT       TI2
      0000008AH   SFRSYM    DATA     BYTE      TL0
      0000008BH   SFRSYM    DATA     BYTE      TL1
      000000CCH   SFRSYM    DATA     BYTE      TL2
      000000F8H.6 SFRSYM    DATA     BIT       APP_EN
      000000D0H.3 SFRSYM    DATA     BIT       RS0
      000000D0H.4 SFRSYM    DATA     BIT       RS1
      00000088H.4 SFRSYM    DATA     BIT       TR0
      00000093H   SFRSYM    DATA     BYTE      DPC
      00000088H.6 SFRSYM    DATA     BIT       TR1
      000000E5H   SFRSYM    DATA     BYTE      MAC_MODE
      000000C8H.0 SFRSYM    DATA     BIT       TR2
      00000080H.0 SFRSYM    DATA     BIT       TR4
      00000080H.1 SFRSYM    DATA     BIT       TR5
      000000A0H.7 SFRSYM    DATA     BIT       Green_LED2
      00000083H   SFRSYM    DATA     BYTE      DPH
      00000082H   SFRSYM    DATA     BYTE      DPL
      00000099H   SFRSYM    DATA     BYTE      SBUF2
      0000009CH   SFRSYM    DATA     BYTE      SBUF3
      000000D8H   SFRSYM    DATA     BYTE      ADCON
      00000098H   SFRSYM    DATA     BYTE      SCON2
      000000C8H   SFRSYM    DATA     BYTE      T2CON
LX51 LINKER/LOCATER V4.66.97.0                                                        11/04/2023  11:13:39  PAGE 177


      0000009BH   SFRSYM    DATA     BYTE      SCON3
      000000E6H   SFRSYM    DATA     BYTE      DIV_MODE
      000000F8H.5 SFRSYM    DATA     BIT       APP_RW
      000000CBH   SFRSYM    DATA     BYTE      TRL2H
      0000008EH   SFRSYM    DATA     BYTE      CKCON
      0000009FH   SFRSYM    DATA     BYTE      SBUF4_RX
      000000ADH   SFRSYM    DATA     BYTE      SBUF5_RX
      000000CAH   SFRSYM    DATA     BYTE      TRL2L
      0000009EH   SFRSYM    DATA     BYTE      SBUF4_TX
      000000ACH   SFRSYM    DATA     BYTE      SBUF5_TX
      000000FEH   SFRSYM    DATA     BYTE      EXADR
      000000D0H.5 SFRSYM    DATA     BIT       F0
      000000D0H.1 SFRSYM    DATA     BIT       F1
      000000D0H   SFRSYM    DATA     BYTE      PSW
      000000C0H   SFRSYM    DATA     BYTE      IRCON
      0100DE5FH   SYMBOL    CONST    ---       _?ix1000
      0100E005H   SYMBOL    CONST    ---       _?ix1010
      0100DE7FH   SYMBOL    CONST    ---       _?ix1001
      0100E1E4H   SYMBOL    CONST    ---       _?ix1020
      0100E035H   SYMBOL    CONST    ---       _?ix1011
      0100DE9FH   SYMBOL    CONST    ---       _?ix1002
      0100E058H   SYMBOL    CONST    ---       _?ix1012
      0100DEA7H   SYMBOL    CONST    ---       _?ix1003
      0100E07CH   SYMBOL    CONST    ---       _?ix1013
      0100DEABH   SYMBOL    CONST    ---       _?ix1004
      0100E194H   SYMBOL    CONST    ---       _?ix1014
      0100DF60H   SYMBOL    CONST    ---       _?ix1005
      0100E1A4H   SYMBOL    CONST    ---       _?ix1015
      0100DF71H   SYMBOL    CONST    ---       _?ix1006
      0100E1B8H   SYMBOL    CONST    ---       _?ix1016
      0100DFA2H   SYMBOL    CONST    ---       _?ix1007
      0100E1C8H   SYMBOL    CONST    ---       _?ix1017
      0100DFD3H   SYMBOL    CONST    ---       _?ix1008
      0100E1D8H   SYMBOL    CONST    ---       _?ix1018
      0100DFFBH   SYMBOL    CONST    ---       _?ix1009
      0100E1E0H   SYMBOL    CONST    ---       _?ix1019

      0100374AH   BLOCK     CODE     ---       LVL=0
      ---         BLOCKEND  ---      ---       LVL=0

      0100D13AH   BLOCK     CODE     ---       LVL=0
      0200C84EH   SYMBOL    XDATA    ---       p_timing_content
      0100D13AH   LINE      CODE     ---       #29
      0100D140H   LINE      CODE     ---       #30
      0100D140H   LINE      CODE     ---       #34
      ---         BLOCKEND  ---      ---       LVL=0

      0100C489H   BLOCK     CODE     ---       LVL=0
      0100C489H   BLOCK     CODE     NEAR LAB  LVL=1
      0200C84EH   SYMBOL    XDATA    BYTE      i
      ---         BLOCKEND  ---      ---       LVL=1
      0100C489H   LINE      CODE     ---       #49
      0100C489H   LINE      CODE     ---       #50
      0100C489H   LINE      CODE     ---       #51
      0100C48EH   LINE      CODE     ---       #52
      0100C49FH   LINE      CODE     ---       #53
      0100C49FH   LINE      CODE     ---       #54
      0100C4ADH   LINE      CODE     ---       #55
      0100C4B5H   LINE      CODE     ---       #56
      0100C4BFH   LINE      CODE     ---       #57
      0100C4C9H   LINE      CODE     ---       #58
      0100C4C9H   LINE      CODE     ---       #59
      0100C4C9H   LINE      CODE     ---       #60
      0100C4CDH   LINE      CODE     ---       #61
      0100C4D1H   LINE      CODE     ---       #62
LX51 LINKER/LOCATER V4.66.97.0                                                        11/04/2023  11:13:39  PAGE 178


      0100C4D3H   LINE      CODE     ---       #65
      ---         BLOCKEND  ---      ---       LVL=0

      0100D6CAH   BLOCK     CODE     ---       LVL=0
      00000001H   SYMBOL    DATA     ---       p_timing_content
      0100D6CAH   LINE      CODE     ---       #67
      0100D6CAH   LINE      CODE     ---       #68
      0100D6CAH   LINE      CODE     ---       #69
      ---         BLOCKEND  ---      ---       LVL=0

      0100CF4AH   BLOCK     CODE     ---       LVL=0
      0200C84AH   SYMBOL    XDATA    ---       p_timing_content
      0100CF50H   BLOCK     CODE     NEAR LAB  LVL=1
      0200C84DH   SYMBOL    XDATA    BYTE      i
      ---         BLOCKEND  ---      ---       LVL=1
      0100CF4AH   LINE      CODE     ---       #72
      0100CF50H   LINE      CODE     ---       #73
      0100CF50H   LINE      CODE     ---       #74
      0100CF55H   LINE      CODE     ---       #75
      0100CF5EH   LINE      CODE     ---       #76
      0100CF5EH   LINE      CODE     ---       #77
      0100CF6BH   LINE      CODE     ---       #78
      0100CF73H   LINE      CODE     ---       #79
      ---         BLOCKEND  ---      ---       LVL=0

      0100CAA2H   BLOCK     CODE     ---       LVL=0
      0100CAA2H   BLOCK     CODE     NEAR LAB  LVL=1
      0200C846H   SYMBOL    XDATA    BYTE      i
      ---         BLOCKEND  ---      ---       LVL=1
      0100CAA2H   LINE      CODE     ---       #81
      0100CAA2H   LINE      CODE     ---       #82
      0100CAA2H   LINE      CODE     ---       #84
      0100CAA7H   LINE      CODE     ---       #87
      0100CAB6H   LINE      CODE     ---       #88
      0100CAB6H   LINE      CODE     ---       #89
      0100CABBH   LINE      CODE     ---       #90
      0100CABBH   LINE      CODE     ---       #91
      0100CACCH   LINE      CODE     ---       #92
      0100CAD2H   LINE      CODE     ---       #93
      0100CAD2H   LINE      CODE     ---       #94
      0100CADAH   LINE      CODE     ---       #95
      0100CADCH   LINE      CODE     ---       #96
      ---         BLOCKEND  ---      ---       LVL=0

      0100D6D3H   BLOCK     CODE     ---       LVL=0
      0100D6D3H   LINE      CODE     ---       #98
      0100D6D3H   LINE      CODE     ---       #99
      0100D6D3H   LINE      CODE     ---       #101
      ---         BLOCKEND  ---      ---       LVL=0

      0100D15DH   BLOCK     CODE     ---       LVL=0
      0100D15DH   LINE      CODE     ---       #104
      0100D15DH   LINE      CODE     ---       #105
      0100D15DH   LINE      CODE     ---       #107
      ---         BLOCKEND  ---      ---       LVL=0

      0100D6EBH   BLOCK     CODE     ---       LVL=0
      0100D6EBH   LINE      CODE     ---       #110
      0100D6EBH   LINE      CODE     ---       #111
      0100D6EBH   LINE      CODE     ---       #112
      ---         BLOCKEND  ---      ---       LVL=0

      0100D2A8H   BLOCK     CODE     ---       LVL=0
      0200C854H   SYMBOL    XDATA    ---       p_time_scene_set
      0100D2A8H   LINE      CODE     ---       #115
LX51 LINKER/LOCATER V4.66.97.0                                                        11/04/2023  11:13:39  PAGE 179


      0100D2AEH   LINE      CODE     ---       #116
      0100D2AEH   LINE      CODE     ---       #117
      0100D2BBH   LINE      CODE     ---       #118
      ---         BLOCKEND  ---      ---       LVL=0

      01009AF4H   BLOCK     CODE     ---       LVL=0
      0200C85AH   SYMBOL    XDATA    WORD      week_enable_adr
      01009AF4H   LINE      CODE     ---       #121
      01009AFCH   LINE      CODE     ---       #122
      01009AFCH   LINE      CODE     ---       #124
      01009B86H   LINE      CODE     ---       #126
      ---         BLOCKEND  ---      ---       LVL=0

      0100D5D5H   BLOCK     CODE     ---       LVL=0
      00000001H   SYMBOL    DATA     ---       p_time_scene_set
      0100D5D5H   LINE      CODE     ---       #128
      0100D5D5H   LINE      CODE     ---       #129
      0100D5D5H   LINE      CODE     ---       #130
      ---         BLOCKEND  ---      ---       LVL=0

      01009F83H   BLOCK     CODE     ---       LVL=0
      0200C84EH   SYMBOL    XDATA    ---       p_s_date
      0200C851H   SYMBOL    XDATA    ---       p_e_data
      0200C854H   SYMBOL    XDATA    ---       p_time
      0200C857H   SYMBOL    XDATA    ---       p_time_scene_set
      01009F83H   LINE      CODE     ---       #141
      01009F89H   LINE      CODE     ---       #142
      01009F89H   LINE      CODE     ---       #144
      01009F99H   LINE      CODE     ---       #145
      01009FAAH   LINE      CODE     ---       #146
      01009FB7H   LINE      CODE     ---       #147
      01009FC8H   LINE      CODE     ---       #148
      01009FCCH   LINE      CODE     ---       #149
      01009FD6H   LINE      CODE     ---       #150
      01009FD6H   LINE      CODE     ---       #151
      01009FDEH   LINE      CODE     ---       #152
      01009FE6H   LINE      CODE     ---       #153
      01009FF3H   LINE      CODE     ---       #155
      01009FFBH   LINE      CODE     ---       #156
      0100A003H   LINE      CODE     ---       #157
      0100A010H   LINE      CODE     ---       #158
      0100A010H   LINE      CODE     ---       #164
      ---         BLOCKEND  ---      ---       LVL=0

      01007E47H   BLOCK     CODE     ---       LVL=0
      0200C848H   SYMBOL    XDATA    ---       p_time_module_scene_set
      01007E4DH   BLOCK     CODE     NEAR LAB  LVL=1
      0200C84BH   SYMBOL    XDATA    BYTE      i
      0200C84CH   SYMBOL    XDATA    ---       temp_tab
      ---         BLOCKEND  ---      ---       LVL=1
      01007E47H   LINE      CODE     ---       #172
      01007E4DH   LINE      CODE     ---       #173
      01007E4DH   LINE      CODE     ---       #174
      01007E52H   LINE      CODE     ---       #175
      01007E5EH   LINE      CODE     ---       #176
      01007E77H   LINE      CODE     ---       #177
      01007E77H   LINE      CODE     ---       #178
      01007E77H   LINE      CODE     ---       #179
      01007E77H   LINE      CODE     ---       #180
      01007E77H   LINE      CODE     ---       #181
      01007E77H   LINE      CODE     ---       #182
      01007E81H   LINE      CODE     ---       #183
      01007E81H   LINE      CODE     ---       #184
      01007E98H   LINE      CODE     ---       #186
      01007E9DH   LINE      CODE     ---       #187
LX51 LINKER/LOCATER V4.66.97.0                                                        11/04/2023  11:13:39  PAGE 180


      01007EACH   LINE      CODE     ---       #188
      01007EB6H   LINE      CODE     ---       #189
      01007EB6H   LINE      CODE     ---       #190
      01007ECDH   LINE      CODE     ---       #192
      01007ED2H   LINE      CODE     ---       #193
      01007EDEH   LINE      CODE     ---       #195
      01007EE0H   LINE      CODE     ---       #196
      01007EE0H   LINE      CODE     ---       #197
      01007EEAH   LINE      CODE     ---       #198
      01007EEAH   LINE      CODE     ---       #199
      01007EF7H   LINE      CODE     ---       #200
      01007EFCH   LINE      CODE     ---       #201
      01007F0CH   LINE      CODE     ---       #202
      01007F16H   LINE      CODE     ---       #204
      01007F18H   LINE      CODE     ---       #205
      01007F18H   LINE      CODE     ---       #206
      01007F22H   LINE      CODE     ---       #207
      01007F22H   LINE      CODE     ---       #208
      01007F2FH   LINE      CODE     ---       #209
      01007F34H   LINE      CODE     ---       #210
      01007F44H   LINE      CODE     ---       #212
      01007F51H   LINE      CODE     ---       #214
      01007F51H   LINE      CODE     ---       #215
      01007F51H   LINE      CODE     ---       #216
      ---         BLOCKEND  ---      ---       LVL=0

      01009C4EH   BLOCK     CODE     ---       LVL=0
      0200C848H   SYMBOL    XDATA    ---       p_s_date
      0200C84BH   SYMBOL    XDATA    ---       p_e_data
      0200C84EH   SYMBOL    XDATA    ---       p_time
      0200C851H   SYMBOL    XDATA    ---       p_time_scene_set
      01009C4EH   LINE      CODE     ---       #218
      01009C54H   LINE      CODE     ---       #219
      01009C54H   LINE      CODE     ---       #220
      01009C5DH   LINE      CODE     ---       #221
      01009C66H   LINE      CODE     ---       #223
      01009C71H   LINE      CODE     ---       #224
      01009C7FH   LINE      CODE     ---       #226
      01009C89H   LINE      CODE     ---       #227
      01009C89H   LINE      CODE     ---       #228
      01009C97H   LINE      CODE     ---       #229
      01009CA2H   LINE      CODE     ---       #230
      01009CADH   LINE      CODE     ---       #232
      01009CBBH   LINE      CODE     ---       #233
      01009CCBH   LINE      CODE     ---       #234
      01009CDBH   LINE      CODE     ---       #235
      01009CDBH   LINE      CODE     ---       #236
      ---         BLOCKEND  ---      ---       LVL=0

      0100D433H   BLOCK     CODE     ---       LVL=0
      00000001H   SYMBOL    DATA     ---       p_timing_content
      0100D433H   LINE      CODE     ---       #238
      0100D433H   LINE      CODE     ---       #239
      0100D433H   LINE      CODE     ---       #241
      0100D444H   LINE      CODE     ---       #244
      ---         BLOCKEND  ---      ---       LVL=0

      0100C68BH   BLOCK     CODE     ---       LVL=0
      0200C847H   SYMBOL    XDATA    ---       p_timing_content
      0100C68BH   LINE      CODE     ---       #247
      0100C691H   LINE      CODE     ---       #248
      0100C691H   LINE      CODE     ---       #249
      0100C6AEH   LINE      CODE     ---       #250
      0100C6CAH   LINE      CODE     ---       #252
      ---         BLOCKEND  ---      ---       LVL=0
LX51 LINKER/LOCATER V4.66.97.0                                                        11/04/2023  11:13:39  PAGE 181



      0100B4E8H   BLOCK     CODE     ---       LVL=0
      0200C84AH   SYMBOL    XDATA    ---       p_timing_content
      0200C84DH   SYMBOL    XDATA    ---       p_time_scene
      0100B4E8H   LINE      CODE     ---       #255
      0100B4EEH   LINE      CODE     ---       #256
      0100B4EEH   LINE      CODE     ---       #258
      0100B50FH   LINE      CODE     ---       #259
      0100B541H   LINE      CODE     ---       #260
      ---         BLOCKEND  ---      ---       LVL=0

      010046FFH   BLOCK     CODE     ---       LVL=0
      0200C854H   SYMBOL    XDATA    ---       p
      0200C857H   SYMBOL    XDATA    ---       p_time_module_scene
      01004705H   BLOCK     CODE     NEAR LAB  LVL=1
      0200C85AH   SYMBOL    XDATA    ---       temp_tab
      ---         BLOCKEND  ---      ---       LVL=1
      010046FFH   LINE      CODE     ---       #263
      01004705H   LINE      CODE     ---       #264
      01004705H   LINE      CODE     ---       #267
      01004712H   LINE      CODE     ---       #268
      01004721H   LINE      CODE     ---       #269
      01004721H   LINE      CODE     ---       #270
      01004727H   LINE      CODE     ---       #271
      01004729H   LINE      CODE     ---       #272
      01004738H   LINE      CODE     ---       #273
      01004738H   LINE      CODE     ---       #274
      01004741H   LINE      CODE     ---       #275
      01004741H   LINE      CODE     ---       #277
      01004741H   LINE      CODE     ---       #279
      01004741H   LINE      CODE     ---       #281
      0100474DH   LINE      CODE     ---       #282
      01004760H   LINE      CODE     ---       #283
      0100476CH   LINE      CODE     ---       #284
      0100477CH   LINE      CODE     ---       #286
      0100479BH   LINE      CODE     ---       #287
      0100479BH   LINE      CODE     ---       #288
      0100479BH   LINE      CODE     ---       #289
      010047ADH   LINE      CODE     ---       #290
      010047B3H   LINE      CODE     ---       #292
      010047B3H   LINE      CODE     ---       #293
      010047B9H   LINE      CODE     ---       #294
      010047BBH   LINE      CODE     ---       #295
      010047BBH   LINE      CODE     ---       #296
      010047BBH   LINE      CODE     ---       #297
      010047C1H   LINE      CODE     ---       #299
      010047C1H   LINE      CODE     ---       #300
      010047CAH   LINE      CODE     ---       #301
      010047CCH   LINE      CODE     ---       #302
      010047CCH   LINE      CODE     ---       #303
      010047CCH   LINE      CODE     ---       #304
      010047DFH   LINE      CODE     ---       #306
      010047F1H   LINE      CODE     ---       #307
      01004809H   LINE      CODE     ---       #308
      0100480CH   LINE      CODE     ---       #309
      0100480CH   LINE      CODE     ---       #310
      0100480CH   LINE      CODE     ---       #311
      01004820H   LINE      CODE     ---       #314
      01004820H   LINE      CODE     ---       #315
      0100483AH   LINE      CODE     ---       #317
      0100483AH   LINE      CODE     ---       #318
      0100483AH   LINE      CODE     ---       #319
      0100484CH   LINE      CODE     ---       #322
      0100484CH   LINE      CODE     ---       #323
      01004855H   LINE      CODE     ---       #325
LX51 LINKER/LOCATER V4.66.97.0                                                        11/04/2023  11:13:39  PAGE 182


      01004857H   LINE      CODE     ---       #326
      01004857H   LINE      CODE     ---       #327
      01004857H   LINE      CODE     ---       #328
      01004860H   LINE      CODE     ---       #331
      01004860H   LINE      CODE     ---       #332
      0100486FH   LINE      CODE     ---       #334
      0100486FH   LINE      CODE     ---       #335
      0100486FH   LINE      CODE     ---       #336
      0100487EH   LINE      CODE     ---       #339
      0100487EH   LINE      CODE     ---       #340
      01004896H   LINE      CODE     ---       #342
      01004896H   LINE      CODE     ---       #343
      01004896H   LINE      CODE     ---       #346
      0100489FH   LINE      CODE     ---       #347
      ---         BLOCKEND  ---      ---       LVL=0

      01007752H   BLOCK     CODE     ---       LVL=0
      0200C854H   SYMBOL    XDATA    ---       p
      0200C857H   SYMBOL    XDATA    ---       p_time_module_scene
      01007758H   BLOCK     CODE     NEAR LAB  LVL=1
      0200C85AH   SYMBOL    XDATA    WORD      scene_dim_enable
      0200C85CH   SYMBOL    XDATA    WORD      scene_dim_enable_adr
      0200C85EH   SYMBOL    XDATA    WORD      scene_dim_gear_adr
      0200C860H   SYMBOL    XDATA    ---       temp_tab
      0200C868H   SYMBOL    XDATA    ---       dim_tab
      ---         BLOCKEND  ---      ---       LVL=1
      01007752H   LINE      CODE     ---       #350
      01007758H   LINE      CODE     ---       #351
      01007758H   LINE      CODE     ---       #352
      0100775BH   LINE      CODE     ---       #353
      0100775EH   LINE      CODE     ---       #354
      01007774H   LINE      CODE     ---       #355
      01007781H   LINE      CODE     ---       #356
      01007781H   LINE      CODE     ---       #357
      0100778BH   LINE      CODE     ---       #358
      01007793H   LINE      CODE     ---       #359
      01007795H   LINE      CODE     ---       #360
      0100779EH   LINE      CODE     ---       #361
      0100779EH   LINE      CODE     ---       #362
      010077A8H   LINE      CODE     ---       #363
      010077B0H   LINE      CODE     ---       #364
      010077B0H   LINE      CODE     ---       #366
      010077B0H   LINE      CODE     ---       #368
      010077B0H   LINE      CODE     ---       #369
      010077BCH   LINE      CODE     ---       #370
      010077CFH   LINE      CODE     ---       #371
      010077DBH   LINE      CODE     ---       #372
      010077EBH   LINE      CODE     ---       #374
      010077FAH   LINE      CODE     ---       #375
      01007831H   LINE      CODE     ---       #377
      01007840H   LINE      CODE     ---       #378
      01007855H   LINE      CODE     ---       #379
      01007864H   LINE      CODE     ---       #380
      01007873H   LINE      CODE     ---       #381
      01007882H   LINE      CODE     ---       #384
      ---         BLOCKEND  ---      ---       LVL=0

      01009CF7H   BLOCK     CODE     ---       LVL=0
      0200C84BH   SYMBOL    XDATA    ---       p
      01009CF7H   LINE      CODE     ---       #418
      01009CFAH   LINE      CODE     ---       #419
      01009CFAH   LINE      CODE     ---       #420
      01009D00H   LINE      CODE     ---       #421
      01009D10H   LINE      CODE     ---       #422
      01009D26H   LINE      CODE     ---       #423
LX51 LINKER/LOCATER V4.66.97.0                                                        11/04/2023  11:13:39  PAGE 183


      01009D3CH   LINE      CODE     ---       #425
      01009D5EH   LINE      CODE     ---       #426
      01009D5EH   LINE      CODE     ---       #427
      01009D5EH   LINE      CODE     ---       #428
      01009D64H   LINE      CODE     ---       #430
      01009D66H   LINE      CODE     ---       #431
      01009D66H   LINE      CODE     ---       #432
      01009D6CH   LINE      CODE     ---       #434
      01009D6EH   LINE      CODE     ---       #435
      01009D6EH   LINE      CODE     ---       #436
      01009D74H   LINE      CODE     ---       #438
      01009D76H   LINE      CODE     ---       #439
      01009D76H   LINE      CODE     ---       #440
      01009D7CH   LINE      CODE     ---       #442
      01009D7EH   LINE      CODE     ---       #443
      01009D7EH   LINE      CODE     ---       #444
      01009D84H   LINE      CODE     ---       #446
      01009D86H   LINE      CODE     ---       #447
      01009D86H   LINE      CODE     ---       #448
      01009D8CH   LINE      CODE     ---       #450
      01009D8CH   LINE      CODE     ---       #451
      01009D92H   LINE      CODE     ---       #453
      01009D92H   LINE      CODE     ---       #454
      01009D92H   LINE      CODE     ---       #455
      01009D92H   LINE      CODE     ---       #456
      01009D92H   LINE      CODE     ---       #457
      ---         BLOCKEND  ---      ---       LVL=0

      0100AE7BH   BLOCK     CODE     ---       LVL=0
      0200C84BH   SYMBOL    XDATA    ---       p
      0100AE7BH   LINE      CODE     ---       #460
      0100AE7EH   LINE      CODE     ---       #461
      0100AE7EH   LINE      CODE     ---       #462
      0100AE84H   LINE      CODE     ---       #463
      0100AE94H   LINE      CODE     ---       #464
      0100AEAAH   LINE      CODE     ---       #465
      0100AEC0H   LINE      CODE     ---       #467
      0100AECDH   LINE      CODE     ---       #468
      0100AECDH   LINE      CODE     ---       #469
      0100AECDH   LINE      CODE     ---       #470
      0100AED4H   LINE      CODE     ---       #471
      0100AEDAH   LINE      CODE     ---       #472
      0100AEDBH   LINE      CODE     ---       #473
      0100AEDBH   LINE      CODE     ---       #474
      0100AEE2H   LINE      CODE     ---       #475
      0100AEE8H   LINE      CODE     ---       #476
      0100AEE8H   LINE      CODE     ---       #477
      0100AEE8H   LINE      CODE     ---       #478
      0100AEE8H   LINE      CODE     ---       #479
      0100AEE8H   LINE      CODE     ---       #480
      ---         BLOCKEND  ---      ---       LVL=0

      01002A3AH   BLOCK     CODE     ---       LVL=0
      0200C84EH   SYMBOL    XDATA    ---       p_timing_content
      01002A40H   BLOCK     CODE     NEAR LAB  LVL=1
      0200C851H   SYMBOL    XDATA    ---       mod_infom_tab
      0200C906H   SYMBOL    XDATA    ---       module_name_1
      0200C917H   SYMBOL    XDATA    ---       led_on_tb
      0200C948H   SYMBOL    XDATA    ---       led_off_tb
      0200C979H   SYMBOL    XDATA    WORD      on_sta
      0200C97BH   SYMBOL    XDATA    WORD      off_sta
      0200C97DH   SYMBOL    XDATA    BYTE      i
      0200C97EH   SYMBOL    XDATA    BYTE      j
      0200C97FH   SYMBOL    XDATA    BYTE      k
      0200C980H   SYMBOL    XDATA    BYTE      l
LX51 LINKER/LOCATER V4.66.97.0                                                        11/04/2023  11:13:39  PAGE 184


      0200C981H   SYMBOL    XDATA    BYTE      m
      0200C982H   SYMBOL    XDATA    ---       dim_duty_tb
      0200C9AAH   SYMBOL    XDATA    ---       dim_duty_str
      0200C9B4H   SYMBOL    XDATA    BYTE      str_len_cal
      0200C9B5H   SYMBOL    XDATA    BYTE      str_adr
      0200C9B6H   SYMBOL    XDATA    WORD      str_count
      0200C9B8H   SYMBOL    XDATA    ---       channel
      0200C9E8H   SYMBOL    XDATA    ---       week_tb
      0200CA0BH   SYMBOL    XDATA    ---       temp_week_tb
      0200CA2FH   SYMBOL    XDATA    ---       module_read
      0200CB47H   SYMBOL    XDATA    ---       sce_name
      0200CB57H   SYMBOL    XDATA    ---       scene_name1
      ---         BLOCKEND  ---      ---       LVL=1
      01002A3AH   LINE      CODE     ---       #482
      01002A40H   LINE      CODE     ---       #483
      01002A40H   LINE      CODE     ---       #484
      01002A4DH   LINE      CODE     ---       #485
      01002A5AH   LINE      CODE     ---       #486
      01002A65H   LINE      CODE     ---       #487
      01002A70H   LINE      CODE     ---       #488
      01002A73H   LINE      CODE     ---       #489
      01002A79H   LINE      CODE     ---       #490
      01002A86H   LINE      CODE     ---       #491
      01002A93H   LINE      CODE     ---       #492
      01002A97H   LINE      CODE     ---       #493
      01002A97H   LINE      CODE     ---       #494
      01002A9AH   LINE      CODE     ---       #495
      01002AA7H   LINE      CODE     ---       #496
      01002AB4H   LINE      CODE     ---       #497
      01002AC1H   LINE      CODE     ---       #498
      01002AD0H   LINE      CODE     ---       #499
      01002ADBH   LINE      CODE     ---       #500
      01002AE8H   LINE      CODE     ---       #504
      01002AF5H   LINE      CODE     ---       #505
      01002AF5H   LINE      CODE     ---       #506
      01002B12H   LINE      CODE     ---       #507
      01002B12H   LINE      CODE     ---       #508
      01002B2CH   LINE      CODE     ---       #510
      01002B44H   LINE      CODE     ---       #512
      01002B50H   LINE      CODE     ---       #513
      01002B50H   LINE      CODE     ---       #514
      01002B6EH   LINE      CODE     ---       #515
      01002B6EH   LINE      CODE     ---       #516
      01002B91H   LINE      CODE     ---       #517
      01002B97H   LINE      CODE     ---       #518
      01002B97H   LINE      CODE     ---       #519
      01002B9CH   LINE      CODE     ---       #520
      01002BADH   LINE      CODE     ---       #521
      01002BADH   LINE      CODE     ---       #522
      01002BCBH   LINE      CODE     ---       #523
      01002BCBH   LINE      CODE     ---       #524
      01002BEEH   LINE      CODE     ---       #525
      01002BF4H   LINE      CODE     ---       #526
      01002BF4H   LINE      CODE     ---       #527
      01002BF9H   LINE      CODE     ---       #531
      01002BF9H   LINE      CODE     ---       #533
      01002BF9H   LINE      CODE     ---       #534
      01002C09H   LINE      CODE     ---       #535
      01002C09H   LINE      CODE     ---       #536
      01002C2EH   LINE      CODE     ---       #537
      01002C2EH   LINE      CODE     ---       #539
      01002C67H   LINE      CODE     ---       #541
      01002C75H   LINE      CODE     ---       #543
      01002C8AH   LINE      CODE     ---       #544
      01002C91H   LINE      CODE     ---       #546
LX51 LINKER/LOCATER V4.66.97.0                                                        11/04/2023  11:13:39  PAGE 185


      01002CB3H   LINE      CODE     ---       #547
      01002CBCH   LINE      CODE     ---       #548
      01002CC2H   LINE      CODE     ---       #549
      01002CC2H   LINE      CODE     ---       #550
      01002CC8H   LINE      CODE     ---       #553
      01002CC8H   LINE      CODE     ---       #554
      01002CC8H   LINE      CODE     ---       #555
      01002CC8H   LINE      CODE     ---       #556
      01002CC8H   LINE      CODE     ---       #557
      01002CC8H   LINE      CODE     ---       #558
      01002CC8H   LINE      CODE     ---       #559
      01002CC8H   LINE      CODE     ---       #560
      01002CC8H   LINE      CODE     ---       #562
      01002CC8H   LINE      CODE     ---       #563
      01002CC8H   LINE      CODE     ---       #564
      01002CDBH   LINE      CODE     ---       #565
      01002CDBH   LINE      CODE     ---       #566
      01002CF1H   LINE      CODE     ---       #567
      01002CF1H   LINE      CODE     ---       #569
      01002D21H   LINE      CODE     ---       #571
      01002D27H   LINE      CODE     ---       #572
      01002D27H   LINE      CODE     ---       #573
      01002D2CH   LINE      CODE     ---       #576
      01002D50H   LINE      CODE     ---       #578
      01002D63H   LINE      CODE     ---       #579
      01002D82H   LINE      CODE     ---       #581
      01002D90H   LINE      CODE     ---       #582
      01002D90H   LINE      CODE     ---       #583
      01002DA4H   LINE      CODE     ---       #584
      01002DA4H   LINE      CODE     ---       #585
      01002DD6H   LINE      CODE     ---       #586
      01002DD9H   LINE      CODE     ---       #587
      01002DEDH   LINE      CODE     ---       #588
      01002DEDH   LINE      CODE     ---       #589
      01002E11H   LINE      CODE     ---       #590
      01002E14H   LINE      CODE     ---       #591
      01002E28H   LINE      CODE     ---       #592
      01002E28H   LINE      CODE     ---       #593
      01002E51H   LINE      CODE     ---       #594
      01002E54H   LINE      CODE     ---       #595
      01002E5CH   LINE      CODE     ---       #596
      01002E5CH   LINE      CODE     ---       #597
      01002E85H   LINE      CODE     ---       #598
      01002E88H   LINE      CODE     ---       #599
      01002E92H   LINE      CODE     ---       #600
      01002E92H   LINE      CODE     ---       #601
      01002E99H   LINE      CODE     ---       #602
      01002E99H   LINE      CODE     ---       #603
      01002E99H   LINE      CODE     ---       #604
      01002E9CH   LINE      CODE     ---       #605
      01002EA8H   LINE      CODE     ---       #606
      01002EA8H   LINE      CODE     ---       #607
      01002EACH   LINE      CODE     ---       #608
      01002EAFH   LINE      CODE     ---       #610
      01002EAFH   LINE      CODE     ---       #611
      01002EB3H   LINE      CODE     ---       #612
      01002EB3H   LINE      CODE     ---       #613
      01002EB6H   LINE      CODE     ---       #614
      01002EC0H   LINE      CODE     ---       #615
      01002EC0H   LINE      CODE     ---       #616
      01002EC5H   LINE      CODE     ---       #617
      01002EC5H   LINE      CODE     ---       #618
      01002ECBH   LINE      CODE     ---       #619
      01002ECEH   LINE      CODE     ---       #621
      01002ECEH   LINE      CODE     ---       #622
LX51 LINKER/LOCATER V4.66.97.0                                                        11/04/2023  11:13:39  PAGE 186


      01002EEBH   LINE      CODE     ---       #624
      01002F1AH   LINE      CODE     ---       #628
      01002F1AH   LINE      CODE     ---       #629
      01002F1DH   LINE      CODE     ---       #632
      01002F1DH   LINE      CODE     ---       #633
      01002F3BH   LINE      CODE     ---       #634
      01002F3BH   LINE      CODE     ---       #635
      01002F3EH   LINE      CODE     ---       #637
      01002F3EH   LINE      CODE     ---       #638
      01002F52H   LINE      CODE     ---       #639
      01002F52H   LINE      CODE     ---       #640
      01002FB4H   LINE      CODE     ---       #641
      01002FB7H   LINE      CODE     ---       #642
      01002FCBH   LINE      CODE     ---       #643
      01002FCBH   LINE      CODE     ---       #644
      01002FEEH   LINE      CODE     ---       #645
      01002FF1H   LINE      CODE     ---       #646
      01003005H   LINE      CODE     ---       #647
      01003005H   LINE      CODE     ---       #648
      01003028H   LINE      CODE     ---       #649
      0100302BH   LINE      CODE     ---       #650
      01003033H   LINE      CODE     ---       #651
      01003033H   LINE      CODE     ---       #652
      01003058H   LINE      CODE     ---       #653
      0100305BH   LINE      CODE     ---       #654
      01003065H   LINE      CODE     ---       #655
      01003065H   LINE      CODE     ---       #656
      0100306CH   LINE      CODE     ---       #657
      0100306CH   LINE      CODE     ---       #658
      01003072H   LINE      CODE     ---       #659
      01003074H   LINE      CODE     ---       #660
      01003080H   LINE      CODE     ---       #661
      01003080H   LINE      CODE     ---       #662
      01003084H   LINE      CODE     ---       #663
      01003086H   LINE      CODE     ---       #665
      01003086H   LINE      CODE     ---       #666
      01003096H   LINE      CODE     ---       #667
      01003096H   LINE      CODE     ---       #668
      01003098H   LINE      CODE     ---       #669
      010030A2H   LINE      CODE     ---       #670
      010030A2H   LINE      CODE     ---       #671
      010030A9H   LINE      CODE     ---       #672
      010030A9H   LINE      CODE     ---       #673
      010030B9H   LINE      CODE     ---       #674
      010030BBH   LINE      CODE     ---       #676
      010030BBH   LINE      CODE     ---       #677
      010030D5H   LINE      CODE     ---       #678
      010030D5H   LINE      CODE     ---       #679
      010030D7H   LINE      CODE     ---       #681
      010030D7H   LINE      CODE     ---       #682
      01003140H   LINE      CODE     ---       #683
      01003140H   LINE      CODE     ---       #684
      01003140H   LINE      CODE     ---       #687
      ---         BLOCKEND  ---      ---       LVL=0

      0100B96EH   BLOCK     CODE     ---       LVL=0
      0200C848H   SYMBOL    XDATA    ---       p
      00000005H   SYMBOL    DATA     BYTE      key
      0100B96EH   LINE      CODE     ---       #691
      0100B974H   LINE      CODE     ---       #692
      0100B974H   LINE      CODE     ---       #694
      0100B991H   LINE      CODE     ---       #696
      0100B999H   LINE      CODE     ---       #697
      0100B999H   LINE      CODE     ---       #699
      0100B999H   LINE      CODE     ---       #700
LX51 LINKER/LOCATER V4.66.97.0                                                        11/04/2023  11:13:39  PAGE 187


      0100B9AFH   LINE      CODE     ---       #701
      0100B9AFH   LINE      CODE     ---       #702
      0100B9AFH   LINE      CODE     ---       #703
      0100B9AFH   LINE      CODE     ---       #704
      0100B9AFH   LINE      CODE     ---       #705
      0100B9AFH   LINE      CODE     ---       #707
      0100B9B2H   LINE      CODE     ---       #708
      0100B9B8H   LINE      CODE     ---       #710
      0100B9BAH   LINE      CODE     ---       #711
      0100B9BAH   LINE      CODE     ---       #712
      0100B9BAH   LINE      CODE     ---       #714
      0100B9C3H   LINE      CODE     ---       #715
      0100B9CCH   LINE      CODE     ---       #717
      0100B9CCH   LINE      CODE     ---       #718
      0100B9CCH   LINE      CODE     ---       #719
      0100B9CCH   LINE      CODE     ---       #721
      0100B9CCH   LINE      CODE     ---       #722
      0100B9CCH   LINE      CODE     ---       #723
      ---         BLOCKEND  ---      ---       LVL=0

      0100CB89H   BLOCK     CODE     ---       LVL=0
      0200C83AH   SYMBOL    XDATA    ---       p
      0100CB8FH   BLOCK     CODE     NEAR LAB  LVL=1
      0200C83DH   SYMBOL    XDATA    WORD      key_nb
      ---         BLOCKEND  ---      ---       LVL=1
      0100CB89H   LINE      CODE     ---       #725
      0100CB8FH   LINE      CODE     ---       #726
      0100CB8FH   LINE      CODE     ---       #727
      0100CB92H   LINE      CODE     ---       #728
      0100CBA0H   LINE      CODE     ---       #729
      0100CBA8H   LINE      CODE     ---       #730
      0100CBA8H   LINE      CODE     ---       #731
      0100CBB3H   LINE      CODE     ---       #732
      0100CBC0H   LINE      CODE     ---       #733
      0100CBC0H   LINE      CODE     ---       #734
      ---         BLOCKEND  ---      ---       LVL=0

      0100CC2FH   BLOCK     CODE     ---       LVL=0
      0200C842H   SYMBOL    XDATA    ---       p_time_scene
      0100CC35H   BLOCK     CODE     NEAR LAB  LVL=1
      0200C845H   SYMBOL    XDATA    BYTE      index
      ---         BLOCKEND  ---      ---       LVL=1
      0100CC2FH   LINE      CODE     ---       #736
      0100CC35H   LINE      CODE     ---       #737
      0100CC35H   LINE      CODE     ---       #738
      0100CC3AH   LINE      CODE     ---       #739
      0100CC42H   LINE      CODE     ---       #740
      0100CC45H   LINE      CODE     ---       #741
      0100CC45H   LINE      CODE     ---       #742
      0100CC4EH   LINE      CODE     ---       #743
      0100CC53H   LINE      CODE     ---       #745
      0100CC53H   LINE      CODE     ---       #746
      0100CC5AH   LINE      CODE     ---       #747
      0100CC65H   LINE      CODE     ---       #749
      ---         BLOCKEND  ---      ---       LVL=0

      0100AE0CH   BLOCK     CODE     ---       LVL=0
      0200C842H   SYMBOL    XDATA    ---       p_timing_content
      0200C845H   SYMBOL    XDATA    ---       p_time_scene
      0100AE12H   BLOCK     CODE     NEAR LAB  LVL=1
      0200C848H   SYMBOL    XDATA    WORD      key_nb
      ---         BLOCKEND  ---      ---       LVL=1
      0100AE0CH   LINE      CODE     ---       #751
      0100AE12H   LINE      CODE     ---       #752
      0100AE12H   LINE      CODE     ---       #753
LX51 LINKER/LOCATER V4.66.97.0                                                        11/04/2023  11:13:39  PAGE 188


      0100AE15H   LINE      CODE     ---       #754
      0100AE23H   LINE      CODE     ---       #755
      0100AE2FH   LINE      CODE     ---       #756
      0100AE2FH   LINE      CODE     ---       #757
      0100AE3CH   LINE      CODE     ---       #758
      0100AE45H   LINE      CODE     ---       #760
      0100AE71H   LINE      CODE     ---       #761
      0100AE7AH   LINE      CODE     ---       #762
      0100AE7AH   LINE      CODE     ---       #763
      ---         BLOCKEND  ---      ---       LVL=0

      0100C82CH   BLOCK     CODE     ---       LVL=0
      0200C842H   SYMBOL    XDATA    ---       p_timing_content
      0100C832H   BLOCK     CODE     NEAR LAB  LVL=1
      0200C845H   SYMBOL    XDATA    WORD      key_nb
      ---         BLOCKEND  ---      ---       LVL=1
      0100C82CH   LINE      CODE     ---       #765
      0100C832H   LINE      CODE     ---       #766
      0100C832H   LINE      CODE     ---       #767
      0100C835H   LINE      CODE     ---       #768
      0100C843H   LINE      CODE     ---       #769
      0100C84FH   LINE      CODE     ---       #770
      0100C84FH   LINE      CODE     ---       #771
      0100C858H   LINE      CODE     ---       #772
      0100C865H   LINE      CODE     ---       #773
      0100C86EH   LINE      CODE     ---       #774
      0100C86EH   LINE      CODE     ---       #775
      ---         BLOCKEND  ---      ---       LVL=0

      0100D60AH   BLOCK     CODE     ---       LVL=0
      00000001H   SYMBOL    DATA     ---       p_timing_content
      0100D60AH   LINE      CODE     ---       #776
      0100D60AH   LINE      CODE     ---       #777
      0100D60AH   LINE      CODE     ---       #778
      ---         BLOCKEND  ---      ---       LVL=0

      0100C3F2H   BLOCK     CODE     ---       LVL=0
      0200C848H   SYMBOL    XDATA    ---       p_timing_content
      0100C3F2H   LINE      CODE     ---       #780
      0100C3F8H   LINE      CODE     ---       #781
      0100C3F8H   LINE      CODE     ---       #782
      0100C3FFH   LINE      CODE     ---       #783
      0100C406H   LINE      CODE     ---       #784
      0100C406H   LINE      CODE     ---       #785
      0100C410H   LINE      CODE     ---       #786
      0100C413H   LINE      CODE     ---       #787
      0100C415H   LINE      CODE     ---       #788
      0100C41CH   LINE      CODE     ---       #789
      0100C41CH   LINE      CODE     ---       #790
      0100C41FH   LINE      CODE     ---       #791
      0100C423H   LINE      CODE     ---       #792
      0100C425H   LINE      CODE     ---       #794
      0100C425H   LINE      CODE     ---       #795
      0100C429H   LINE      CODE     ---       #796
      0100C433H   LINE      CODE     ---       #797
      0100C433H   LINE      CODE     ---       #798
      ---         BLOCKEND  ---      ---       LVL=0

      0100C4D4H   BLOCK     CODE     ---       LVL=0
      0200C848H   SYMBOL    XDATA    ---       p_timing_content
      0100C4DAH   BLOCK     CODE     NEAR LAB  LVL=1
      0200C84BH   SYMBOL    XDATA    ---       scene_name
      ---         BLOCKEND  ---      ---       LVL=1
      0100C4D4H   LINE      CODE     ---       #800
      0100C4DAH   LINE      CODE     ---       #801
LX51 LINKER/LOCATER V4.66.97.0                                                        11/04/2023  11:13:39  PAGE 189


      0100C4DAH   LINE      CODE     ---       #802
      0100C4E5H   LINE      CODE     ---       #803
      0100C4ECH   LINE      CODE     ---       #804
      0100C50CH   LINE      CODE     ---       #805
      ---         BLOCKEND  ---      ---       LVL=0

      01006F61H   BLOCK     CODE     ---       LVL=0
      0200C842H   SYMBOL    XDATA    ---       p_timing_content
      0200C845H   SYMBOL    XDATA    ---       p_time_scene
      01006F61H   LINE      CODE     ---       #808
      01006F67H   LINE      CODE     ---       #809
      01006F67H   LINE      CODE     ---       #810
      01006F70H   LINE      CODE     ---       #812
      01006F79H   LINE      CODE     ---       #813
      01006F8AH   LINE      CODE     ---       #815
      01006F95H   LINE      CODE     ---       #817
      01006FA5H   LINE      CODE     ---       #818
      01006FAEH   LINE      CODE     ---       #819
      01006FF2H   LINE      CODE     ---       #821
      0100700DH   LINE      CODE     ---       #822
      0100700DH   LINE      CODE     ---       #823
      0100700DH   LINE      CODE     ---       #824
      01007022H   LINE      CODE     ---       #825
      0100703CH   LINE      CODE     ---       #827
      0100704BH   LINE      CODE     ---       #828
      01007051H   LINE      CODE     ---       #829
      01007054H   LINE      CODE     ---       #830
      01007056H   LINE      CODE     ---       #831
      01007058H   LINE      CODE     ---       #832
      01007058H   LINE      CODE     ---       #833
      01007061H   LINE      CODE     ---       #834
      0100706DH   LINE      CODE     ---       #835
      01007072H   LINE      CODE     ---       #836
      01007075H   LINE      CODE     ---       #837
      01007078H   LINE      CODE     ---       #838
      0100707AH   LINE      CODE     ---       #839
      0100707AH   LINE      CODE     ---       #840
      01007083H   LINE      CODE     ---       #841
      0100708FH   LINE      CODE     ---       #842
      0100708FH   LINE      CODE     ---       #843
      0100708FH   LINE      CODE     ---       #844
      01007094H   LINE      CODE     ---       #845
      01007094H   LINE      CODE     ---       #846
      01007094H   LINE      CODE     ---       #847
      01007094H   LINE      CODE     ---       #848
      01007094H   LINE      CODE     ---       #849
      0100709CH   LINE      CODE     ---       #850
      010070A4H   LINE      CODE     ---       #851
      010070B2H   LINE      CODE     ---       #852
      ---         BLOCKEND  ---      ---       LVL=0

      0100C1C7H   BLOCK     CODE     ---       LVL=0
      0200C83AH   SYMBOL    XDATA    ---       p_timing_content
      0200C83DH   SYMBOL    XDATA    ---       p_time_scene
      0100C1CDH   BLOCK     CODE     NEAR LAB  LVL=1
      0200C840H   SYMBOL    XDATA    WORD      key_nb
      ---         BLOCKEND  ---      ---       LVL=1
      0100C1C7H   LINE      CODE     ---       #854
      0100C1CDH   LINE      CODE     ---       #855
      0100C1CDH   LINE      CODE     ---       #856
      0100C1D4H   LINE      CODE     ---       #857
      0100C1D7H   LINE      CODE     ---       #858
      0100C1E3H   LINE      CODE     ---       #859
      0100C1E9H   LINE      CODE     ---       #860
      0100C1F1H   LINE      CODE     ---       #861
LX51 LINKER/LOCATER V4.66.97.0                                                        11/04/2023  11:13:39  PAGE 190


      0100C1F1H   LINE      CODE     ---       #862
      0100C1FDH   LINE      CODE     ---       #863
      0100C1FDH   LINE      CODE     ---       #864
      0100C1FDH   LINE      CODE     ---       #865
      0100C203H   LINE      CODE     ---       #867
      0100C205H   LINE      CODE     ---       #868
      0100C205H   LINE      CODE     ---       #869
      0100C211H   LINE      CODE     ---       #870
      0100C211H   LINE      CODE     ---       #871
      0100C211H   LINE      CODE     ---       #873
      0100C211H   LINE      CODE     ---       #874
      0100C211H   LINE      CODE     ---       #875
      0100C217H   LINE      CODE     ---       #876
      0100C217H   LINE      CODE     ---       #877
      ---         BLOCKEND  ---      ---       LVL=0

      0100CD07H   BLOCK     CODE     ---       LVL=0
      0200C84EH   SYMBOL    XDATA    ---       p_module
      0200C851H   SYMBOL    XDATA    ---       p_timing_content
      0100CD07H   LINE      CODE     ---       #879
      0100CD0DH   LINE      CODE     ---       #880
      0100CD0DH   LINE      CODE     ---       #889
      0100CD19H   LINE      CODE     ---       #890
      0100CD25H   LINE      CODE     ---       #891
      0100CD33H   LINE      CODE     ---       #892
      ---         BLOCKEND  ---      ---       LVL=0

      01008DEDH   BLOCK     CODE     ---       LVL=0
      0200C845H   SYMBOL    XDATA    ---       p_module
      0200C848H   SYMBOL    XDATA    ---       p_timing_content
      0200C84BH   SYMBOL    XDATA    ---       p_time_scene_set
      01008DEDH   LINE      CODE     ---       #894
      01008DF3H   LINE      CODE     ---       #895
      01008DF3H   LINE      CODE     ---       #896
      01008DFFH   LINE      CODE     ---       #897
      01008E10H   LINE      CODE     ---       #898
      01008E31H   LINE      CODE     ---       #900
      01008E43H   LINE      CODE     ---       #901
      01008E49H   LINE      CODE     ---       #902
      01008E4FH   LINE      CODE     ---       #903
      01008E55H   LINE      CODE     ---       #905
      01008E58H   LINE      CODE     ---       #907
      01008E68H   LINE      CODE     ---       #908
      01008E78H   LINE      CODE     ---       #909
      01008E78H   LINE      CODE     ---       #911
      01008E82H   LINE      CODE     ---       #912
      01008E82H   LINE      CODE     ---       #913
      01008E82H   LINE      CODE     ---       #915
      01008E84H   LINE      CODE     ---       #917
      01008E84H   LINE      CODE     ---       #918
      01008E94H   LINE      CODE     ---       #919
      01008E9AH   LINE      CODE     ---       #920
      01008EA7H   LINE      CODE     ---       #921
      01008EB1H   LINE      CODE     ---       #922
      01008EB1H   LINE      CODE     ---       #924
      ---         BLOCKEND  ---      ---       LVL=0

      0100D617H   BLOCK     CODE     ---       LVL=0
      0100D617H   LINE      CODE     ---       #925
      0100D617H   LINE      CODE     ---       #926
      0100D617H   LINE      CODE     ---       #927
      0100D61AH   LINE      CODE     ---       #928
      ---         BLOCKEND  ---      ---       LVL=0

      0100C974H   BLOCK     CODE     ---       LVL=0
LX51 LINKER/LOCATER V4.66.97.0                                                        11/04/2023  11:13:39  PAGE 191


      0200C84EH   SYMBOL    XDATA    ---       p_time_scene
      0100C974H   LINE      CODE     ---       #930
      0100C97AH   LINE      CODE     ---       #931
      0100C97AH   LINE      CODE     ---       #933
      0100C980H   LINE      CODE     ---       #934
      0100C980H   LINE      CODE     ---       #935
      0100C988H   LINE      CODE     ---       #937
      0100C988H   LINE      CODE     ---       #938
      0100C993H   LINE      CODE     ---       #939
      0100C9A1H   LINE      CODE     ---       #940
      0100C9B1H   LINE      CODE     ---       #941
      ---         BLOCKEND  ---      ---       LVL=0

      0100B54AH   BLOCK     CODE     ---       LVL=0
      0200C845H   SYMBOL    XDATA    ---       p_time_scene
      0200C848H   SYMBOL    XDATA    ---       p_timing_content
      0200C84BH   SYMBOL    XDATA    ---       p_time_scene_set
      0100B54AH   LINE      CODE     ---       #942
      0100B550H   LINE      CODE     ---       #943
      0100B550H   LINE      CODE     ---       #944
      0100B55CH   LINE      CODE     ---       #945
      0100B56DH   LINE      CODE     ---       #946
      0100B58EH   LINE      CODE     ---       #948
      0100B597H   LINE      CODE     ---       #949
      0100B5A0H   LINE      CODE     ---       #950
      0100B5A3H   LINE      CODE     ---       #951
      ---         BLOCKEND  ---      ---       LVL=0

      0100BF7CH   BLOCK     CODE     ---       LVL=0
      0200C84EH   SYMBOL    XDATA    ---       p_time_scene
      0100BF82H   BLOCK     CODE     NEAR LAB  LVL=1
      0200C851H   SYMBOL    XDATA    BYTE      on_sta
      00000007H   SYMBOL    DATA     BYTE      off_sta
      ---         BLOCKEND  ---      ---       LVL=1
      0100BF7CH   LINE      CODE     ---       #955
      0100BF82H   LINE      CODE     ---       #956
      0100BF82H   LINE      CODE     ---       #957
      0100BF87H   LINE      CODE     ---       #958
      0100BF93H   LINE      CODE     ---       #959
      0100BF9AH   LINE      CODE     ---       #960
      0100BFA4H   LINE      CODE     ---       #961
      0100BFA4H   LINE      CODE     ---       #962
      0100BFABH   LINE      CODE     ---       #963
      0100BFACH   LINE      CODE     ---       #964
      0100BFAEH   LINE      CODE     ---       #965
      0100BFB3H   LINE      CODE     ---       #966
      0100BFB3H   LINE      CODE     ---       #967
      0100BFBBH   LINE      CODE     ---       #968
      0100BFBDH   LINE      CODE     ---       #969
      0100BFBFH   LINE      CODE     ---       #970
      0100BFC4H   LINE      CODE     ---       #971
      0100BFC4H   LINE      CODE     ---       #972
      0100BFCCH   LINE      CODE     ---       #973
      0100BFD1H   LINE      CODE     ---       #974
      0100BFD1H   LINE      CODE     ---       #975
      ---         BLOCKEND  ---      ---       LVL=0

      0100B485H   BLOCK     CODE     ---       LVL=0
      0200C845H   SYMBOL    XDATA    ---       p_time_scene
      0200C848H   SYMBOL    XDATA    ---       p_timing_content
      0200C84BH   SYMBOL    XDATA    ---       p_time_scene_set
      0100B485H   LINE      CODE     ---       #976
      0100B48BH   LINE      CODE     ---       #977
      0100B48BH   LINE      CODE     ---       #978
      0100B498H   LINE      CODE     ---       #979
LX51 LINKER/LOCATER V4.66.97.0                                                        11/04/2023  11:13:39  PAGE 192


      0100B4A9H   LINE      CODE     ---       #980
      0100B4CAH   LINE      CODE     ---       #982
      0100B4D3H   LINE      CODE     ---       #983
      0100B4DCH   LINE      CODE     ---       #984
      0100B4E5H   LINE      CODE     ---       #985
      ---         BLOCKEND  ---      ---       LVL=0

      010094ABH   BLOCK     CODE     ---       LVL=0
      0200C83AH   SYMBOL    XDATA    ---       p_module
      0200C83DH   SYMBOL    XDATA    ---       p_timing_content
      0200C840H   SYMBOL    XDATA    ---       p_time_scene_set
      010094B1H   BLOCK     CODE     NEAR LAB  LVL=1
      0200C843H   SYMBOL    XDATA    WORD      key_nb
      ---         BLOCKEND  ---      ---       LVL=1
      010094ABH   LINE      CODE     ---       #987
      010094B1H   LINE      CODE     ---       #988
      010094B1H   LINE      CODE     ---       #989
      010094B4H   LINE      CODE     ---       #990
      010094C2H   LINE      CODE     ---       #991
      010094CDH   LINE      CODE     ---       #992
      010094CDH   LINE      CODE     ---       #993
      010094E5H   LINE      CODE     ---       #994
      010094E5H   LINE      CODE     ---       #995
      010094E5H   LINE      CODE     ---       #996
      010094FDH   LINE      CODE     ---       #998
      010094FFH   LINE      CODE     ---       #999
      010094FFH   LINE      CODE     ---       #1000
      010094FFH   LINE      CODE     ---       #1001
      01009501H   LINE      CODE     ---       #1002
      01009501H   LINE      CODE     ---       #1003
      01009529H   LINE      CODE     ---       #1006
      0100952BH   LINE      CODE     ---       #1007
      0100952BH   LINE      CODE     ---       #1008
      01009553H   LINE      CODE     ---       #1010
      01009555H   LINE      CODE     ---       #1011
      01009558H   LINE      CODE     ---       #1013
      01009558H   LINE      CODE     ---       #1014
      01009558H   LINE      CODE     ---       #1015
      01009558H   LINE      CODE     ---       #1016
      01009558H   LINE      CODE     ---       #1017
      01009565H   LINE      CODE     ---       #1018
      01009565H   LINE      CODE     ---       #1019
      ---         BLOCKEND  ---      ---       LVL=0

      01007F52H   BLOCK     CODE     ---       LVL=0
      0200C83AH   SYMBOL    XDATA    ---       p_module
      0200C83DH   SYMBOL    XDATA    ---       p_timing_content
      01007F58H   BLOCK     CODE     NEAR LAB  LVL=1
      0200C840H   SYMBOL    XDATA    WORD      key_nb
      ---         BLOCKEND  ---      ---       LVL=1
      01007F52H   LINE      CODE     ---       #1021
      01007F58H   LINE      CODE     ---       #1022
      01007F58H   LINE      CODE     ---       #1023
      01007F5FH   LINE      CODE     ---       #1025
      01007F65H   LINE      CODE     ---       #1026
      01007F70H   LINE      CODE     ---       #1027
      01007F70H   LINE      CODE     ---       #1028
      01007F88H   LINE      CODE     ---       #1029
      01007F88H   LINE      CODE     ---       #1030
      01007F88H   LINE      CODE     ---       #1031
      01007F8EH   LINE      CODE     ---       #1032
      01007F91H   LINE      CODE     ---       #1033
      01007F94H   LINE      CODE     ---       #1034
      01007F99H   LINE      CODE     ---       #1035
      01007F9BH   LINE      CODE     ---       #1037
LX51 LINKER/LOCATER V4.66.97.0                                                        11/04/2023  11:13:39  PAGE 193


      01007FA3H   LINE      CODE     ---       #1038
      01007FA3H   LINE      CODE     ---       #1039
      01007FA6H   LINE      CODE     ---       #1040
      01007FA8H   LINE      CODE     ---       #1042
      01007FA8H   LINE      CODE     ---       #1043
      01007FB2H   LINE      CODE     ---       #1044
      01007FB2H   LINE      CODE     ---       #1045
      01007FB8H   LINE      CODE     ---       #1046
      01007FB8H   LINE      CODE     ---       #1047
      01007FB8H   LINE      CODE     ---       #1048
      01007FB8H   LINE      CODE     ---       #1049
      01007FBAH   LINE      CODE     ---       #1051
      01007FBAH   LINE      CODE     ---       #1052
      01007FBFH   LINE      CODE     ---       #1053
      01007FBFH   LINE      CODE     ---       #1054
      01007FC1H   LINE      CODE     ---       #1055
      01007FC1H   LINE      CODE     ---       #1056
      01007FCBH   LINE      CODE     ---       #1057
      01007FD8H   LINE      CODE     ---       #1058
      01007FDBH   LINE      CODE     ---       #1059
      01007FE0H   LINE      CODE     ---       #1060
      01007FE4H   LINE      CODE     ---       #1062
      01007FEAH   LINE      CODE     ---       #1063
      01007FEAH   LINE      CODE     ---       #1064
      01007FF0H   LINE      CODE     ---       #1065
      01007FF4H   LINE      CODE     ---       #1066
      01007FF6H   LINE      CODE     ---       #1068
      01007FF6H   LINE      CODE     ---       #1069
      01007FFDH   LINE      CODE     ---       #1070
      01008002H   LINE      CODE     ---       #1071
      01008002H   LINE      CODE     ---       #1073
      01008004H   LINE      CODE     ---       #1074
      01008004H   LINE      CODE     ---       #1075
      01008007H   LINE      CODE     ---       #1076
      0100800AH   LINE      CODE     ---       #1077
      01008017H   LINE      CODE     ---       #1079
      01008017H   LINE      CODE     ---       #1080
      01008017H   LINE      CODE     ---       #1081
      0100801DH   LINE      CODE     ---       #1082
      0100801DH   LINE      CODE     ---       #1083
      01008023H   LINE      CODE     ---       #1084
      01008027H   LINE      CODE     ---       #1085
      01008029H   LINE      CODE     ---       #1087
      01008029H   LINE      CODE     ---       #1088
      01008030H   LINE      CODE     ---       #1089
      01008038H   LINE      CODE     ---       #1090
      01008038H   LINE      CODE     ---       #1091
      01008038H   LINE      CODE     ---       #1092
      01008038H   LINE      CODE     ---       #1093
      0100803EH   LINE      CODE     ---       #1094
      0100803EH   LINE      CODE     ---       #1095
      ---         BLOCKEND  ---      ---       LVL=0

      01009833H   BLOCK     CODE     ---       LVL=0
      0200C83AH   SYMBOL    XDATA    ---       p_time_scene_set
      01009839H   BLOCK     CODE     NEAR LAB  LVL=1
      0200C83DH   SYMBOL    XDATA    WORD      key_nb
      0200C83FH   SYMBOL    XDATA    ---       scene_name
      ---         BLOCKEND  ---      ---       LVL=1
      01009833H   LINE      CODE     ---       #1097
      01009839H   LINE      CODE     ---       #1098
      01009839H   LINE      CODE     ---       #1099
      01009840H   LINE      CODE     ---       #1100
      0100984EH   LINE      CODE     ---       #1101
      01009854H   LINE      CODE     ---       #1102
LX51 LINKER/LOCATER V4.66.97.0                                                        11/04/2023  11:13:39  PAGE 194


      0100985FH   LINE      CODE     ---       #1103
      0100985FH   LINE      CODE     ---       #1104
      0100987FH   LINE      CODE     ---       #1105
      01009892H   LINE      CODE     ---       #1106
      01009898H   LINE      CODE     ---       #1107
      010098AAH   LINE      CODE     ---       #1108
      010098AAH   LINE      CODE     ---       #1109
      010098BAH   LINE      CODE     ---       #1110
      010098C7H   LINE      CODE     ---       #1111
      010098C9H   LINE      CODE     ---       #1113
      010098C9H   LINE      CODE     ---       #1114
      010098D3H   LINE      CODE     ---       #1115
      010098DCH   LINE      CODE     ---       #1116
      010098DCH   LINE      CODE     ---       #1117
      010098E3H   LINE      CODE     ---       #1118
      010098E3H   LINE      CODE     ---       #1119
      ---         BLOCKEND  ---      ---       LVL=0

      0100B9CDH   BLOCK     CODE     ---       LVL=0
      0100B9CDH   BLOCK     CODE     NEAR LAB  LVL=1
      0200C83AH   SYMBOL    XDATA    WORD      key_nb
      ---         BLOCKEND  ---      ---       LVL=1
      0100B9CDH   LINE      CODE     ---       #1121
      0100B9CDH   LINE      CODE     ---       #1122
      0100B9CDH   LINE      CODE     ---       #1123
      0100B9D4H   LINE      CODE     ---       #1125
      0100B9DAH   LINE      CODE     ---       #1126
      0100B9E2H   LINE      CODE     ---       #1127
      0100B9E2H   LINE      CODE     ---       #1128
      0100B9EDH   LINE      CODE     ---       #1129
      0100B9EDH   LINE      CODE     ---       #1130
      0100B9EDH   LINE      CODE     ---       #1131
      0100B9FAH   LINE      CODE     ---       #1132
      0100B9FCH   LINE      CODE     ---       #1133
      0100BA03H   LINE      CODE     ---       #1134
      0100BA05H   LINE      CODE     ---       #1135
      0100BA05H   LINE      CODE     ---       #1136
      0100BA12H   LINE      CODE     ---       #1137
      0100BA14H   LINE      CODE     ---       #1138
      0100BA1BH   LINE      CODE     ---       #1139
      0100BA1BH   LINE      CODE     ---       #1140
      0100BA1BH   LINE      CODE     ---       #1141
      0100BA21H   LINE      CODE     ---       #1142
      0100BA21H   LINE      CODE     ---       #1143
      ---         BLOCKEND  ---      ---       LVL=0

      0100A42BH   BLOCK     CODE     ---       LVL=0
      0200C83AH   SYMBOL    XDATA    ---       p
      0100A42BH   LINE      CODE     ---       #1145
      0100A431H   LINE      CODE     ---       #1146
      0100A431H   LINE      CODE     ---       #1147
      0100A441H   LINE      CODE     ---       #1148
      0100A441H   LINE      CODE     ---       #1149
      0100A44DH   LINE      CODE     ---       #1150
      0100A44FH   LINE      CODE     ---       #1152
      0100A44FH   LINE      CODE     ---       #1153
      0100A475H   LINE      CODE     ---       #1154
      0100A475H   LINE      CODE     ---       #1155
      0100A484H   LINE      CODE     ---       #1156
      0100A491H   LINE      CODE     ---       #1157
      0100A4A3H   LINE      CODE     ---       #1158
      0100A4ACH   LINE      CODE     ---       #1159
      ---         BLOCKEND  ---      ---       LVL=0

      0100C8F3H   BLOCK     CODE     ---       LVL=0
LX51 LINKER/LOCATER V4.66.97.0                                                        11/04/2023  11:13:39  PAGE 195


      0200C83AH   SYMBOL    XDATA    ---       p
      0100C8F3H   LINE      CODE     ---       #1162
      0100C8F9H   LINE      CODE     ---       #1163
      0100C8F9H   LINE      CODE     ---       #1164
      0100C911H   LINE      CODE     ---       #1165
      0100C923H   LINE      CODE     ---       #1166
      ---         BLOCKEND  ---      ---       LVL=0

      0100AD9CH   BLOCK     CODE     ---       LVL=0
      0200C83AH   SYMBOL    XDATA    ---       p
      0100AD9CH   LINE      CODE     ---       #1169
      0100ADA2H   LINE      CODE     ---       #1170
      0100ADA2H   LINE      CODE     ---       #1171
      0100ADAFH   LINE      CODE     ---       #1172
      0100ADAFH   LINE      CODE     ---       #1173
      0100ADBCH   LINE      CODE     ---       #1174
      0100ADC6H   LINE      CODE     ---       #1175
      0100ADC6H   LINE      CODE     ---       #1176
      0100ADC8H   LINE      CODE     ---       #1177
      0100ADD5H   LINE      CODE     ---       #1178
      0100ADD5H   LINE      CODE     ---       #1179
      0100ADE2H   LINE      CODE     ---       #1180
      0100ADEFH   LINE      CODE     ---       #1181
      0100ADFAH   LINE      CODE     ---       #1182
      0100ADFAH   LINE      CODE     ---       #1183
      ---         BLOCKEND  ---      ---       LVL=0

      01005AC4H   BLOCK     CODE     ---       LVL=0
      01005AC4H   BLOCK     CODE     NEAR LAB  LVL=1
      0200C83AH   SYMBOL    XDATA    BYTE      i
      0200C83BH   SYMBOL    XDATA    ---       sys_time
      02009410H   SYMBOL    XDATA    BYTE      sec_bak
      0200C843H   SYMBOL    XDATA    ---       temp_date
      0200C847H   SYMBOL    XDATA    ---       temp_time
      0200C84AH   SYMBOL    XDATA    BYTE      week
      ---         BLOCKEND  ---      ---       LVL=1
      01005AC4H   LINE      CODE     ---       #1186
      01005AC4H   LINE      CODE     ---       #1187
      01005AC4H   LINE      CODE     ---       #1188
      01005AC9H   LINE      CODE     ---       #1189
      01005AD4H   LINE      CODE     ---       #1191
      01005ADFH   LINE      CODE     ---       #1192
      01005AF2H   LINE      CODE     ---       #1193
      01005AF7H   LINE      CODE     ---       #1194
      01005B00H   LINE      CODE     ---       #1195
      01005B0DH   LINE      CODE     ---       #1196
      01005B15H   LINE      CODE     ---       #1197
      01005B1DH   LINE      CODE     ---       #1198
      01005B37H   LINE      CODE     ---       #1199
      01005B3FH   LINE      CODE     ---       #1200
      01005B47H   LINE      CODE     ---       #1201
      01005B50H   LINE      CODE     ---       #1203
      01005B5AH   LINE      CODE     ---       #1204
      01005B5AH   LINE      CODE     ---       #1205
      01005B62H   LINE      CODE     ---       #1206
      01005B72H   LINE      CODE     ---       #1207
      01005B72H   LINE      CODE     ---       #1208
      01005B7AH   LINE      CODE     ---       #1209
      01005B7AH   LINE      CODE     ---       #1210
      01005B89H   LINE      CODE     ---       #1211
      01005B89H   LINE      CODE     ---       #1213
      01005BAEH   LINE      CODE     ---       #1214
      01005BAEH   LINE      CODE     ---       #1216
      01005BFDH   LINE      CODE     ---       #1217
      01005BFDH   LINE      CODE     ---       #1218
LX51 LINKER/LOCATER V4.66.97.0                                                        11/04/2023  11:13:39  PAGE 196


      01005C06H   LINE      CODE     ---       #1219
      01005C16H   LINE      CODE     ---       #1220
      01005C16H   LINE      CODE     ---       #1221
      01005C16H   LINE      CODE     ---       #1222
      01005C19H   LINE      CODE     ---       #1224
      01005C19H   LINE      CODE     ---       #1225
      01005CA7H   LINE      CODE     ---       #1226
      01005CA7H   LINE      CODE     ---       #1227
      01005CDCH   LINE      CODE     ---       #1228
      01005CDCH   LINE      CODE     ---       #1229
      01005D37H   LINE      CODE     ---       #1230
      01005D37H   LINE      CODE     ---       #1231
      01005D55H   LINE      CODE     ---       #1232
      01005D55H   LINE      CODE     ---       #1233
      01005D55H   LINE      CODE     ---       #1234
      01005D55H   LINE      CODE     ---       #1235
      01005D55H   LINE      CODE     ---       #1236
      01005D5EH   LINE      CODE     ---       #1237
      01005D5EH   LINE      CODE     ---       #1238
      ---         BLOCKEND  ---      ---       LVL=0

      0100882BH   BLOCK     CODE     ---       LVL=0
      0100882BH   BLOCK     CODE     NEAR LAB  LVL=1
      02009411H   SYMBOL    XDATA    BYTE      i
      ---         BLOCKEND  ---      ---       LVL=1
      0100882BH   LINE      CODE     ---       #1239
      0100882BH   LINE      CODE     ---       #1240
      0100882BH   LINE      CODE     ---       #1242
      01008850H   LINE      CODE     ---       #1243
      01008850H   LINE      CODE     ---       #1245
      0100885DH   LINE      CODE     ---       #1246
      0100885DH   LINE      CODE     ---       #1247
      01008873H   LINE      CODE     ---       #1248
      01008873H   LINE      CODE     ---       #1250
      0100887BH   LINE      CODE     ---       #1251
      01008895H   LINE      CODE     ---       #1253
      010088AEH   LINE      CODE     ---       #1254
      010088AEH   LINE      CODE     ---       #1255
      010088AEH   LINE      CODE     ---       #1256
      010088B2H   LINE      CODE     ---       #1257
      010088C3H   LINE      CODE     ---       #1258
      010088C5H   LINE      CODE     ---       #1259
      010088C5H   LINE      CODE     ---       #1260
      010088C9H   LINE      CODE     ---       #1261
      010088D2H   LINE      CODE     ---       #1263
      010088D4H   LINE      CODE     ---       #1264
      010088D4H   LINE      CODE     ---       #1265
      010088DDH   LINE      CODE     ---       #1266
      010088EAH   LINE      CODE     ---       #1267
      010088EAH   LINE      CODE     ---       #1268
      010088EAH   LINE      CODE     ---       #1269
      010088EAH   LINE      CODE     ---       #1270
      010088EAH   LINE      CODE     ---       #1271
      010088EAH   LINE      CODE     ---       #1272
      010088EAH   LINE      CODE     ---       #1273
      010088EAH   LINE      CODE     ---       #1274
      010088ECH   LINE      CODE     ---       #1276
      010088ECH   LINE      CODE     ---       #1277
      010088F2H   LINE      CODE     ---       #1279
      010088F2H   LINE      CODE     ---       #1280
      010088FCH   LINE      CODE     ---       #1281
      010088FCH   LINE      CODE     ---       #1282
      010088FEH   LINE      CODE     ---       #1285
      010088FEH   LINE      CODE     ---       #1286
      ---         BLOCKEND  ---      ---       LVL=0
LX51 LINKER/LOCATER V4.66.97.0                                                        11/04/2023  11:13:39  PAGE 197



      0100AC44H   BLOCK     CODE     ---       LVL=0
      00000006H   SYMBOL    DATA     WORD      year_adr
      0200C83AH   SYMBOL    XDATA    WORD      month_adr
      0200C83CH   SYMBOL    XDATA    WORD      day_adr
      0100AC52H   BLOCK     CODE     NEAR LAB  LVL=1
      0200C83EH   SYMBOL    XDATA    BYTE      day
      00000005H   SYMBOL    DATA     BYTE      month
      0200C83FH   SYMBOL    XDATA    WORD      year
      ---         BLOCKEND  ---      ---       LVL=1
      0100AC44H   LINE      CODE     ---       #1287
      0100AC52H   LINE      CODE     ---       #1288
      0100AC52H   LINE      CODE     ---       #1289
      0100AC55H   LINE      CODE     ---       #1290
      0100AC56H   LINE      CODE     ---       #1291
      0100AC5AH   LINE      CODE     ---       #1292
      0100AC65H   LINE      CODE     ---       #1293
      0100AC6CH   LINE      CODE     ---       #1294
      0100AC79H   LINE      CODE     ---       #1296
      0100AC89H   LINE      CODE     ---       #1301
      0100ACA1H   LINE      CODE     ---       #1302
      0100ACA1H   LINE      CODE     ---       #1303
      0100ACA8H   LINE      CODE     ---       #1304
      0100ACB8H   LINE      CODE     ---       #1305
      0100ACB8H   LINE      CODE     ---       #1307
      ---         BLOCKEND  ---      ---       LVL=0

      0100D324H   BLOCK     CODE     ---       LVL=0
      0100D324H   LINE      CODE     ---       #1308
      0100D324H   LINE      CODE     ---       #1309
      0100D324H   LINE      CODE     ---       #1310
      0100D333H   LINE      CODE     ---       #1311
      ---         BLOCKEND  ---      ---       LVL=0

      0100B35BH   BLOCK     CODE     ---       LVL=0
      0100B35BH   LINE      CODE     ---       #1314
      0100B35BH   LINE      CODE     ---       #1315
      0100B35BH   LINE      CODE     ---       #1316
      0100B364H   LINE      CODE     ---       #1317
      0100B377H   LINE      CODE     ---       #1318
      0100B3A0H   LINE      CODE     ---       #1319
      0100B3A3H   LINE      CODE     ---       #1320
      0100B3ACH   LINE      CODE     ---       #1321
      ---         BLOCKEND  ---      ---       LVL=0

      ---         MODULE    ---      ---       TOUCH_PANEL
      000000F1H   SFRSYM    DATA     BYTE      ADR_H
      00000080H   SFRSYM    DATA     BYTE      P0
      00000090H   SFRSYM    DATA     BYTE      P1
      000000A0H   SFRSYM    DATA     BYTE      P2
      000000B0H   SFRSYM    DATA     BYTE      P3
      000000F3H   SFRSYM    DATA     BYTE      ADR_L
      000000D0H.6 SFRSYM    DATA     BIT       AC
      000000A0H.6 SFRSYM    DATA     BIT       Red_LED1
      00000094H   SFRSYM    DATA     BYTE      PAGESEL
      000000F2H   SFRSYM    DATA     BYTE      ADR_M
      000000A8H.7 SFRSYM    DATA     BIT       EA
      000000F8H   SFRSYM    DATA     BYTE      RAMMODE
      000000B7H   SFRSYM    DATA     BYTE      P0MDOUT
      000000BCH   SFRSYM    DATA     BYTE      P1MDOUT
      000000A8H   SFRSYM    DATA     BYTE      IEN0
      000000BDH   SFRSYM    DATA     BYTE      P2MDOUT
      000000B8H   SFRSYM    DATA     BYTE      IEN1
      000000BEH   SFRSYM    DATA     BYTE      P3MDOUT
      0000009AH   SFRSYM    DATA     BYTE      IEN2
LX51 LINKER/LOCATER V4.66.97.0                                                        11/04/2023  11:13:39  PAGE 198


      000000F8H.4 SFRSYM    DATA     BIT       APP_ACK
      000000F4H   SFRSYM    DATA     BYTE      ADR_INC
      000000B8H.1 SFRSYM    DATA     BIT       ECAN
      000000D0H.7 SFRSYM    DATA     BIT       CY
      000000B8H.3 SFRSYM    DATA     BIT       ES4R
      000000B8H.5 SFRSYM    DATA     BIT       ES5R
      000000B8H.2 SFRSYM    DATA     BIT       ES4T
      000000B8H.4 SFRSYM    DATA     BIT       ES5T
      000000B0H.3 SFRSYM    DATA     BIT       RTC_SDA
      00000081H   SFRSYM    DATA     BYTE      SP
      000000D0H.2 SFRSYM    DATA     BIT       OV
      00000095H   SFRSYM    DATA     BYTE      D_PAGESEL
      000000F8H.7 SFRSYM    DATA     BIT       APP_REQ
      000000B0H.2 SFRSYM    DATA     BIT       RTC_SCL
      000000BFH   SFRSYM    DATA     BYTE      IRCON2
      00000087H   SFRSYM    DATA     BYTE      PCON
      000000BAH   SFRSYM    DATA     BYTE      SREL2H
      000000BBH   SFRSYM    DATA     BYTE      SREL3H
      000000F9H   SFRSYM    DATA     BYTE      PORTDRV
      00000089H   SFRSYM    DATA     BYTE      TMOD
      00000088H   SFRSYM    DATA     BYTE      TCON
      000000AAH   SFRSYM    DATA     BYTE      SREL2L
      0000009DH   SFRSYM    DATA     BYTE      SREL3L
      000000FFH   SFRSYM    DATA     BYTE      EXDATA
      00000097H   SFRSYM    DATA     BYTE      SCON4R
      000000ABH   SFRSYM    DATA     BYTE      SCON5R
      000000D9H   SFRSYM    DATA     BYTE      BODE4_DIV_H
      000000AEH   SFRSYM    DATA     BYTE      BODE5_DIV_H
      00000096H   SFRSYM    DATA     BYTE      SCON4T
      000000A7H   SFRSYM    DATA     BYTE      SCON5T
      00000088H.1 SFRSYM    DATA     BIT       IE0
      00000088H.3 SFRSYM    DATA     BIT       IE1
      000000C9H   SFRSYM    DATA     BYTE      MUX_SEL
      000000E7H   SFRSYM    DATA     BYTE      BODE4_DIV_L
      000000AFH   SFRSYM    DATA     BYTE      BODE5_DIV_L
      000000F0H   SFRSYM    DATA     BYTE      B
      000000E0H   SFRSYM    DATA     BYTE      ACC
      0000008FH   SFRSYM    DATA     BYTE      CAN_CR
      000000A9H   SFRSYM    DATA     BYTE      IP0
      000000A8H.1 SFRSYM    DATA     BIT       ET0
      000000B9H   SFRSYM    DATA     BYTE      IP1
      000000A8H.3 SFRSYM    DATA     BIT       ET1
      000000A8H.4 SFRSYM    DATA     BIT       ES2
      00000088H.5 SFRSYM    DATA     BIT       TF0
      000000FDH   SFRSYM    DATA     BYTE      DATA0
      000000A8H.5 SFRSYM    DATA     BIT       ET2
      00000088H.7 SFRSYM    DATA     BIT       TF1
      000000E8H   SFRSYM    DATA     BYTE      CAN_ET
      000000FCH   SFRSYM    DATA     BYTE      DATA1
      000000C0H.6 SFRSYM    DATA     BIT       TF2
      0000008CH   SFRSYM    DATA     BYTE      TH0
      000000FBH   SFRSYM    DATA     BYTE      DATA2
      000000A8H.0 SFRSYM    DATA     BIT       EX0
      00000098H.0 SFRSYM    DATA     BIT       RI2
      0000008DH   SFRSYM    DATA     BYTE      TH1
      00000088H.0 SFRSYM    DATA     BIT       IT0
      00000091H   SFRSYM    DATA     BYTE      CAN_IR
      000000FAH   SFRSYM    DATA     BYTE      DATA3
      000000CDH   SFRSYM    DATA     BYTE      TH2
      000000A8H.2 SFRSYM    DATA     BIT       EX1
      00000088H.2 SFRSYM    DATA     BIT       IT1
      000000D0H.0 SFRSYM    DATA     BIT       P
      00000098H.1 SFRSYM    DATA     BIT       TI2
      0000008AH   SFRSYM    DATA     BYTE      TL0
      0000008BH   SFRSYM    DATA     BYTE      TL1
LX51 LINKER/LOCATER V4.66.97.0                                                        11/04/2023  11:13:39  PAGE 199


      000000CCH   SFRSYM    DATA     BYTE      TL2
      000000F8H.6 SFRSYM    DATA     BIT       APP_EN
      000000D0H.3 SFRSYM    DATA     BIT       RS0
      000000D0H.4 SFRSYM    DATA     BIT       RS1
      00000088H.4 SFRSYM    DATA     BIT       TR0
      00000093H   SFRSYM    DATA     BYTE      DPC
      00000088H.6 SFRSYM    DATA     BIT       TR1
      000000E5H   SFRSYM    DATA     BYTE      MAC_MODE
      000000C8H.0 SFRSYM    DATA     BIT       TR2
      00000080H.0 SFRSYM    DATA     BIT       TR4
      00000080H.1 SFRSYM    DATA     BIT       TR5
      000000A0H.7 SFRSYM    DATA     BIT       Green_LED2
      00000083H   SFRSYM    DATA     BYTE      DPH
      00000082H   SFRSYM    DATA     BYTE      DPL
      00000099H   SFRSYM    DATA     BYTE      SBUF2
      0000009CH   SFRSYM    DATA     BYTE      SBUF3
      000000D8H   SFRSYM    DATA     BYTE      ADCON
      00000098H   SFRSYM    DATA     BYTE      SCON2
      000000C8H   SFRSYM    DATA     BYTE      T2CON
      0000009BH   SFRSYM    DATA     BYTE      SCON3
      000000E6H   SFRSYM    DATA     BYTE      DIV_MODE
      000000F8H.5 SFRSYM    DATA     BIT       APP_RW
      000000CBH   SFRSYM    DATA     BYTE      TRL2H
      0000008EH   SFRSYM    DATA     BYTE      CKCON
      0000009FH   SFRSYM    DATA     BYTE      SBUF4_RX
      000000ADH   SFRSYM    DATA     BYTE      SBUF5_RX
      000000CAH   SFRSYM    DATA     BYTE      TRL2L
      0000009EH   SFRSYM    DATA     BYTE      SBUF4_TX
      000000ACH   SFRSYM    DATA     BYTE      SBUF5_TX
      000000FEH   SFRSYM    DATA     BYTE      EXADR
      000000D0H.5 SFRSYM    DATA     BIT       F0
      000000D0H.1 SFRSYM    DATA     BIT       F1
      000000D0H   SFRSYM    DATA     BYTE      PSW
      000000C0H   SFRSYM    DATA     BYTE      IRCON

      ---         MODULE    ---      ---       ?C_INIT
      01009E9CH   PUBLIC    CODE     ---       ?C_START

      ---         MODULE    ---      ---       ?C?COPY
      0100223DH   PUBLIC    CODE     ---       ?C?COPY

      ---         MODULE    ---      ---       ?C?CLDPTR
      01002263H   PUBLIC    CODE     ---       ?C?CLDPTR

      ---         MODULE    ---      ---       ?C?CLDOPTR
      0100227CH   PUBLIC    CODE     ---       ?C?CLDOPTR

      ---         MODULE    ---      ---       ?C?CSTPTR
      010022A9H   PUBLIC    CODE     ---       ?C?CSTPTR

      ---         MODULE    ---      ---       ?C?CSTOPTR
      010022BBH   PUBLIC    CODE     ---       ?C?CSTOPTR

      ---         MODULE    ---      ---       ?C?IMUL
      010022DDH   PUBLIC    CODE     ---       ?C?IMUL

      ---         MODULE    ---      ---       ?C?UIDIV
      010022EFH   PUBLIC    CODE     ---       ?C?UIDIV

      ---         MODULE    ---      ---       ?C?SIDIV
      01002344H   PUBLIC    CODE     ---       ?C?SIDIV

      ---         MODULE    ---      ---       ?C?IILDX
      0100237AH   PUBLIC    CODE     ---       ?C?IILDX

LX51 LINKER/LOCATER V4.66.97.0                                                        11/04/2023  11:13:39  PAGE 200


      ---         MODULE    ---      ---       ?C?ILDIX
      01002390H   PUBLIC    CODE     ---       ?C?ILDIX

      ---         MODULE    ---      ---       ?C?ILDPTR
      010023A6H   PUBLIC    CODE     ---       ?C?ILDPTR

      ---         MODULE    ---      ---       ?C?ILDOPTR
      010023D1H   PUBLIC    CODE     ---       ?C?ILDOPTR

      ---         MODULE    ---      ---       ?C?ISTPTR
      01002409H   PUBLIC    CODE     ---       ?C?ISTPTR

      ---         MODULE    ---      ---       ?C?ISTOPTR
      01002428H   PUBLIC    CODE     ---       ?C?ISTOPTR

      ---         MODULE    ---      ---       ?C?LADD
      01002455H   PUBLIC    CODE     ---       ?C?LADD

      ---         MODULE    ---      ---       ?C?ULDIV
      0100249EH   PUBLIC    CODE     ---       ?C?ULDIV

      ---         MODULE    ---      ---       ?C?ULCMP
      01002530H   PUBLIC    CODE     ---       ?C?ULCMP

      ---         MODULE    ---      ---       ?C?ULSHR
      01002541H   PUBLIC    CODE     ---       ?C?ULSHR

      ---         MODULE    ---      ---       ?C?SLSHR
      01002554H   PUBLIC    CODE     ---       ?C?SLSHR

      ---         MODULE    ---      ---       ?C?LLDXDATA
      01002568H   PUBLIC    CODE     ---       ?C?LLDXDATA

      ---         MODULE    ---      ---       ?C?LLDXDATA0
      01002574H   PUBLIC    CODE     ---       ?C?LLDXDATA0

      ---         MODULE    ---      ---       ?C?LSTXDATA
      01002580H   PUBLIC    CODE     ---       ?C?LSTXDATA

      ---         MODULE    ---      ---       ?C?LSTKXDATA
      0100258CH   PUBLIC    CODE     ---       ?C?LSTKXDATA

      ---         MODULE    ---      ---       ?C?OFFXADD
      010025BDH   PUBLIC    CODE     ---       ?C?OFFXADD

      ---         MODULE    ---      ---       ?C?PLDXDATA
      010025C9H   PUBLIC    CODE     ---       ?C?PLDXDATA

      ---         MODULE    ---      ---       ?C?PLDIXDATA
      010025D2H   PUBLIC    CODE     ---       ?C?PLDIXDATA

      ---         MODULE    ---      ---       ?C?PSTXDATA
      010025E9H   PUBLIC    CODE     ---       ?C?PSTXDATA

      ---         MODULE    ---      ---       ?C?PLDOPTR
      010025F2H   PUBLIC    CODE     ---       ?C?PLDOPTR

      ---         MODULE    ---      ---       ?C?PSTOPTR
      01002622H   PUBLIC    CODE     ---       ?C?PSTOPTR

      ---         MODULE    ---      ---       ?C?CCASE
      0100267BH   PUBLIC    CODE     ---       ?C?CCASE

      ---         MODULE    ---      ---       PRINTF
      0200CB6BH   PUBLIC    XDATA    ---       ?_PRINTF517?BYTE
LX51 LINKER/LOCATER V4.66.97.0                                                        11/04/2023  11:13:39  PAGE 201


      0200CB6BH   PUBLIC    XDATA    ---       ?_PRINTF?BYTE
      0200CB6BH   PUBLIC    XDATA    ---       ?_SPRINTF517?BYTE
      0200CB6BH   PUBLIC    XDATA    ---       ?_SPRINTF?BYTE
      01004F5EH   PUBLIC    CODE     ---       _PRINTF
      01004F5EH   PUBLIC    CODE     ---       _PRINTF517
      01004F58H   PUBLIC    CODE     ---       _SPRINTF
      01004F58H   PUBLIC    CODE     ---       _SPRINTF517

      ---         MODULE    ---      ---       ?C?STRCMP
      0100281FH   PUBLIC    CODE     ---       ?C?STRCMP

      ---         MODULE    ---      ---       STRNCPY
      0200CB6BH   PUBLIC    XDATA    ---       ?_STRNCPY?BYTE
      0100AFC0H   PUBLIC    CODE     ---       _STRNCPY

      ---         MODULE    ---      ---       STRLEN
      0100D520H   PUBLIC    CODE     ---       _STRLEN

      ---         MODULE    ---      ---       STRCHR

      ---         MODULE    ---      ---       STRSTR
      0200CB77H   PUBLIC    XDATA    ---       ?_STRSTR?BYTE
      01009274H   PUBLIC    CODE     ---       _STRSTR

      ---         MODULE    ---      ---       ?C?MEMSET
      0100283CH   PUBLIC    CODE     ---       ?C?MEMSET

      ---         MODULE    ---      ---       ?C?MEMMOVE
      010029E2H   PUBLIC    CODE     ---       ?C?MEMMOVE

      ---         MODULE    ---      ---       ?C?PLDIDATA
      01002A0AH   PUBLIC    CODE     ---       ?C?PLDIDATA

      ---         MODULE    ---      ---       ?C?PSTIDATA
      01002A13H   PUBLIC    CODE     ---       ?C?PSTIDATA

      ---         MODULE    ---      ---       ?C?PLDPDATA
      01002A1CH   PUBLIC    CODE     ---       ?C?PLDPDATA

      ---         MODULE    ---      ---       ?C?PSTPDATA
      01002A25H   PUBLIC    CODE     ---       ?C?PSTPDATA

      ---         MODULE    ---      ---       ?C?PLDCODE
      01002A2EH   PUBLIC    CODE     ---       ?C?PLDCODE



*** WARNING L48: IGNORED RECURSIVE CALL
    CALLED:  _I2CBW/I2C
    CALLER:  I2CSTOP/I2C

*** WARNING L48: IGNORED RECURSIVE CALL
    CALLED:  _I2CBW/I2C
    CALLER:  I2C

*** WARNING L48: IGNORED RECURSIVE CALL
    CALLED:  _RX8130_WRIT_BYTE/I2C
    CALLER:  RX8130_STOP/I2C

Program Size: data=16.1 xdata=20401 const=6877 code=55072
LX51 RUN COMPLETE.  3 WARNING(S),  0 ERROR(S)
